
BareMinimum.elf:     file format elf32-avr

Sections:
Idx Name          Size      VMA       LMA       File off  Algn
  0 .data         000000b0  00800200  00006e3e  00006ed2  2**0
                  CONTENTS, ALLOC, LOAD, DATA
  1 .text         00006e3e  00000000  00000000  00000094  2**1
                  CONTENTS, ALLOC, LOAD, READONLY, CODE
  2 .bss          0000024d  008002b0  008002b0  00006f82  2**0
                  ALLOC
  3 .comment      00000030  00000000  00000000  00006f82  2**0
                  CONTENTS, READONLY
  4 .note.gnu.avr.deviceinfo 00000040  00000000  00000000  00006fb4  2**2
                  CONTENTS, READONLY
  5 .debug_aranges 00000cc8  00000000  00000000  00006ff4  2**0
                  CONTENTS, READONLY, DEBUGGING
  6 .debug_info   000188fb  00000000  00000000  00007cbc  2**0
                  CONTENTS, READONLY, DEBUGGING
  7 .debug_abbrev 00003c4b  00000000  00000000  000205b7  2**0
                  CONTENTS, READONLY, DEBUGGING
  8 .debug_line   00009368  00000000  00000000  00024202  2**0
                  CONTENTS, READONLY, DEBUGGING
  9 .debug_frame  00003840  00000000  00000000  0002d56c  2**2
                  CONTENTS, READONLY, DEBUGGING
 10 .debug_str    00006346  00000000  00000000  00030dac  2**0
                  CONTENTS, READONLY, DEBUGGING
 11 .debug_loc    00009847  00000000  00000000  000370f2  2**0
                  CONTENTS, READONLY, DEBUGGING
 12 .debug_ranges 00000d08  00000000  00000000  00040939  2**0
                  CONTENTS, READONLY, DEBUGGING

Disassembly of section .text:

00000000 <__vectors>:
       0:	28 c7       	rjmp	.+3664   	; 0xe52 <__dtors_end>
       2:	00 00       	nop
       4:	57 c7       	rjmp	.+3758   	; 0xeb4 <__bad_interrupt>
       6:	00 00       	nop
       8:	55 c7       	rjmp	.+3754   	; 0xeb4 <__bad_interrupt>
       a:	00 00       	nop
       c:	53 c7       	rjmp	.+3750   	; 0xeb4 <__bad_interrupt>
       e:	00 00       	nop
      10:	51 c7       	rjmp	.+3746   	; 0xeb4 <__bad_interrupt>
      12:	00 00       	nop
      14:	4f c7       	rjmp	.+3742   	; 0xeb4 <__bad_interrupt>
      16:	00 00       	nop
      18:	4d c7       	rjmp	.+3738   	; 0xeb4 <__bad_interrupt>
      1a:	00 00       	nop
      1c:	4b c7       	rjmp	.+3734   	; 0xeb4 <__bad_interrupt>
      1e:	00 00       	nop
      20:	49 c7       	rjmp	.+3730   	; 0xeb4 <__bad_interrupt>
      22:	00 00       	nop
      24:	47 c7       	rjmp	.+3726   	; 0xeb4 <__bad_interrupt>
      26:	00 00       	nop
      28:	45 c7       	rjmp	.+3722   	; 0xeb4 <__bad_interrupt>
      2a:	00 00       	nop
      2c:	43 c7       	rjmp	.+3718   	; 0xeb4 <__bad_interrupt>
      2e:	00 00       	nop
      30:	41 c7       	rjmp	.+3714   	; 0xeb4 <__bad_interrupt>
      32:	00 00       	nop
      34:	3f c7       	rjmp	.+3710   	; 0xeb4 <__bad_interrupt>
      36:	00 00       	nop
      38:	3d c7       	rjmp	.+3706   	; 0xeb4 <__bad_interrupt>
      3a:	00 00       	nop
      3c:	3b c7       	rjmp	.+3702   	; 0xeb4 <__bad_interrupt>
      3e:	00 00       	nop
      40:	39 c7       	rjmp	.+3698   	; 0xeb4 <__bad_interrupt>
      42:	00 00       	nop
      44:	0c 94 1a 2f 	jmp	0x5e34	; 0x5e34 <__vector_17>
      48:	35 c7       	rjmp	.+3690   	; 0xeb4 <__bad_interrupt>
      4a:	00 00       	nop
      4c:	33 c7       	rjmp	.+3686   	; 0xeb4 <__bad_interrupt>
      4e:	00 00       	nop
      50:	31 c7       	rjmp	.+3682   	; 0xeb4 <__bad_interrupt>
      52:	00 00       	nop
      54:	2f c7       	rjmp	.+3678   	; 0xeb4 <__bad_interrupt>
      56:	00 00       	nop
      58:	2d c7       	rjmp	.+3674   	; 0xeb4 <__bad_interrupt>
      5a:	00 00       	nop
      5c:	0c 94 ef 33 	jmp	0x67de	; 0x67de <__vector_23>
      60:	29 c7       	rjmp	.+3666   	; 0xeb4 <__bad_interrupt>
      62:	00 00       	nop
      64:	0c 94 d6 32 	jmp	0x65ac	; 0x65ac <__vector_25>
      68:	0c 94 0c 33 	jmp	0x6618	; 0x6618 <__vector_26>
      6c:	23 c7       	rjmp	.+3654   	; 0xeb4 <__bad_interrupt>
      6e:	00 00       	nop
      70:	21 c7       	rjmp	.+3650   	; 0xeb4 <__bad_interrupt>
      72:	00 00       	nop
      74:	1f c7       	rjmp	.+3646   	; 0xeb4 <__bad_interrupt>
      76:	00 00       	nop
      78:	1d c7       	rjmp	.+3642   	; 0xeb4 <__bad_interrupt>
      7a:	00 00       	nop
      7c:	1b c7       	rjmp	.+3638   	; 0xeb4 <__bad_interrupt>
      7e:	00 00       	nop
      80:	0c 94 51 2f 	jmp	0x5ea2	; 0x5ea2 <__vector_32>
      84:	17 c7       	rjmp	.+3630   	; 0xeb4 <__bad_interrupt>
      86:	00 00       	nop
      88:	15 c7       	rjmp	.+3626   	; 0xeb4 <__bad_interrupt>
      8a:	00 00       	nop
      8c:	13 c7       	rjmp	.+3622   	; 0xeb4 <__bad_interrupt>
      8e:	00 00       	nop
      90:	11 c7       	rjmp	.+3618   	; 0xeb4 <__bad_interrupt>
      92:	00 00       	nop
      94:	0f c7       	rjmp	.+3614   	; 0xeb4 <__bad_interrupt>
      96:	00 00       	nop
      98:	0d c7       	rjmp	.+3610   	; 0xeb4 <__bad_interrupt>
      9a:	00 00       	nop
      9c:	0c 94 24 0b 	jmp	0x1648	; 0x1648 <__vector_39>
      a0:	09 c7       	rjmp	.+3602   	; 0xeb4 <__bad_interrupt>
      a2:	00 00       	nop
      a4:	07 c7       	rjmp	.+3598   	; 0xeb4 <__bad_interrupt>
      a6:	00 00       	nop
      a8:	0c 94 88 2f 	jmp	0x5f10	; 0x5f10 <__vector_42>
      ac:	03 c7       	rjmp	.+3590   	; 0xeb4 <__bad_interrupt>
      ae:	00 00       	nop
      b0:	01 c7       	rjmp	.+3586   	; 0xeb4 <__bad_interrupt>
      b2:	00 00       	nop
      b4:	ff c6       	rjmp	.+3582   	; 0xeb4 <__bad_interrupt>
      b6:	00 00       	nop
      b8:	fd c6       	rjmp	.+3578   	; 0xeb4 <__bad_interrupt>
      ba:	00 00       	nop
      bc:	0c 94 bf 2f 	jmp	0x5f7e	; 0x5f7e <__vector_47>
      c0:	f9 c6       	rjmp	.+3570   	; 0xeb4 <__bad_interrupt>
      c2:	00 00       	nop
      c4:	f7 c6       	rjmp	.+3566   	; 0xeb4 <__bad_interrupt>
      c6:	00 00       	nop
      c8:	f5 c6       	rjmp	.+3562   	; 0xeb4 <__bad_interrupt>
      ca:	00 00       	nop
      cc:	f3 c6       	rjmp	.+3558   	; 0xeb4 <__bad_interrupt>
      ce:	00 00       	nop
      d0:	f1 c6       	rjmp	.+3554   	; 0xeb4 <__bad_interrupt>
      d2:	00 00       	nop
      d4:	ef c6       	rjmp	.+3550   	; 0xeb4 <__bad_interrupt>
      d6:	00 00       	nop
      d8:	ed c6       	rjmp	.+3546   	; 0xeb4 <__bad_interrupt>
      da:	00 00       	nop
      dc:	eb c6       	rjmp	.+3542   	; 0xeb4 <__bad_interrupt>
      de:	00 00       	nop
      e0:	e9 c6       	rjmp	.+3538   	; 0xeb4 <__bad_interrupt>
      e2:	00 00       	nop
      e4:	54 0c       	add	r5, r4
      e6:	59 0c       	add	r5, r9
      e8:	59 0c       	add	r5, r9
      ea:	59 0c       	add	r5, r9
      ec:	59 0c       	add	r5, r9
      ee:	59 0c       	add	r5, r9
      f0:	59 0c       	add	r5, r9
      f2:	59 0c       	add	r5, r9
      f4:	5a 0b       	sbc	r21, r26
      f6:	59 0c       	add	r5, r9
      f8:	59 0c       	add	r5, r9
      fa:	59 0c       	add	r5, r9
      fc:	59 0c       	add	r5, r9
      fe:	59 0c       	add	r5, r9
     100:	59 0c       	add	r5, r9
     102:	59 0c       	add	r5, r9
     104:	5a 0b       	sbc	r21, r26
     106:	59 0c       	add	r5, r9
     108:	59 0c       	add	r5, r9
     10a:	59 0c       	add	r5, r9
     10c:	59 0c       	add	r5, r9
     10e:	59 0c       	add	r5, r9
     110:	59 0c       	add	r5, r9
     112:	59 0c       	add	r5, r9
     114:	63 0b       	sbc	r22, r19
     116:	59 0c       	add	r5, r9
     118:	59 0c       	add	r5, r9
     11a:	59 0c       	add	r5, r9
     11c:	59 0c       	add	r5, r9
     11e:	59 0c       	add	r5, r9
     120:	59 0c       	add	r5, r9
     122:	59 0c       	add	r5, r9
     124:	8d 0b       	sbc	r24, r29
     126:	59 0c       	add	r5, r9
     128:	59 0c       	add	r5, r9
     12a:	59 0c       	add	r5, r9
     12c:	59 0c       	add	r5, r9
     12e:	59 0c       	add	r5, r9
     130:	59 0c       	add	r5, r9
     132:	59 0c       	add	r5, r9
     134:	63 0b       	sbc	r22, r19
     136:	59 0c       	add	r5, r9
     138:	59 0c       	add	r5, r9
     13a:	59 0c       	add	r5, r9
     13c:	59 0c       	add	r5, r9
     13e:	59 0c       	add	r5, r9
     140:	59 0c       	add	r5, r9
     142:	59 0c       	add	r5, r9
     144:	92 0b       	sbc	r25, r18
     146:	59 0c       	add	r5, r9
     148:	59 0c       	add	r5, r9
     14a:	59 0c       	add	r5, r9
     14c:	59 0c       	add	r5, r9
     14e:	59 0c       	add	r5, r9
     150:	59 0c       	add	r5, r9
     152:	59 0c       	add	r5, r9
     154:	97 0b       	sbc	r25, r23
     156:	59 0c       	add	r5, r9
     158:	59 0c       	add	r5, r9
     15a:	59 0c       	add	r5, r9
     15c:	59 0c       	add	r5, r9
     15e:	59 0c       	add	r5, r9
     160:	59 0c       	add	r5, r9
     162:	59 0c       	add	r5, r9
     164:	ac 0b       	sbc	r26, r28
     166:	59 0c       	add	r5, r9
     168:	59 0c       	add	r5, r9
     16a:	59 0c       	add	r5, r9
     16c:	59 0c       	add	r5, r9
     16e:	59 0c       	add	r5, r9
     170:	59 0c       	add	r5, r9
     172:	59 0c       	add	r5, r9
     174:	d9 0b       	sbc	r29, r25
     176:	59 0c       	add	r5, r9
     178:	59 0c       	add	r5, r9
     17a:	59 0c       	add	r5, r9
     17c:	59 0c       	add	r5, r9
     17e:	59 0c       	add	r5, r9
     180:	59 0c       	add	r5, r9
     182:	59 0c       	add	r5, r9
     184:	9c 0b       	sbc	r25, r28
     186:	59 0c       	add	r5, r9
     188:	59 0c       	add	r5, r9
     18a:	59 0c       	add	r5, r9
     18c:	59 0c       	add	r5, r9
     18e:	59 0c       	add	r5, r9
     190:	59 0c       	add	r5, r9
     192:	59 0c       	add	r5, r9
     194:	b8 0b       	sbc	r27, r24
     196:	59 0c       	add	r5, r9
     198:	59 0c       	add	r5, r9
     19a:	59 0c       	add	r5, r9
     19c:	59 0c       	add	r5, r9
     19e:	59 0c       	add	r5, r9
     1a0:	59 0c       	add	r5, r9
     1a2:	59 0c       	add	r5, r9
     1a4:	db 0b       	sbc	r29, r27
     1a6:	59 0c       	add	r5, r9
     1a8:	59 0c       	add	r5, r9
     1aa:	59 0c       	add	r5, r9
     1ac:	59 0c       	add	r5, r9
     1ae:	59 0c       	add	r5, r9
     1b0:	59 0c       	add	r5, r9
     1b2:	59 0c       	add	r5, r9
     1b4:	db 0b       	sbc	r29, r27
     1b6:	59 0c       	add	r5, r9
     1b8:	59 0c       	add	r5, r9
     1ba:	59 0c       	add	r5, r9
     1bc:	59 0c       	add	r5, r9
     1be:	59 0c       	add	r5, r9
     1c0:	59 0c       	add	r5, r9
     1c2:	59 0c       	add	r5, r9
     1c4:	db 0b       	sbc	r29, r27
     1c6:	59 0c       	add	r5, r9
     1c8:	59 0c       	add	r5, r9
     1ca:	59 0c       	add	r5, r9
     1cc:	59 0c       	add	r5, r9
     1ce:	59 0c       	add	r5, r9
     1d0:	59 0c       	add	r5, r9
     1d2:	59 0c       	add	r5, r9
     1d4:	db 0b       	sbc	r29, r27
     1d6:	59 0c       	add	r5, r9
     1d8:	59 0c       	add	r5, r9
     1da:	59 0c       	add	r5, r9
     1dc:	59 0c       	add	r5, r9
     1de:	59 0c       	add	r5, r9
     1e0:	59 0c       	add	r5, r9
     1e2:	59 0c       	add	r5, r9
     1e4:	e3 0b       	sbc	r30, r19
     1e6:	59 0c       	add	r5, r9
     1e8:	59 0c       	add	r5, r9
     1ea:	59 0c       	add	r5, r9
     1ec:	59 0c       	add	r5, r9
     1ee:	59 0c       	add	r5, r9
     1f0:	59 0c       	add	r5, r9
     1f2:	59 0c       	add	r5, r9
     1f4:	1a 0c       	add	r1, r10
     1f6:	59 0c       	add	r5, r9
     1f8:	59 0c       	add	r5, r9
     1fa:	59 0c       	add	r5, r9
     1fc:	59 0c       	add	r5, r9
     1fe:	59 0c       	add	r5, r9
     200:	59 0c       	add	r5, r9
     202:	59 0c       	add	r5, r9
     204:	e3 0b       	sbc	r30, r19
     206:	59 0c       	add	r5, r9
     208:	59 0c       	add	r5, r9
     20a:	59 0c       	add	r5, r9
     20c:	59 0c       	add	r5, r9
     20e:	59 0c       	add	r5, r9
     210:	59 0c       	add	r5, r9
     212:	59 0c       	add	r5, r9
     214:	1a 0c       	add	r1, r10
     216:	59 0c       	add	r5, r9
     218:	59 0c       	add	r5, r9
     21a:	59 0c       	add	r5, r9
     21c:	59 0c       	add	r5, r9
     21e:	59 0c       	add	r5, r9
     220:	59 0c       	add	r5, r9
     222:	59 0c       	add	r5, r9
     224:	fd 0b       	sbc	r31, r29
     226:	59 0c       	add	r5, r9
     228:	59 0c       	add	r5, r9
     22a:	59 0c       	add	r5, r9
     22c:	59 0c       	add	r5, r9
     22e:	59 0c       	add	r5, r9
     230:	59 0c       	add	r5, r9
     232:	59 0c       	add	r5, r9
     234:	1d 0c       	add	r1, r13
     236:	59 0c       	add	r5, r9
     238:	59 0c       	add	r5, r9
     23a:	59 0c       	add	r5, r9
     23c:	59 0c       	add	r5, r9
     23e:	59 0c       	add	r5, r9
     240:	59 0c       	add	r5, r9
     242:	59 0c       	add	r5, r9
     244:	1d 0c       	add	r1, r13
     246:	59 0c       	add	r5, r9
     248:	59 0c       	add	r5, r9
     24a:	59 0c       	add	r5, r9
     24c:	59 0c       	add	r5, r9
     24e:	59 0c       	add	r5, r9
     250:	59 0c       	add	r5, r9
     252:	59 0c       	add	r5, r9
     254:	33 0c       	add	r3, r3
     256:	59 0c       	add	r5, r9
     258:	59 0c       	add	r5, r9
     25a:	59 0c       	add	r5, r9
     25c:	59 0c       	add	r5, r9
     25e:	59 0c       	add	r5, r9
     260:	59 0c       	add	r5, r9
     262:	59 0c       	add	r5, r9
     264:	4f 0c       	add	r4, r15
     266:	59 0c       	add	r5, r9
     268:	59 0c       	add	r5, r9
     26a:	59 0c       	add	r5, r9
     26c:	59 0c       	add	r5, r9
     26e:	59 0c       	add	r5, r9
     270:	59 0c       	add	r5, r9
     272:	59 0c       	add	r5, r9
     274:	4f 0c       	add	r4, r15
     276:	59 0c       	add	r5, r9
     278:	59 0c       	add	r5, r9
     27a:	59 0c       	add	r5, r9
     27c:	59 0c       	add	r5, r9
     27e:	59 0c       	add	r5, r9
     280:	59 0c       	add	r5, r9
     282:	59 0c       	add	r5, r9
     284:	59 0c       	add	r5, r9
     286:	59 0c       	add	r5, r9
     288:	59 0c       	add	r5, r9
     28a:	59 0c       	add	r5, r9
     28c:	59 0c       	add	r5, r9
     28e:	59 0c       	add	r5, r9
     290:	59 0c       	add	r5, r9
     292:	59 0c       	add	r5, r9
     294:	59 0c       	add	r5, r9
     296:	59 0c       	add	r5, r9
     298:	59 0c       	add	r5, r9
     29a:	59 0c       	add	r5, r9
     29c:	59 0c       	add	r5, r9
     29e:	59 0c       	add	r5, r9
     2a0:	59 0c       	add	r5, r9
     2a2:	59 0c       	add	r5, r9
     2a4:	59 0c       	add	r5, r9
     2a6:	59 0c       	add	r5, r9
     2a8:	59 0c       	add	r5, r9
     2aa:	59 0c       	add	r5, r9
     2ac:	59 0c       	add	r5, r9
     2ae:	59 0c       	add	r5, r9
     2b0:	59 0c       	add	r5, r9
     2b2:	59 0c       	add	r5, r9
     2b4:	59 0c       	add	r5, r9
     2b6:	59 0c       	add	r5, r9
     2b8:	59 0c       	add	r5, r9
     2ba:	59 0c       	add	r5, r9
     2bc:	59 0c       	add	r5, r9
     2be:	59 0c       	add	r5, r9
     2c0:	59 0c       	add	r5, r9
     2c2:	59 0c       	add	r5, r9
     2c4:	59 0c       	add	r5, r9
     2c6:	59 0c       	add	r5, r9
     2c8:	59 0c       	add	r5, r9
     2ca:	59 0c       	add	r5, r9
     2cc:	59 0c       	add	r5, r9
     2ce:	59 0c       	add	r5, r9
     2d0:	59 0c       	add	r5, r9
     2d2:	59 0c       	add	r5, r9
     2d4:	58 0c       	add	r5, r8
     2d6:	13 35       	cpi	r17, 0x53	; 83
     2d8:	16 35       	cpi	r17, 0x56	; 86
     2da:	05 35       	cpi	r16, 0x55	; 85
     2dc:	09 35       	cpi	r16, 0x59	; 89
     2de:	0f 35       	cpi	r16, 0x5F	; 95
     2e0:	4d 35       	cpi	r20, 0x5D	; 93
     2e2:	1a 35       	cpi	r17, 0x5A	; 90
     2e4:	1e 35       	cpi	r17, 0x5E	; 94
     2e6:	24 35       	cpi	r18, 0x54	; 84
     2e8:	28 35       	cpi	r18, 0x58	; 88
     2ea:	2c 35       	cpi	r18, 0x5C	; 92
     2ec:	32 35       	cpi	r19, 0x52	; 82
     2ee:	36 35       	cpi	r19, 0x56	; 86
     2f0:	3a 35       	cpi	r19, 0x5A	; 90
     2f2:	4d 35       	cpi	r20, 0x5D	; 93
     2f4:	40 35       	cpi	r20, 0x50	; 80
     2f6:	44 35       	cpi	r20, 0x54	; 84
     2f8:	48 35       	cpi	r20, 0x58	; 88

000002fa <__trampolines_end>:
     2fa:	53 53       	subi	r21, 0x33	; 51
     2fc:	44 31       	cpi	r20, 0x14	; 20
     2fe:	33 30       	cpi	r19, 0x03	; 3
     300:	36 20       	and	r3, r6
     302:	61 6c       	ori	r22, 0xC1	; 193
     304:	6c 6f       	ori	r22, 0xFC	; 252
     306:	63 61       	ori	r22, 0x13	; 19
     308:	74 69       	ori	r23, 0x94	; 148
     30a:	6f 6e       	ori	r22, 0xEF	; 239
     30c:	20 66       	ori	r18, 0x60	; 96
     30e:	61 69       	ori	r22, 0x91	; 145
     310:	6c 65       	ori	r22, 0x5C	; 92
     312:	64 00       	.word	0x0064	; ????

00000314 <_ZZ4loopE3__c>:
     314:	50 61 61 20 65 6e 20 6d 61 72 6b 65 64 73 70 6c     Paa en markedspl
     324:	61 64 73 20 68 76 6f 72 20 6a 65 67 20 76 61 72     ads hvor jeg var
     334:	20 66 61 65 72 64 69 67 20 6d 65 64 20 61 74 20      faerdig med at 
     344:	73 70 69 6c 6c 65 2c 20 73 74 6f 64 20 6a 65 67     spille, stod jeg
     354:	20 74 72 e6 74 20 6f 67 20 6b 6f 6c 64 20 62 61      tr.t og kold ba
     364:	67 20 73 63 65 6e 65 6e 20 6f 67 20 73 6c 61 70     g scenen og slap
     374:	70 65 64 27 20 61 66 00                             ped' af.

0000037c <_ZL4font>:
     37c:	00 00 00 00 00 3e 5b 4f 5b 3e 3e 6b 4f 6b 3e 1c     .....>[O[>>kOk>.
     38c:	3e 7c 3e 1c 18 3c 7e 3c 18 1c 57 7d 57 1c 1c 5e     >|>..<~<..W}W..^
     39c:	7f 5e 1c 00 18 3c 18 00 ff e7 c3 e7 ff 00 18 24     .^...<.........$
     3ac:	18 00 ff e7 db e7 ff 30 48 3a 06 0e 26 29 79 29     .......0H:..&)y)
     3bc:	26 40 7f 05 05 07 40 7f 05 25 3f 5a 3c e7 3c 5a     &@....@..%?Z<.<Z
     3cc:	7f 3e 1c 1c 08 08 1c 1c 3e 7f 14 22 7f 22 14 5f     .>......>.."."._
     3dc:	5f 00 5f 5f 06 09 7f 01 7f 00 66 89 95 6a 60 60     _.__......f..j``
     3ec:	60 60 60 94 a2 ff a2 94 08 04 7e 04 08 10 20 7e     ```.......~... ~
     3fc:	20 10 08 08 2a 1c 08 08 1c 2a 08 08 1e 10 10 10      ...*....*......
     40c:	10 0c 1e 0c 1e 0c 30 38 3e 38 30 06 0e 3e 0e 06     ......08>80..>..
     41c:	00 00 00 00 00 00 00 5f 00 00 00 07 00 07 00 14     ......._........
     42c:	7f 14 7f 14 24 2a 7f 2a 12 23 13 08 64 62 36 49     ....$*.*.#..db6I
     43c:	56 20 50 00 08 07 03 00 00 1c 22 41 00 00 41 22     V P......."A..A"
     44c:	1c 00 2a 1c 7f 1c 2a 08 08 3e 08 08 00 80 70 30     ..*...*..>....p0
     45c:	00 08 08 08 08 08 00 00 60 60 00 20 10 08 04 02     ........``. ....
     46c:	3e 51 49 45 3e 00 42 7f 40 00 72 49 49 49 46 21     >QIE>.B.@.rIIIF!
     47c:	41 49 4d 33 18 14 12 7f 10 27 45 45 45 39 3c 4a     AIM3.....'EEE9<J
     48c:	49 49 31 41 21 11 09 07 36 49 49 49 36 46 49 49     II1A!...6III6FII
     49c:	29 1e 00 00 14 00 00 00 40 34 00 00 00 08 14 22     ).......@4....."
     4ac:	41 14 14 14 14 14 00 41 22 14 08 02 01 59 09 06     A......A"....Y..
     4bc:	3e 41 5d 59 4e 7c 12 11 12 7c 7f 49 49 49 36 3e     >A]YN|...|.III6>
     4cc:	41 41 41 22 7f 41 41 41 3e 7f 49 49 49 41 7f 09     AAA".AAA>.IIIA..
     4dc:	09 09 01 3e 41 41 51 73 7f 08 08 08 7f 00 41 7f     ...>AAQs......A.
     4ec:	41 00 20 40 41 3f 01 7f 08 14 22 41 7f 40 40 40     A. @A?...."A.@@@
     4fc:	40 7f 02 1c 02 7f 7f 04 08 10 7f 3e 41 41 41 3e     @..........>AAA>
     50c:	7f 09 09 09 06 3e 41 51 21 5e 7f 09 19 29 46 26     .....>AQ!^...)F&
     51c:	49 49 49 32 03 01 7f 01 03 3f 40 40 40 3f 1f 20     III2.....?@@@?. 
     52c:	40 20 1f 3f 40 38 40 3f 63 14 08 14 63 03 04 78     @ .?@8@?c...c..x
     53c:	04 03 61 59 49 4d 43 00 7f 41 41 41 02 04 08 10     ..aYIMC..AAA....
     54c:	20 00 41 41 41 7f 04 02 01 02 04 40 40 40 40 40      .AAA......@@@@@
     55c:	00 03 07 08 00 20 54 54 78 40 7f 28 44 44 38 38     ..... TTx@.(DD88
     56c:	44 44 44 28 38 44 44 28 7f 38 54 54 54 18 00 08     DDD(8DD(.8TTT...
     57c:	7e 09 02 18 a4 a4 9c 78 7f 08 04 04 78 00 44 7d     ~......x....x.D}
     58c:	40 00 20 40 40 3d 00 7f 10 28 44 00 00 41 7f 40     @. @@=...(D..A.@
     59c:	00 7c 04 78 04 78 7c 08 04 04 78 38 44 44 44 38     .|.x.x|...x8DDD8
     5ac:	fc 18 24 24 18 18 24 24 18 fc 7c 08 04 04 08 48     ..$$..$$..|....H
     5bc:	54 54 54 24 04 04 3f 44 24 3c 40 40 20 7c 1c 20     TTT$..?D$<@@ |. 
     5cc:	40 20 1c 3c 40 30 40 3c 44 28 10 28 44 4c 90 90     @ .<@0@<D(.(DL..
     5dc:	90 7c 44 64 54 4c 44 00 08 36 41 00 00 00 77 00     .|DdTLD..6A...w.
     5ec:	00 00 41 36 08 00 02 01 02 04 02 3c 26 23 26 3c     ..A6.......<&#&<
     5fc:	1e a1 a1 61 12 3a 40 40 20 7a 38 54 54 55 59 21     ...a.:@@ z8TTUY!
     60c:	55 55 79 41 22 54 54 78 42 21 55 54 78 40 20 54     UUyA"TTxB!UTx@ T
     61c:	55 79 40 0c 1e 52 72 12 39 55 55 55 59 39 54 54     Uy@..Rr.9UUUY9TT
     62c:	54 59 39 55 54 54 58 00 00 45 7c 41 00 02 45 7d     TY9UTTX..E|A..E}
     63c:	42 00 01 45 7c 40 7d 12 11 12 7d f0 28 25 28 f0     B..E|@}...}.(%(.
     64c:	7c 54 55 45 00 20 54 54 7c 54 7c 0a 09 7f 49 32     |TUE. TT|T|...I2
     65c:	49 49 49 32 3a 44 44 44 3a 32 4a 48 48 30 3a 41     III2:DDD:2JHH0:A
     66c:	41 21 7a 3a 42 40 20 78 00 9d a0 a0 7d 3d 42 42     A!z:B@ x....}=BB
     67c:	42 3d 3d 40 40 40 3d 3c 24 ff 24 24 48 7e 49 43     B==@@@=<$.$$H~IC
     68c:	66 2b 2f fc 2f 2b ff 09 29 f6 20 c0 88 7e 09 03     f+/./+..). ..~..
     69c:	20 54 54 79 41 00 00 44 7d 41 30 48 48 4a 32 38      TTyA..D}A0HHJ28
     6ac:	40 40 22 7a 00 7a 0a 0a 72 7d 0d 19 31 7d 26 29     @@"z.z..r}..1}&)
     6bc:	29 2f 28 26 29 29 29 26 30 48 4d 40 20 38 08 08     )/(&)))&0HM@ 8..
     6cc:	08 08 08 08 08 08 38 2f 10 c8 ac ba 2f 10 28 34     ......8/..../.(4
     6dc:	fa 00 00 7b 00 00 08 14 2a 14 22 22 14 2a 14 08     ...{....*."".*..
     6ec:	55 00 55 00 55 aa 55 aa 55 aa ff 55 ff 55 ff 00     U.U.U.U.U..U.U..
     6fc:	00 00 ff 00 10 10 10 ff 00 14 14 14 ff 00 10 10     ................
     70c:	ff 00 ff 10 10 f0 10 f0 14 14 14 fc 00 14 14 f7     ................
     71c:	00 ff 00 00 ff 00 ff 14 14 f4 04 fc 14 14 17 10     ................
     72c:	1f 10 10 1f 10 1f 14 14 14 1f 00 10 10 10 f0 00     ................
     73c:	00 00 00 1f 10 10 10 10 1f 10 10 10 10 f0 10 00     ................
     74c:	00 00 ff 10 10 10 10 10 10 10 10 10 ff 10 00 00     ................
     75c:	00 ff 14 00 00 ff 00 ff 00 00 1f 10 17 00 00 fc     ................
     76c:	04 f4 14 14 17 10 17 14 14 f4 04 f4 00 00 ff 00     ................
     77c:	f7 14 14 14 14 14 14 14 f7 00 f7 14 14 14 17 14     ................
     78c:	10 10 1f 10 1f 14 14 14 f4 14 10 10 f0 10 f0 00     ................
     79c:	00 1f 10 1f 00 00 00 1f 14 00 00 00 fc 14 00 00     ................
     7ac:	f0 10 f0 10 10 ff 10 ff 14 14 14 ff 14 10 10 10     ................
     7bc:	1f 00 00 00 00 f0 10 ff ff ff ff ff f0 f0 f0 f0     ................
     7cc:	f0 ff ff ff 00 00 00 00 00 ff ff 0f 0f 0f 0f 0f     ................
     7dc:	38 44 44 38 44 fc 4a 4a 4a 34 7e 02 02 06 06 02     8DD8D.JJJ4~.....
     7ec:	7e 02 7e 02 63 55 49 41 63 38 44 44 3c 04 40 7e     ~.~.cUIAc8DD<.@~
     7fc:	20 1e 20 06 02 7e 02 02 99 a5 e7 a5 99 1c 2a 49      . ..~........*I
     80c:	2a 1c 4c 72 01 72 4c 30 4a 4d 4d 30 30 48 78 48     *.Lr.rL0JMM00HxH
     81c:	30 bc 62 5a 46 3d 3e 49 49 49 00 7e 01 01 01 7e     0.bZF=>III.~...~
     82c:	2a 2a 2a 2a 2a 44 44 5f 44 44 40 51 4a 44 40 40     *****DD_DD@QJD@@
     83c:	44 4a 51 40 00 00 ff 01 03 e0 80 ff 00 00 08 08     DJQ@............
     84c:	6b 6b 08 36 12 36 24 36 06 0f 09 0f 06 00 00 18     kk.6.6$6........
     85c:	18 00 00 00 10 10 00 30 40 ff 01 01 00 1f 01 01     .......0@.......
     86c:	1e 00 19 1d 17 12 00 3c 3c 3c 3c 00 00 00 00 00     .......<<<<.....

0000087c <_ZL12splash1_data>:
     87c:	00 00 00 00 00 01 80 00 00 00 00 00 00 00 00 00     ................
     88c:	03 80 00 00 00 00 00 00 00 00 00 07 c0 00 00 00     ................
     89c:	00 00 00 00 00 00 07 c0 00 00 00 00 00 00 00 00     ................
     8ac:	00 0f c0 00 00 00 00 00 00 00 00 00 1f e0 00 00     ................
     8bc:	00 00 00 00 00 00 00 1f e0 00 00 00 00 00 00 00     ................
     8cc:	00 00 3f e0 00 00 00 00 00 00 00 00 00 3f f0 00     ..?..........?..
	...
     8e4:	7f f0 00 00 00 00 00 00 00 1f f8 7f f0 00 00 00     ................
     8f4:	00 00 00 00 3f fe 7f f0 00 00 00 00 00 00 00 3f     ....?..........?
     904:	ff 7f f0 00 00 00 00 00 00 00 1f ff fb e0 00 00     ................
     914:	00 00 00 00 00 0f ff f9 ff c0 00 00 00 00 00 00     ................
     924:	0f ff f9 ff f8 00 00 00 00 00 00 07 ff f1 ff ff     ................
     934:	00 00 00 00 00 00 03 fc 73 ff ff 80 00 00 00 00     ........s.......
     944:	00 01 fe 3f ff ff 80 00 00 00 00 00 00 ff 1e 0f     ...?............
     954:	ff 00 00 00 00 00 00 00 7f fe 1f fc 00 00 00 00     ................
     964:	00 00 00 3f ff ff f8 00 00 00 00 00 00 00 0f df     ...?............
     974:	ff e0 00 00 00 00 00 00 00 1f 19 ff c0 00 00 00     ................
     984:	00 00 00 00 3f 3c ff 00 00 00 00 00 00 00 00 7e     ....?<.........~
     994:	7c f8 00 00 00 00 00 00 00 00 7f fe 7c 00 00 00     |...........|...
     9a4:	00 00 00 00 00 ff ff fc 00 00 00 00 00 00 00 00     ................
     9b4:	ff ff fe 00 00 00 00 00 00 00 00 ff ff fe 00 00     ................
     9c4:	00 00 00 00 00 01 ff ef fe 00 00 00 00 00 00 00     ................
     9d4:	01 ff cf fe 00 00 00 00 00 00 00 03 ff 07 fe 00     ................
     9e4:	00 00 00 00 00 00 03 fc 07 fe 00 00 00 00 00 00     ................
     9f4:	00 03 f0 03 fe 00 00 00 00 00 00 00 01 80 00 fe     ................
	...
     a0c:	00 00 7e 00 00 00 00 00 00 00 00 00 00 3e 00 00     ..~..........>..
	...
     a24:	0c 00 00 00 00 00 00 07 80 00 fc 00 00 03 c0 00     ................
     a34:	00 00 07 80 01 fc 00 00 03 c0 00 00 00 07 80 01     ................
     a44:	fc 00 00 03 c0 00 00 00 07 80 01 e0 00 00 00 1e     ................
     a54:	00 00 00 07 80 01 e0 00 00 00 1e 00 7f e3 f7 9f     ................
     a64:	f9 fd e7 78 7b df c0 ff f7 ff bf fd fd ff 78 7b     ...x{.........x{
     a74:	df c0 ff f7 ff bf fd fd ff 78 7b df c0 f0 f7 87     .........x{.....
     a84:	bc 3d e1 ff 78 7b de 00 f0 f7 87 bc 3d e1 f0 78     .=..x{......=..x
     a94:	7b de 00 00 f7 87 80 3d e1 e0 78 7b de 00 7f f7     {......=..x{....
     aa4:	87 9f fd e1 e0 78 7b de 00 ff f7 87 bf fd e1 e0     .....x{.........
     ab4:	78 7b de 00 f0 f7 87 bc 3d e1 e0 78 7b de 00 f0     x{......=..x{...
     ac4:	f7 87 bc 3d e1 e0 78 7b de 00 f0 f7 87 bc 3d e1     ...=..x{......=.
     ad4:	e0 78 7b de 00 ff f7 ff bf fd e1 e0 7f fb df c0     .x{.............
     ae4:	ff f7 ff bf fd e1 e0 7f fb df c0 7c f3 f3 9f 3d     ...........|...=
     af4:	e1 e0 3e 7b cf c0 00 00 00 00 00 00 00 00 00 00     ..>{............
     b04:	00 ff ff ff ff ff ff ff ff ff ff c0 ff ff ff ff     ................
     b14:	fd 68 db 11 1a 31 c0 ff ff ff ff fd 2b 5a fb 6a     .h...1......+Z.j
     b24:	ef c0 ff ff ff ff fd 4b 5b 3b 1a 33 c0 ff ff ff     .......K[;.3....
     b34:	ff fd 6b 5b db 6a fd c0                             ..k[.j..

00000b3c <_ZL12splash2_data>:
     b3c:	00 00 60 00 00 00 00 00 00 00 00 00 00 00 00 00     ..`.............
     b4c:	00 e0 00 00 00 00 00 00 00 00 00 00 00 00 00 01     ................
     b5c:	e0 00 00 00 00 00 00 00 00 00 00 00 00 00 01 f0     ................
	...
     b78:	00 03 f0 00 00 00 00 00 00 00 00 00 00 00 00 00     ................
     b88:	07 f0 00 00 00 00 00 00 00 00 00 00 00 00 00 07     ................
     b98:	f8 00 00 00 00 00 00 00 00 00 00 00 00 00 0f f8     ................
     ba8:	00 00 00 03 c0 00 7e 00 00 01 e0 00 7f 0f f8 00     ......~.........
     bb8:	00 00 03 c0 00 fe 00 00 01 e0 00 ff ef f8 00 00     ................
     bc8:	00 03 c0 00 fe 00 00 01 e0 00 ff ff f8 00 00 00     ................
     bd8:	03 c0 00 f0 00 00 00 0f 00 7f fe 7f c0 00 00 03     ................
     be8:	c0 00 f0 00 00 00 0f 00 3f fe 7f f8 3f f1 fb cf     ........?...?...
     bf8:	fc fe f3 bc 3d ef e0 1f fe 7f ff 7f fb ff df fe     ....=...........
     c08:	fe ff bc 3d ef e0 1f c6 ff ff 7f fb ff df fe fe     ...=............
     c18:	ff bc 3d ef e0 0f e3 c7 fe 78 7b c3 de 1e f0 ff     ..=......x{.....
     c28:	bc 3d ef 00 07 ff 87 fc 78 7b c3 de 1e f0 f8 3c     .=......x{.....<
     c38:	3d ef 00 01 ff ff f0 00 7b c3 c0 1e f0 f0 3c 3d     =.......{.....<=
     c48:	ef 00 01 f3 7f e0 3f fb c3 cf fe f0 f0 3c 3d ef     ......?......<=.
     c58:	00 03 e3 3f 80 7f fb c3 df fe f0 f0 3c 3d ef 00     ...?........<=..
     c68:	07 e7 3c 00 78 7b c3 de 1e f0 f0 3c 3d ef 00 07     ..<.x{.....<=...
     c78:	ff be 00 78 7b c3 de 1e f0 f0 3c 3d ef 00 07 ff     ...x{.....<=....
     c88:	fe 00 78 7b c3 de 1e f0 f0 3c 3d ef 00 0f ff fe     ..x{.....<=.....
     c98:	00 7f fb ff df fe f0 f0 3f fd ef e0 0f ff ff 00     ........?.......
     ca8:	7f fb ff df fe f0 f0 3f fd ef e0 0f f9 ff 00 3e     .......?.......>
     cb8:	79 f9 cf 9e f0 f0 1f 3d e7 e0 1f f1 ff 00 00 00     y......=........
	...
     cd0:	00 1f 80 ff 00 7f ff ff ff ff ff ff ff ff ff e0     ................
     ce0:	1c 00 7f 00 7f ff ff ff fe b4 6d 88 8d 18 e0 00     ..........m.....
     cf0:	00 1f 00 7f ff ff ff fe 95 ad 7d b5 77 e0 00 00     ..........}.w...
     d00:	0f 00 7f ff ff ff fe a5 ad 9d 8d 19 e0 00 00 06     ................
     d10:	00 7f ff ff ff fe b5 ad ed b5 7e e0                 ..........~.

00000d1c <_ZZN16Adafruit_SSD13065beginEhhbbE5init1>:
     d1c:	ae d5 80 a8                                         ....

00000d20 <_ZZN16Adafruit_SSD13065beginEhhbbE5init2>:
     d20:	d3 00 40 8d                                         ..@.

00000d24 <_ZZN16Adafruit_SSD13065beginEhhbbE5init3>:
     d24:	20 00 a1 c8                                          ...

00000d28 <_ZZN16Adafruit_SSD13065beginEhhbbE5init5>:
     d28:	db 40 a4 a6 2e af                                   .@....

00000d2e <_ZZN16Adafruit_SSD130621drawFastVLineInternalEiiijE7premask>:
     d2e:	00 80 c0 e0 f0 f8 fc fe                             ........

00000d36 <_ZZN16Adafruit_SSD130621drawFastVLineInternalEiiijE8postmask>:
     d36:	00 01 03 07 0f 1f 3f 7f                             ......?.

00000d3e <_ZZN16Adafruit_SSD13067displayEvE6dlist1>:
     d3e:	22 00 ff 21 00                                      "..!.

00000d43 <digital_pin_to_timer_PGM>:
     d43:	00 00 0a 0b 02 09 0c 0d 0e 08 07 03 04 01 00 00     ................
	...
     d6f:	12 11 10 00 00 00 00 00 00 00 00 00 00 00 00 00     ................
	...

00000d89 <digital_pin_to_bit_mask_PGM>:
     d89:	01 02 10 20 20 08 08 10 20 40 10 20 40 80 02 01     ...  ... @. @...
     d99:	02 01 08 04 02 01 01 02 04 08 10 20 40 80 80 40     ........... @..@
     da9:	20 10 08 04 02 01 80 04 02 01 80 40 20 10 08 04      ..........@ ...
     db9:	02 01 08 04 02 01 01 02 04 08 10 20 40 80 01 02     ........... @...
     dc9:	04 08 10 20 40 80                                   ... @.

00000dcf <digital_pin_to_port_PGM>:
     dcf:	05 05 05 05 07 05 08 08 08 08 02 02 02 02 0a 0a     ................
     ddf:	08 08 04 04 04 04 01 01 01 01 01 01 01 01 03 03     ................
     def:	03 03 03 03 03 03 04 07 07 07 0c 0c 0c 0c 0c 0c     ................
     dff:	0c 0c 02 02 02 02 06 06 06 06 06 06 06 06 0b 0b     ................
     e0f:	0b 0b 0b 0b 0b 0b                                   ......

00000e15 <port_to_output_PGM>:
     e15:	00 00 22 00 25 00 28 00 2b 00 2e 00 31 00 34 00     ..".%.(.+...1.4.
     e25:	02 01 00 00 05 01 08 01 0b 01                       ..........

00000e2f <port_to_mode_PGM>:
     e2f:	00 00 21 00 24 00 27 00 2a 00 2d 00 30 00 33 00     ..!.$.'.*.-.0.3.
     e3f:	01 01 00 00 04 01 07 01 0a 01 00                    ...........

00000e4a <__ctors_start>:
     e4a:	17 0f       	add	r17, r23
     e4c:	33 10       	cpse	r3, r3
     e4e:	3e 33       	cpi	r19, 0x3E	; 62

00000e50 <__ctors_end>:
     e50:	3f 10       	cpse	r3, r15

00000e52 <__dtors_end>:
     e52:	11 24       	eor	r1, r1
     e54:	1f be       	out	0x3f, r1	; 63
     e56:	cf ef       	ldi	r28, 0xFF	; 255
     e58:	d1 e2       	ldi	r29, 0x21	; 33
     e5a:	de bf       	out	0x3e, r29	; 62
     e5c:	cd bf       	out	0x3d, r28	; 61
     e5e:	00 e0       	ldi	r16, 0x00	; 0
     e60:	0c bf       	out	0x3c, r16	; 60

00000e62 <__do_copy_data>:
     e62:	12 e0       	ldi	r17, 0x02	; 2
     e64:	a0 e0       	ldi	r26, 0x00	; 0
     e66:	b2 e0       	ldi	r27, 0x02	; 2
     e68:	ee e3       	ldi	r30, 0x3E	; 62
     e6a:	fe e6       	ldi	r31, 0x6E	; 110
     e6c:	00 e0       	ldi	r16, 0x00	; 0
     e6e:	0b bf       	out	0x3b, r16	; 59
     e70:	02 c0       	rjmp	.+4      	; 0xe76 <__do_copy_data+0x14>
     e72:	07 90       	elpm	r0, Z+
     e74:	0d 92       	st	X+, r0
     e76:	a0 3b       	cpi	r26, 0xB0	; 176
     e78:	b1 07       	cpc	r27, r17
     e7a:	d9 f7       	brne	.-10     	; 0xe72 <__do_copy_data+0x10>

00000e7c <__do_clear_bss>:
     e7c:	24 e0       	ldi	r18, 0x04	; 4
     e7e:	a0 eb       	ldi	r26, 0xB0	; 176
     e80:	b2 e0       	ldi	r27, 0x02	; 2
     e82:	01 c0       	rjmp	.+2      	; 0xe86 <.do_clear_bss_start>

00000e84 <.do_clear_bss_loop>:
     e84:	1d 92       	st	X+, r1

00000e86 <.do_clear_bss_start>:
     e86:	ad 3f       	cpi	r26, 0xFD	; 253
     e88:	b2 07       	cpc	r27, r18
     e8a:	e1 f7       	brne	.-8      	; 0xe84 <.do_clear_bss_loop>

00000e8c <__do_global_ctors>:
     e8c:	17 e0       	ldi	r17, 0x07	; 7
     e8e:	c8 e2       	ldi	r28, 0x28	; 40
     e90:	d7 e0       	ldi	r29, 0x07	; 7
     e92:	00 e0       	ldi	r16, 0x00	; 0
     e94:	06 c0       	rjmp	.+12     	; 0xea2 <__do_global_ctors+0x16>
     e96:	21 97       	sbiw	r28, 0x01	; 1
     e98:	01 09       	sbc	r16, r1
     e9a:	80 2f       	mov	r24, r16
     e9c:	fe 01       	movw	r30, r28
     e9e:	0e 94 da 35 	call	0x6bb4	; 0x6bb4 <__tablejump2__>
     ea2:	c5 32       	cpi	r28, 0x25	; 37
     ea4:	d1 07       	cpc	r29, r17
     ea6:	80 e0       	ldi	r24, 0x00	; 0
     ea8:	08 07       	cpc	r16, r24
     eaa:	a9 f7       	brne	.-22     	; 0xe96 <__do_global_ctors+0xa>
     eac:	0e 94 6d 33 	call	0x66da	; 0x66da <main>
     eb0:	0c 94 0e 37 	jmp	0x6e1c	; 0x6e1c <__do_global_dtors>

00000eb4 <__bad_interrupt>:
     eb4:	a5 c8       	rjmp	.-3766   	; 0x0 <__vectors>

00000eb6 <twi_init>:
  bool flag = twi_timed_out_flag;
  if (clear_flag){
    twi_timed_out_flag = false;
  }
  return(flag);
}
     eb6:	cf 93       	push	r28
     eb8:	df 93       	push	r29
     eba:	cd b7       	in	r28, 0x3d	; 61
     ebc:	de b7       	in	r29, 0x3e	; 62
     ebe:	10 92 b0 02 	sts	0x02B0, r1	; 0x8002b0 <__data_end>
     ec2:	81 e0       	ldi	r24, 0x01	; 1
     ec4:	80 93 b2 02 	sts	0x02B2, r24	; 0x8002b2 <twi_sendStop>
     ec8:	10 92 b3 02 	sts	0x02B3, r1	; 0x8002b3 <twi_inRepStart>
     ecc:	84 e1       	ldi	r24, 0x14	; 20
     ece:	61 e0       	ldi	r22, 0x01	; 1
     ed0:	0e 94 8a 35 	call	0x6b14	; 0x6b14 <digitalWrite>
     ed4:	85 e1       	ldi	r24, 0x15	; 21
     ed6:	61 e0       	ldi	r22, 0x01	; 1
     ed8:	0e 94 8a 35 	call	0x6b14	; 0x6b14 <digitalWrite>
     edc:	89 eb       	ldi	r24, 0xB9	; 185
     ede:	90 e0       	ldi	r25, 0x00	; 0
     ee0:	29 eb       	ldi	r18, 0xB9	; 185
     ee2:	30 e0       	ldi	r19, 0x00	; 0
     ee4:	f9 01       	movw	r30, r18
     ee6:	20 81       	ld	r18, Z
     ee8:	2e 7f       	andi	r18, 0xFE	; 254
     eea:	fc 01       	movw	r30, r24
     eec:	20 83       	st	Z, r18
     eee:	89 eb       	ldi	r24, 0xB9	; 185
     ef0:	90 e0       	ldi	r25, 0x00	; 0
     ef2:	29 eb       	ldi	r18, 0xB9	; 185
     ef4:	30 e0       	ldi	r19, 0x00	; 0
     ef6:	f9 01       	movw	r30, r18
     ef8:	20 81       	ld	r18, Z
     efa:	2d 7f       	andi	r18, 0xFD	; 253
     efc:	fc 01       	movw	r30, r24
     efe:	20 83       	st	Z, r18
     f00:	88 eb       	ldi	r24, 0xB8	; 184
     f02:	90 e0       	ldi	r25, 0x00	; 0
     f04:	28 e4       	ldi	r18, 0x48	; 72
     f06:	fc 01       	movw	r30, r24
     f08:	20 83       	st	Z, r18
     f0a:	8c eb       	ldi	r24, 0xBC	; 188
     f0c:	90 e0       	ldi	r25, 0x00	; 0
     f0e:	25 e4       	ldi	r18, 0x45	; 69
     f10:	fc 01       	movw	r30, r24
     f12:	20 83       	st	Z, r18
     f14:	00 00       	nop
     f16:	df 91       	pop	r29
     f18:	cf 91       	pop	r28
     f1a:	08 95       	ret

00000f1c <twi_disable>:
     f1c:	cf 93       	push	r28
     f1e:	df 93       	push	r29
     f20:	cd b7       	in	r28, 0x3d	; 61
     f22:	de b7       	in	r29, 0x3e	; 62
     f24:	8c eb       	ldi	r24, 0xBC	; 188
     f26:	90 e0       	ldi	r25, 0x00	; 0
     f28:	2c eb       	ldi	r18, 0xBC	; 188
     f2a:	30 e0       	ldi	r19, 0x00	; 0
     f2c:	f9 01       	movw	r30, r18
     f2e:	20 81       	ld	r18, Z
     f30:	2a 7b       	andi	r18, 0xBA	; 186
     f32:	fc 01       	movw	r30, r24
     f34:	20 83       	st	Z, r18
     f36:	84 e1       	ldi	r24, 0x14	; 20
     f38:	60 e0       	ldi	r22, 0x00	; 0
     f3a:	0e 94 8a 35 	call	0x6b14	; 0x6b14 <digitalWrite>
     f3e:	85 e1       	ldi	r24, 0x15	; 21
     f40:	60 e0       	ldi	r22, 0x00	; 0
     f42:	0e 94 8a 35 	call	0x6b14	; 0x6b14 <digitalWrite>
     f46:	00 00       	nop
     f48:	df 91       	pop	r29
     f4a:	cf 91       	pop	r28
     f4c:	08 95       	ret

00000f4e <twi_setFrequency>:
     f4e:	0f 93       	push	r16
     f50:	1f 93       	push	r17
     f52:	cf 93       	push	r28
     f54:	df 93       	push	r29
     f56:	00 d0       	rcall	.+0      	; 0xf58 <twi_setFrequency+0xa>
     f58:	1f 92       	push	r1
     f5a:	cd b7       	in	r28, 0x3d	; 61
     f5c:	de b7       	in	r29, 0x3e	; 62
     f5e:	69 83       	std	Y+1, r22	; 0x01
     f60:	7a 83       	std	Y+2, r23	; 0x02
     f62:	8b 83       	std	Y+3, r24	; 0x03
     f64:	9c 83       	std	Y+4, r25	; 0x04
     f66:	08 eb       	ldi	r16, 0xB8	; 184
     f68:	10 e0       	ldi	r17, 0x00	; 0
     f6a:	80 e0       	ldi	r24, 0x00	; 0
     f6c:	94 e2       	ldi	r25, 0x24	; 36
     f6e:	a4 ef       	ldi	r26, 0xF4	; 244
     f70:	b0 e0       	ldi	r27, 0x00	; 0
     f72:	29 81       	ldd	r18, Y+1	; 0x01
     f74:	3a 81       	ldd	r19, Y+2	; 0x02
     f76:	4b 81       	ldd	r20, Y+3	; 0x03
     f78:	5c 81       	ldd	r21, Y+4	; 0x04
     f7a:	bc 01       	movw	r22, r24
     f7c:	cd 01       	movw	r24, r26
     f7e:	0e 94 b8 35 	call	0x6b70	; 0x6b70 <__udivmodsi4>
     f82:	da 01       	movw	r26, r20
     f84:	c9 01       	movw	r24, r18
     f86:	40 97       	sbiw	r24, 0x10	; 16
     f88:	a1 09       	sbc	r26, r1
     f8a:	b1 09       	sbc	r27, r1
     f8c:	b6 95       	lsr	r27
     f8e:	a7 95       	ror	r26
     f90:	97 95       	ror	r25
     f92:	87 95       	ror	r24
     f94:	f8 01       	movw	r30, r16
     f96:	80 83       	st	Z, r24
     f98:	00 00       	nop
     f9a:	0f 90       	pop	r0
     f9c:	0f 90       	pop	r0
     f9e:	0f 90       	pop	r0
     fa0:	0f 90       	pop	r0
     fa2:	df 91       	pop	r29
     fa4:	cf 91       	pop	r28
     fa6:	1f 91       	pop	r17
     fa8:	0f 91       	pop	r16
     faa:	08 95       	ret

00000fac <twi_writeTo>:
     fac:	0f 93       	push	r16
     fae:	cf 93       	push	r28
     fb0:	df 93       	push	r29
     fb2:	cd b7       	in	r28, 0x3d	; 61
     fb4:	de b7       	in	r29, 0x3e	; 62
     fb6:	2b 97       	sbiw	r28, 0x0b	; 11
     fb8:	0f b6       	in	r0, 0x3f	; 63
     fba:	f8 94       	cli
     fbc:	de bf       	out	0x3e, r29	; 62
     fbe:	0f be       	out	0x3f, r0	; 63
     fc0:	cd bf       	out	0x3d, r28	; 61
     fc2:	8e 83       	std	Y+6, r24	; 0x06
     fc4:	78 87       	std	Y+8, r23	; 0x08
     fc6:	6f 83       	std	Y+7, r22	; 0x07
     fc8:	49 87       	std	Y+9, r20	; 0x09
     fca:	2a 87       	std	Y+10, r18	; 0x0a
     fcc:	0b 87       	std	Y+11, r16	; 0x0b
     fce:	89 85       	ldd	r24, Y+9	; 0x09
     fd0:	81 32       	cpi	r24, 0x21	; 33
     fd2:	10 f0       	brcs	.+4      	; 0xfd8 <twi_writeTo+0x2c>
     fd4:	81 e0       	ldi	r24, 0x01	; 1
     fd6:	0c c1       	rjmp	.+536    	; 0x11f0 <__EEPROM_REGION_LENGTH__+0x1f0>
     fd8:	0e 94 39 34 	call	0x6872	; 0x6872 <micros>
     fdc:	dc 01       	movw	r26, r24
     fde:	cb 01       	movw	r24, r22
     fe0:	8a 83       	std	Y+2, r24	; 0x02
     fe2:	9b 83       	std	Y+3, r25	; 0x03
     fe4:	ac 83       	std	Y+4, r26	; 0x04
     fe6:	bd 83       	std	Y+5, r27	; 0x05
     fe8:	2a c0       	rjmp	.+84     	; 0x103e <__EEPROM_REGION_LENGTH__+0x3e>
     fea:	80 91 b4 02 	lds	r24, 0x02B4	; 0x8002b4 <twi_timeout_us>
     fee:	90 91 b5 02 	lds	r25, 0x02B5	; 0x8002b5 <twi_timeout_us+0x1>
     ff2:	a0 91 b6 02 	lds	r26, 0x02B6	; 0x8002b6 <twi_timeout_us+0x2>
     ff6:	b0 91 b7 02 	lds	r27, 0x02B7	; 0x8002b7 <twi_timeout_us+0x3>
     ffa:	89 2b       	or	r24, r25
     ffc:	8a 2b       	or	r24, r26
     ffe:	8b 2b       	or	r24, r27
    1000:	f1 f0       	breq	.+60     	; 0x103e <__EEPROM_REGION_LENGTH__+0x3e>
    1002:	0e 94 39 34 	call	0x6872	; 0x6872 <micros>
    1006:	9b 01       	movw	r18, r22
    1008:	ac 01       	movw	r20, r24
    100a:	8a 81       	ldd	r24, Y+2	; 0x02
    100c:	9b 81       	ldd	r25, Y+3	; 0x03
    100e:	ac 81       	ldd	r26, Y+4	; 0x04
    1010:	bd 81       	ldd	r27, Y+5	; 0x05
    1012:	28 1b       	sub	r18, r24
    1014:	39 0b       	sbc	r19, r25
    1016:	4a 0b       	sbc	r20, r26
    1018:	5b 0b       	sbc	r21, r27
    101a:	80 91 b4 02 	lds	r24, 0x02B4	; 0x8002b4 <twi_timeout_us>
    101e:	90 91 b5 02 	lds	r25, 0x02B5	; 0x8002b5 <twi_timeout_us+0x1>
    1022:	a0 91 b6 02 	lds	r26, 0x02B6	; 0x8002b6 <twi_timeout_us+0x2>
    1026:	b0 91 b7 02 	lds	r27, 0x02B7	; 0x8002b7 <twi_timeout_us+0x3>
    102a:	82 17       	cp	r24, r18
    102c:	93 07       	cpc	r25, r19
    102e:	a4 07       	cpc	r26, r20
    1030:	b5 07       	cpc	r27, r21
    1032:	28 f4       	brcc	.+10     	; 0x103e <__EEPROM_REGION_LENGTH__+0x3e>
    1034:	80 91 b9 02 	lds	r24, 0x02B9	; 0x8002b9 <twi_do_reset_on_timeout>
    1038:	de d2       	rcall	.+1468   	; 0x15f6 <twi_handleTimeout>
    103a:	85 e0       	ldi	r24, 0x05	; 5
    103c:	d9 c0       	rjmp	.+434    	; 0x11f0 <__EEPROM_REGION_LENGTH__+0x1f0>
    103e:	80 91 b0 02 	lds	r24, 0x02B0	; 0x8002b0 <__data_end>
    1042:	88 23       	and	r24, r24
    1044:	91 f6       	brne	.-92     	; 0xfea <twi_writeTo+0x3e>
    1046:	82 e0       	ldi	r24, 0x02	; 2
    1048:	80 93 b0 02 	sts	0x02B0, r24	; 0x8002b0 <__data_end>
    104c:	8b 85       	ldd	r24, Y+11	; 0x0b
    104e:	80 93 b2 02 	sts	0x02B2, r24	; 0x8002b2 <twi_sendStop>
    1052:	8f ef       	ldi	r24, 0xFF	; 255
    1054:	80 93 23 03 	sts	0x0323, r24	; 0x800323 <twi_error>
    1058:	10 92 de 02 	sts	0x02DE, r1	; 0x8002de <twi_masterBufferIndex>
    105c:	89 85       	ldd	r24, Y+9	; 0x09
    105e:	80 93 df 02 	sts	0x02DF, r24	; 0x8002df <twi_masterBufferLength>
    1062:	19 82       	std	Y+1, r1	; 0x01
    1064:	13 c0       	rjmp	.+38     	; 0x108c <__EEPROM_REGION_LENGTH__+0x8c>
    1066:	89 81       	ldd	r24, Y+1	; 0x01
    1068:	88 2f       	mov	r24, r24
    106a:	90 e0       	ldi	r25, 0x00	; 0
    106c:	29 81       	ldd	r18, Y+1	; 0x01
    106e:	22 2f       	mov	r18, r18
    1070:	30 e0       	ldi	r19, 0x00	; 0
    1072:	4f 81       	ldd	r20, Y+7	; 0x07
    1074:	58 85       	ldd	r21, Y+8	; 0x08
    1076:	24 0f       	add	r18, r20
    1078:	35 1f       	adc	r19, r21
    107a:	f9 01       	movw	r30, r18
    107c:	20 81       	ld	r18, Z
    107e:	82 54       	subi	r24, 0x42	; 66
    1080:	9d 4f       	sbci	r25, 0xFD	; 253
    1082:	fc 01       	movw	r30, r24
    1084:	20 83       	st	Z, r18
    1086:	89 81       	ldd	r24, Y+1	; 0x01
    1088:	8f 5f       	subi	r24, 0xFF	; 255
    108a:	89 83       	std	Y+1, r24	; 0x01
    108c:	99 81       	ldd	r25, Y+1	; 0x01
    108e:	89 85       	ldd	r24, Y+9	; 0x09
    1090:	98 17       	cp	r25, r24
    1092:	48 f3       	brcs	.-46     	; 0x1066 <__EEPROM_REGION_LENGTH__+0x66>
    1094:	10 92 b1 02 	sts	0x02B1, r1	; 0x8002b1 <twi_slarw>
    1098:	8e 81       	ldd	r24, Y+6	; 0x06
    109a:	88 2f       	mov	r24, r24
    109c:	90 e0       	ldi	r25, 0x00	; 0
    109e:	88 0f       	add	r24, r24
    10a0:	99 1f       	adc	r25, r25
    10a2:	98 2f       	mov	r25, r24
    10a4:	80 91 b1 02 	lds	r24, 0x02B1	; 0x8002b1 <twi_slarw>
    10a8:	89 2b       	or	r24, r25
    10aa:	80 93 b1 02 	sts	0x02B1, r24	; 0x8002b1 <twi_slarw>
    10ae:	80 91 b3 02 	lds	r24, 0x02B3	; 0x8002b3 <twi_inRepStart>
    10b2:	81 30       	cpi	r24, 0x01	; 1
    10b4:	09 f0       	breq	.+2      	; 0x10b8 <__EEPROM_REGION_LENGTH__+0xb8>
    10b6:	4a c0       	rjmp	.+148    	; 0x114c <__EEPROM_REGION_LENGTH__+0x14c>
    10b8:	10 92 b3 02 	sts	0x02B3, r1	; 0x8002b3 <twi_inRepStart>
    10bc:	0e 94 39 34 	call	0x6872	; 0x6872 <micros>
    10c0:	dc 01       	movw	r26, r24
    10c2:	cb 01       	movw	r24, r22
    10c4:	8a 83       	std	Y+2, r24	; 0x02
    10c6:	9b 83       	std	Y+3, r25	; 0x03
    10c8:	ac 83       	std	Y+4, r26	; 0x04
    10ca:	bd 83       	std	Y+5, r27	; 0x05
    10cc:	8b eb       	ldi	r24, 0xBB	; 187
    10ce:	90 e0       	ldi	r25, 0x00	; 0
    10d0:	20 91 b1 02 	lds	r18, 0x02B1	; 0x8002b1 <twi_slarw>
    10d4:	fc 01       	movw	r30, r24
    10d6:	20 83       	st	Z, r18
    10d8:	80 91 b4 02 	lds	r24, 0x02B4	; 0x8002b4 <twi_timeout_us>
    10dc:	90 91 b5 02 	lds	r25, 0x02B5	; 0x8002b5 <twi_timeout_us+0x1>
    10e0:	a0 91 b6 02 	lds	r26, 0x02B6	; 0x8002b6 <twi_timeout_us+0x2>
    10e4:	b0 91 b7 02 	lds	r27, 0x02B7	; 0x8002b7 <twi_timeout_us+0x3>
    10e8:	89 2b       	or	r24, r25
    10ea:	8a 2b       	or	r24, r26
    10ec:	8b 2b       	or	r24, r27
    10ee:	f1 f0       	breq	.+60     	; 0x112c <__EEPROM_REGION_LENGTH__+0x12c>
    10f0:	0e 94 39 34 	call	0x6872	; 0x6872 <micros>
    10f4:	9b 01       	movw	r18, r22
    10f6:	ac 01       	movw	r20, r24
    10f8:	8a 81       	ldd	r24, Y+2	; 0x02
    10fa:	9b 81       	ldd	r25, Y+3	; 0x03
    10fc:	ac 81       	ldd	r26, Y+4	; 0x04
    10fe:	bd 81       	ldd	r27, Y+5	; 0x05
    1100:	28 1b       	sub	r18, r24
    1102:	39 0b       	sbc	r19, r25
    1104:	4a 0b       	sbc	r20, r26
    1106:	5b 0b       	sbc	r21, r27
    1108:	80 91 b4 02 	lds	r24, 0x02B4	; 0x8002b4 <twi_timeout_us>
    110c:	90 91 b5 02 	lds	r25, 0x02B5	; 0x8002b5 <twi_timeout_us+0x1>
    1110:	a0 91 b6 02 	lds	r26, 0x02B6	; 0x8002b6 <twi_timeout_us+0x2>
    1114:	b0 91 b7 02 	lds	r27, 0x02B7	; 0x8002b7 <twi_timeout_us+0x3>
    1118:	82 17       	cp	r24, r18
    111a:	93 07       	cpc	r25, r19
    111c:	a4 07       	cpc	r26, r20
    111e:	b5 07       	cpc	r27, r21
    1120:	28 f4       	brcc	.+10     	; 0x112c <__EEPROM_REGION_LENGTH__+0x12c>
    1122:	80 91 b9 02 	lds	r24, 0x02B9	; 0x8002b9 <twi_do_reset_on_timeout>
    1126:	67 d2       	rcall	.+1230   	; 0x15f6 <twi_handleTimeout>
    1128:	85 e0       	ldi	r24, 0x05	; 5
    112a:	62 c0       	rjmp	.+196    	; 0x11f0 <__EEPROM_REGION_LENGTH__+0x1f0>
    112c:	8c eb       	ldi	r24, 0xBC	; 188
    112e:	90 e0       	ldi	r25, 0x00	; 0
    1130:	fc 01       	movw	r30, r24
    1132:	80 81       	ld	r24, Z
    1134:	88 2f       	mov	r24, r24
    1136:	90 e0       	ldi	r25, 0x00	; 0
    1138:	88 70       	andi	r24, 0x08	; 8
    113a:	99 27       	eor	r25, r25
    113c:	89 2b       	or	r24, r25
    113e:	31 f6       	brne	.-116    	; 0x10cc <__EEPROM_REGION_LENGTH__+0xcc>
    1140:	8c eb       	ldi	r24, 0xBC	; 188
    1142:	90 e0       	ldi	r25, 0x00	; 0
    1144:	25 ec       	ldi	r18, 0xC5	; 197
    1146:	fc 01       	movw	r30, r24
    1148:	20 83       	st	Z, r18
    114a:	05 c0       	rjmp	.+10     	; 0x1156 <__EEPROM_REGION_LENGTH__+0x156>
    114c:	8c eb       	ldi	r24, 0xBC	; 188
    114e:	90 e0       	ldi	r25, 0x00	; 0
    1150:	25 ee       	ldi	r18, 0xE5	; 229
    1152:	fc 01       	movw	r30, r24
    1154:	20 83       	st	Z, r18
    1156:	0e 94 39 34 	call	0x6872	; 0x6872 <micros>
    115a:	dc 01       	movw	r26, r24
    115c:	cb 01       	movw	r24, r22
    115e:	8a 83       	std	Y+2, r24	; 0x02
    1160:	9b 83       	std	Y+3, r25	; 0x03
    1162:	ac 83       	std	Y+4, r26	; 0x04
    1164:	bd 83       	std	Y+5, r27	; 0x05
    1166:	2a c0       	rjmp	.+84     	; 0x11bc <__EEPROM_REGION_LENGTH__+0x1bc>
    1168:	80 91 b4 02 	lds	r24, 0x02B4	; 0x8002b4 <twi_timeout_us>
    116c:	90 91 b5 02 	lds	r25, 0x02B5	; 0x8002b5 <twi_timeout_us+0x1>
    1170:	a0 91 b6 02 	lds	r26, 0x02B6	; 0x8002b6 <twi_timeout_us+0x2>
    1174:	b0 91 b7 02 	lds	r27, 0x02B7	; 0x8002b7 <twi_timeout_us+0x3>
    1178:	89 2b       	or	r24, r25
    117a:	8a 2b       	or	r24, r26
    117c:	8b 2b       	or	r24, r27
    117e:	f1 f0       	breq	.+60     	; 0x11bc <__EEPROM_REGION_LENGTH__+0x1bc>
    1180:	0e 94 39 34 	call	0x6872	; 0x6872 <micros>
    1184:	9b 01       	movw	r18, r22
    1186:	ac 01       	movw	r20, r24
    1188:	8a 81       	ldd	r24, Y+2	; 0x02
    118a:	9b 81       	ldd	r25, Y+3	; 0x03
    118c:	ac 81       	ldd	r26, Y+4	; 0x04
    118e:	bd 81       	ldd	r27, Y+5	; 0x05
    1190:	28 1b       	sub	r18, r24
    1192:	39 0b       	sbc	r19, r25
    1194:	4a 0b       	sbc	r20, r26
    1196:	5b 0b       	sbc	r21, r27
    1198:	80 91 b4 02 	lds	r24, 0x02B4	; 0x8002b4 <twi_timeout_us>
    119c:	90 91 b5 02 	lds	r25, 0x02B5	; 0x8002b5 <twi_timeout_us+0x1>
    11a0:	a0 91 b6 02 	lds	r26, 0x02B6	; 0x8002b6 <twi_timeout_us+0x2>
    11a4:	b0 91 b7 02 	lds	r27, 0x02B7	; 0x8002b7 <twi_timeout_us+0x3>
    11a8:	82 17       	cp	r24, r18
    11aa:	93 07       	cpc	r25, r19
    11ac:	a4 07       	cpc	r26, r20
    11ae:	b5 07       	cpc	r27, r21
    11b0:	28 f4       	brcc	.+10     	; 0x11bc <__EEPROM_REGION_LENGTH__+0x1bc>
    11b2:	80 91 b9 02 	lds	r24, 0x02B9	; 0x8002b9 <twi_do_reset_on_timeout>
    11b6:	1f d2       	rcall	.+1086   	; 0x15f6 <twi_handleTimeout>
    11b8:	85 e0       	ldi	r24, 0x05	; 5
    11ba:	1a c0       	rjmp	.+52     	; 0x11f0 <__EEPROM_REGION_LENGTH__+0x1f0>
    11bc:	8a 85       	ldd	r24, Y+10	; 0x0a
    11be:	88 23       	and	r24, r24
    11c0:	21 f0       	breq	.+8      	; 0x11ca <__EEPROM_REGION_LENGTH__+0x1ca>
    11c2:	80 91 b0 02 	lds	r24, 0x02B0	; 0x8002b0 <__data_end>
    11c6:	82 30       	cpi	r24, 0x02	; 2
    11c8:	79 f2       	breq	.-98     	; 0x1168 <__EEPROM_REGION_LENGTH__+0x168>
    11ca:	80 91 23 03 	lds	r24, 0x0323	; 0x800323 <twi_error>
    11ce:	8f 3f       	cpi	r24, 0xFF	; 255
    11d0:	11 f4       	brne	.+4      	; 0x11d6 <__EEPROM_REGION_LENGTH__+0x1d6>
    11d2:	80 e0       	ldi	r24, 0x00	; 0
    11d4:	0d c0       	rjmp	.+26     	; 0x11f0 <__EEPROM_REGION_LENGTH__+0x1f0>
    11d6:	80 91 23 03 	lds	r24, 0x0323	; 0x800323 <twi_error>
    11da:	80 32       	cpi	r24, 0x20	; 32
    11dc:	11 f4       	brne	.+4      	; 0x11e2 <__EEPROM_REGION_LENGTH__+0x1e2>
    11de:	82 e0       	ldi	r24, 0x02	; 2
    11e0:	07 c0       	rjmp	.+14     	; 0x11f0 <__EEPROM_REGION_LENGTH__+0x1f0>
    11e2:	80 91 23 03 	lds	r24, 0x0323	; 0x800323 <twi_error>
    11e6:	80 33       	cpi	r24, 0x30	; 48
    11e8:	11 f4       	brne	.+4      	; 0x11ee <__EEPROM_REGION_LENGTH__+0x1ee>
    11ea:	83 e0       	ldi	r24, 0x03	; 3
    11ec:	01 c0       	rjmp	.+2      	; 0x11f0 <__EEPROM_REGION_LENGTH__+0x1f0>
    11ee:	84 e0       	ldi	r24, 0x04	; 4
    11f0:	2b 96       	adiw	r28, 0x0b	; 11
    11f2:	0f b6       	in	r0, 0x3f	; 63
    11f4:	f8 94       	cli
    11f6:	de bf       	out	0x3e, r29	; 62
    11f8:	0f be       	out	0x3f, r0	; 63
    11fa:	cd bf       	out	0x3d, r28	; 61
    11fc:	df 91       	pop	r29
    11fe:	cf 91       	pop	r28
    1200:	0f 91       	pop	r16
    1202:	08 95       	ret

00001204 <twi_transmit>:
    1204:	cf 93       	push	r28
    1206:	df 93       	push	r29
    1208:	00 d0       	rcall	.+0      	; 0x120a <twi_transmit+0x6>
    120a:	1f 92       	push	r1
    120c:	cd b7       	in	r28, 0x3d	; 61
    120e:	de b7       	in	r29, 0x3e	; 62
    1210:	9b 83       	std	Y+3, r25	; 0x03
    1212:	8a 83       	std	Y+2, r24	; 0x02
    1214:	6c 83       	std	Y+4, r22	; 0x04
    1216:	80 91 01 03 	lds	r24, 0x0301	; 0x800301 <twi_txBufferLength>
    121a:	28 2f       	mov	r18, r24
    121c:	30 e0       	ldi	r19, 0x00	; 0
    121e:	8c 81       	ldd	r24, Y+4	; 0x04
    1220:	88 2f       	mov	r24, r24
    1222:	90 e0       	ldi	r25, 0x00	; 0
    1224:	82 0f       	add	r24, r18
    1226:	93 1f       	adc	r25, r19
    1228:	81 97       	sbiw	r24, 0x21	; 33
    122a:	14 f0       	brlt	.+4      	; 0x1230 <twi_transmit+0x2c>
    122c:	81 e0       	ldi	r24, 0x01	; 1
    122e:	2c c0       	rjmp	.+88     	; 0x1288 <twi_transmit+0x84>
    1230:	80 91 b0 02 	lds	r24, 0x02B0	; 0x8002b0 <__data_end>
    1234:	84 30       	cpi	r24, 0x04	; 4
    1236:	11 f0       	breq	.+4      	; 0x123c <twi_transmit+0x38>
    1238:	82 e0       	ldi	r24, 0x02	; 2
    123a:	26 c0       	rjmp	.+76     	; 0x1288 <twi_transmit+0x84>
    123c:	19 82       	std	Y+1, r1	; 0x01
    123e:	19 c0       	rjmp	.+50     	; 0x1272 <twi_transmit+0x6e>
    1240:	80 91 01 03 	lds	r24, 0x0301	; 0x800301 <twi_txBufferLength>
    1244:	28 2f       	mov	r18, r24
    1246:	30 e0       	ldi	r19, 0x00	; 0
    1248:	89 81       	ldd	r24, Y+1	; 0x01
    124a:	88 2f       	mov	r24, r24
    124c:	90 e0       	ldi	r25, 0x00	; 0
    124e:	82 0f       	add	r24, r18
    1250:	93 1f       	adc	r25, r19
    1252:	29 81       	ldd	r18, Y+1	; 0x01
    1254:	22 2f       	mov	r18, r18
    1256:	30 e0       	ldi	r19, 0x00	; 0
    1258:	4a 81       	ldd	r20, Y+2	; 0x02
    125a:	5b 81       	ldd	r21, Y+3	; 0x03
    125c:	24 0f       	add	r18, r20
    125e:	35 1f       	adc	r19, r21
    1260:	f9 01       	movw	r30, r18
    1262:	20 81       	ld	r18, Z
    1264:	80 52       	subi	r24, 0x20	; 32
    1266:	9d 4f       	sbci	r25, 0xFD	; 253
    1268:	fc 01       	movw	r30, r24
    126a:	20 83       	st	Z, r18
    126c:	89 81       	ldd	r24, Y+1	; 0x01
    126e:	8f 5f       	subi	r24, 0xFF	; 255
    1270:	89 83       	std	Y+1, r24	; 0x01
    1272:	99 81       	ldd	r25, Y+1	; 0x01
    1274:	8c 81       	ldd	r24, Y+4	; 0x04
    1276:	98 17       	cp	r25, r24
    1278:	18 f3       	brcs	.-58     	; 0x1240 <twi_transmit+0x3c>
    127a:	90 91 01 03 	lds	r25, 0x0301	; 0x800301 <twi_txBufferLength>
    127e:	8c 81       	ldd	r24, Y+4	; 0x04
    1280:	89 0f       	add	r24, r25
    1282:	80 93 01 03 	sts	0x0301, r24	; 0x800301 <twi_txBufferLength>
    1286:	80 e0       	ldi	r24, 0x00	; 0
    1288:	0f 90       	pop	r0
    128a:	0f 90       	pop	r0
    128c:	0f 90       	pop	r0
    128e:	0f 90       	pop	r0
    1290:	df 91       	pop	r29
    1292:	cf 91       	pop	r28
    1294:	08 95       	ret

00001296 <twi_attachSlaveRxEvent>:
    1296:	cf 93       	push	r28
    1298:	df 93       	push	r29
    129a:	1f 92       	push	r1
    129c:	1f 92       	push	r1
    129e:	cd b7       	in	r28, 0x3d	; 61
    12a0:	de b7       	in	r29, 0x3e	; 62
    12a2:	9a 83       	std	Y+2, r25	; 0x02
    12a4:	89 83       	std	Y+1, r24	; 0x01
    12a6:	89 81       	ldd	r24, Y+1	; 0x01
    12a8:	9a 81       	ldd	r25, Y+2	; 0x02
    12aa:	90 93 bd 02 	sts	0x02BD, r25	; 0x8002bd <twi_onSlaveReceive+0x1>
    12ae:	80 93 bc 02 	sts	0x02BC, r24	; 0x8002bc <twi_onSlaveReceive>
    12b2:	00 00       	nop
    12b4:	0f 90       	pop	r0
    12b6:	0f 90       	pop	r0
    12b8:	df 91       	pop	r29
    12ba:	cf 91       	pop	r28
    12bc:	08 95       	ret

000012be <twi_attachSlaveTxEvent>:
    12be:	cf 93       	push	r28
    12c0:	df 93       	push	r29
    12c2:	1f 92       	push	r1
    12c4:	1f 92       	push	r1
    12c6:	cd b7       	in	r28, 0x3d	; 61
    12c8:	de b7       	in	r29, 0x3e	; 62
    12ca:	9a 83       	std	Y+2, r25	; 0x02
    12cc:	89 83       	std	Y+1, r24	; 0x01
    12ce:	89 81       	ldd	r24, Y+1	; 0x01
    12d0:	9a 81       	ldd	r25, Y+2	; 0x02
    12d2:	90 93 bb 02 	sts	0x02BB, r25	; 0x8002bb <twi_onSlaveTransmit+0x1>
    12d6:	80 93 ba 02 	sts	0x02BA, r24	; 0x8002ba <twi_onSlaveTransmit>
    12da:	00 00       	nop
    12dc:	0f 90       	pop	r0
    12de:	0f 90       	pop	r0
    12e0:	df 91       	pop	r29
    12e2:	cf 91       	pop	r28
    12e4:	08 95       	ret

000012e6 <twi_reply>:
    12e6:	cf 93       	push	r28
    12e8:	df 93       	push	r29
    12ea:	1f 92       	push	r1
    12ec:	cd b7       	in	r28, 0x3d	; 61
    12ee:	de b7       	in	r29, 0x3e	; 62
    12f0:	89 83       	std	Y+1, r24	; 0x01
    12f2:	89 81       	ldd	r24, Y+1	; 0x01
    12f4:	88 23       	and	r24, r24
    12f6:	31 f0       	breq	.+12     	; 0x1304 <twi_reply+0x1e>
    12f8:	8c eb       	ldi	r24, 0xBC	; 188
    12fa:	90 e0       	ldi	r25, 0x00	; 0
    12fc:	25 ec       	ldi	r18, 0xC5	; 197
    12fe:	fc 01       	movw	r30, r24
    1300:	20 83       	st	Z, r18
    1302:	05 c0       	rjmp	.+10     	; 0x130e <twi_reply+0x28>
    1304:	8c eb       	ldi	r24, 0xBC	; 188
    1306:	90 e0       	ldi	r25, 0x00	; 0
    1308:	25 e8       	ldi	r18, 0x85	; 133
    130a:	fc 01       	movw	r30, r24
    130c:	20 83       	st	Z, r18
    130e:	00 00       	nop
    1310:	0f 90       	pop	r0
    1312:	df 91       	pop	r29
    1314:	cf 91       	pop	r28
    1316:	08 95       	ret

00001318 <twi_stop>:
    1318:	cf 93       	push	r28
    131a:	df 93       	push	r29
    131c:	cd b7       	in	r28, 0x3d	; 61
    131e:	de b7       	in	r29, 0x3e	; 62
    1320:	a5 97       	sbiw	r28, 0x25	; 37
    1322:	0f b6       	in	r0, 0x3f	; 63
    1324:	f8 94       	cli
    1326:	de bf       	out	0x3e, r29	; 62
    1328:	0f be       	out	0x3f, r0	; 63
    132a:	cd bf       	out	0x3d, r28	; 61
    132c:	8c eb       	ldi	r24, 0xBC	; 188
    132e:	90 e0       	ldi	r25, 0x00	; 0
    1330:	25 ed       	ldi	r18, 0xD5	; 213
    1332:	fc 01       	movw	r30, r24
    1334:	20 83       	st	Z, r18
    1336:	88 e0       	ldi	r24, 0x08	; 8
    1338:	8d 83       	std	Y+5, r24	; 0x05
    133a:	8d 81       	ldd	r24, Y+5	; 0x05
    133c:	28 2f       	mov	r18, r24
    133e:	30 e0       	ldi	r19, 0x00	; 0
    1340:	40 e0       	ldi	r20, 0x00	; 0
    1342:	50 e0       	ldi	r21, 0x00	; 0
    1344:	80 91 b4 02 	lds	r24, 0x02B4	; 0x8002b4 <twi_timeout_us>
    1348:	90 91 b5 02 	lds	r25, 0x02B5	; 0x8002b5 <twi_timeout_us+0x1>
    134c:	a0 91 b6 02 	lds	r26, 0x02B6	; 0x8002b6 <twi_timeout_us+0x2>
    1350:	b0 91 b7 02 	lds	r27, 0x02B7	; 0x8002b7 <twi_timeout_us+0x3>
    1354:	82 0f       	add	r24, r18
    1356:	93 1f       	adc	r25, r19
    1358:	a4 1f       	adc	r26, r20
    135a:	b5 1f       	adc	r27, r21
    135c:	01 97       	sbiw	r24, 0x01	; 1
    135e:	a1 09       	sbc	r26, r1
    1360:	b1 09       	sbc	r27, r1
    1362:	2d 81       	ldd	r18, Y+5	; 0x05
    1364:	22 2f       	mov	r18, r18
    1366:	30 e0       	ldi	r19, 0x00	; 0
    1368:	40 e0       	ldi	r20, 0x00	; 0
    136a:	50 e0       	ldi	r21, 0x00	; 0
    136c:	bc 01       	movw	r22, r24
    136e:	cd 01       	movw	r24, r26
    1370:	0e 94 b8 35 	call	0x6b70	; 0x6b70 <__udivmodsi4>
    1374:	da 01       	movw	r26, r20
    1376:	c9 01       	movw	r24, r18
    1378:	89 83       	std	Y+1, r24	; 0x01
    137a:	9a 83       	std	Y+2, r25	; 0x02
    137c:	ab 83       	std	Y+3, r26	; 0x03
    137e:	bc 83       	std	Y+4, r27	; 0x04
    1380:	15 c1       	rjmp	.+554    	; 0x15ac <twi_stop+0x294>
    1382:	80 91 b4 02 	lds	r24, 0x02B4	; 0x8002b4 <twi_timeout_us>
    1386:	90 91 b5 02 	lds	r25, 0x02B5	; 0x8002b5 <twi_timeout_us+0x1>
    138a:	a0 91 b6 02 	lds	r26, 0x02B6	; 0x8002b6 <twi_timeout_us+0x2>
    138e:	b0 91 b7 02 	lds	r27, 0x02B7	; 0x8002b7 <twi_timeout_us+0x3>
    1392:	89 2b       	or	r24, r25
    1394:	8a 2b       	or	r24, r26
    1396:	8b 2b       	or	r24, r27
    1398:	09 f4       	brne	.+2      	; 0x139c <twi_stop+0x84>
    139a:	08 c1       	rjmp	.+528    	; 0x15ac <twi_stop+0x294>
    139c:	89 81       	ldd	r24, Y+1	; 0x01
    139e:	9a 81       	ldd	r25, Y+2	; 0x02
    13a0:	ab 81       	ldd	r26, Y+3	; 0x03
    13a2:	bc 81       	ldd	r27, Y+4	; 0x04
    13a4:	89 2b       	or	r24, r25
    13a6:	8a 2b       	or	r24, r26
    13a8:	8b 2b       	or	r24, r27
    13aa:	09 f4       	brne	.+2      	; 0x13ae <twi_stop+0x96>
    13ac:	fb c0       	rjmp	.+502    	; 0x15a4 <twi_stop+0x28c>
    13ae:	80 e0       	ldi	r24, 0x00	; 0
    13b0:	90 e0       	ldi	r25, 0x00	; 0
    13b2:	a0 e2       	ldi	r26, 0x20	; 32
    13b4:	b1 e4       	ldi	r27, 0x41	; 65
    13b6:	8e 83       	std	Y+6, r24	; 0x06
    13b8:	9f 83       	std	Y+7, r25	; 0x07
    13ba:	a8 87       	std	Y+8, r26	; 0x08
    13bc:	b9 87       	std	Y+9, r27	; 0x09
    13be:	2b ea       	ldi	r18, 0xAB	; 171
    13c0:	3a ea       	ldi	r19, 0xAA	; 170
    13c2:	4a ea       	ldi	r20, 0xAA	; 170
    13c4:	50 e4       	ldi	r21, 0x40	; 64
    13c6:	6e 81       	ldd	r22, Y+6	; 0x06
    13c8:	7f 81       	ldd	r23, Y+7	; 0x07
    13ca:	88 85       	ldd	r24, Y+8	; 0x08
    13cc:	99 85       	ldd	r25, Y+9	; 0x09
    13ce:	0e 94 07 31 	call	0x620e	; 0x620e <__mulsf3>
    13d2:	dc 01       	movw	r26, r24
    13d4:	cb 01       	movw	r24, r22
    13d6:	8a 87       	std	Y+10, r24	; 0x0a
    13d8:	9b 87       	std	Y+11, r25	; 0x0b
    13da:	ac 87       	std	Y+12, r26	; 0x0c
    13dc:	bd 87       	std	Y+13, r27	; 0x0d
    13de:	20 e0       	ldi	r18, 0x00	; 0
    13e0:	30 e0       	ldi	r19, 0x00	; 0
    13e2:	40 e8       	ldi	r20, 0x80	; 128
    13e4:	50 e4       	ldi	r21, 0x40	; 64
    13e6:	6e 81       	ldd	r22, Y+6	; 0x06
    13e8:	7f 81       	ldd	r23, Y+7	; 0x07
    13ea:	88 85       	ldd	r24, Y+8	; 0x08
    13ec:	99 85       	ldd	r25, Y+9	; 0x09
    13ee:	0e 94 07 31 	call	0x620e	; 0x620e <__mulsf3>
    13f2:	dc 01       	movw	r26, r24
    13f4:	cb 01       	movw	r24, r22
    13f6:	8e 87       	std	Y+14, r24	; 0x0e
    13f8:	9f 87       	std	Y+15, r25	; 0x0f
    13fa:	a8 8b       	std	Y+16, r26	; 0x10
    13fc:	b9 8b       	std	Y+17, r27	; 0x11
    13fe:	20 e0       	ldi	r18, 0x00	; 0
    1400:	30 e0       	ldi	r19, 0x00	; 0
    1402:	40 e8       	ldi	r20, 0x80	; 128
    1404:	5f e3       	ldi	r21, 0x3F	; 63
    1406:	6a 85       	ldd	r22, Y+10	; 0x0a
    1408:	7b 85       	ldd	r23, Y+11	; 0x0b
    140a:	8c 85       	ldd	r24, Y+12	; 0x0c
    140c:	9d 85       	ldd	r25, Y+13	; 0x0d
    140e:	0e 94 f6 2f 	call	0x5fec	; 0x5fec <__cmpsf2>
    1412:	88 23       	and	r24, r24
    1414:	1c f4       	brge	.+6      	; 0x141c <twi_stop+0x104>
    1416:	81 e0       	ldi	r24, 0x01	; 1
    1418:	8a 8b       	std	Y+18, r24	; 0x12
    141a:	b2 c0       	rjmp	.+356    	; 0x1580 <twi_stop+0x268>
    141c:	20 e0       	ldi	r18, 0x00	; 0
    141e:	3f ef       	ldi	r19, 0xFF	; 255
    1420:	4f e7       	ldi	r20, 0x7F	; 127
    1422:	57 e4       	ldi	r21, 0x47	; 71
    1424:	6e 85       	ldd	r22, Y+14	; 0x0e
    1426:	7f 85       	ldd	r23, Y+15	; 0x0f
    1428:	88 89       	ldd	r24, Y+16	; 0x10
    142a:	99 89       	ldd	r25, Y+17	; 0x11
    142c:	0e 94 03 31 	call	0x6206	; 0x6206 <__gesf2>
    1430:	18 16       	cp	r1, r24
    1432:	0c f0       	brlt	.+2      	; 0x1436 <twi_stop+0x11e>
    1434:	7b c0       	rjmp	.+246    	; 0x152c <twi_stop+0x214>
    1436:	20 e0       	ldi	r18, 0x00	; 0
    1438:	30 e0       	ldi	r19, 0x00	; 0
    143a:	4a e7       	ldi	r20, 0x7A	; 122
    143c:	54 e4       	ldi	r21, 0x44	; 68
    143e:	6e 81       	ldd	r22, Y+6	; 0x06
    1440:	7f 81       	ldd	r23, Y+7	; 0x07
    1442:	88 85       	ldd	r24, Y+8	; 0x08
    1444:	99 85       	ldd	r25, Y+9	; 0x09
    1446:	0e 94 fa 2f 	call	0x5ff4	; 0x5ff4 <__divsf3>
    144a:	dc 01       	movw	r26, r24
    144c:	cb 01       	movw	r24, r22
    144e:	8b 8b       	std	Y+19, r24	; 0x13
    1450:	9c 8b       	std	Y+20, r25	; 0x14
    1452:	ad 8b       	std	Y+21, r26	; 0x15
    1454:	be 8b       	std	Y+22, r27	; 0x16
    1456:	20 e0       	ldi	r18, 0x00	; 0
    1458:	30 e0       	ldi	r19, 0x00	; 0
    145a:	4a e7       	ldi	r20, 0x7A	; 122
    145c:	55 e4       	ldi	r21, 0x45	; 69
    145e:	6b 89       	ldd	r22, Y+19	; 0x13
    1460:	7c 89       	ldd	r23, Y+20	; 0x14
    1462:	8d 89       	ldd	r24, Y+21	; 0x15
    1464:	9e 89       	ldd	r25, Y+22	; 0x16
    1466:	0e 94 07 31 	call	0x620e	; 0x620e <__mulsf3>
    146a:	dc 01       	movw	r26, r24
    146c:	cb 01       	movw	r24, r22
    146e:	8f 8b       	std	Y+23, r24	; 0x17
    1470:	98 8f       	std	Y+24, r25	; 0x18
    1472:	a9 8f       	std	Y+25, r26	; 0x19
    1474:	ba 8f       	std	Y+26, r27	; 0x1a
    1476:	20 e0       	ldi	r18, 0x00	; 0
    1478:	30 e0       	ldi	r19, 0x00	; 0
    147a:	40 e8       	ldi	r20, 0x80	; 128
    147c:	5f e3       	ldi	r21, 0x3F	; 63
    147e:	6f 89       	ldd	r22, Y+23	; 0x17
    1480:	78 8d       	ldd	r23, Y+24	; 0x18
    1482:	89 8d       	ldd	r24, Y+25	; 0x19
    1484:	9a 8d       	ldd	r25, Y+26	; 0x1a
    1486:	0e 94 f6 2f 	call	0x5fec	; 0x5fec <__cmpsf2>
    148a:	88 23       	and	r24, r24
    148c:	2c f4       	brge	.+10     	; 0x1498 <twi_stop+0x180>
    148e:	81 e0       	ldi	r24, 0x01	; 1
    1490:	90 e0       	ldi	r25, 0x00	; 0
    1492:	9c 8f       	std	Y+28, r25	; 0x1c
    1494:	8b 8f       	std	Y+27, r24	; 0x1b
    1496:	3f c0       	rjmp	.+126    	; 0x1516 <twi_stop+0x1fe>
    1498:	20 e0       	ldi	r18, 0x00	; 0
    149a:	3f ef       	ldi	r19, 0xFF	; 255
    149c:	4f e7       	ldi	r20, 0x7F	; 127
    149e:	57 e4       	ldi	r21, 0x47	; 71
    14a0:	6f 89       	ldd	r22, Y+23	; 0x17
    14a2:	78 8d       	ldd	r23, Y+24	; 0x18
    14a4:	89 8d       	ldd	r24, Y+25	; 0x19
    14a6:	9a 8d       	ldd	r25, Y+26	; 0x1a
    14a8:	0e 94 03 31 	call	0x6206	; 0x6206 <__gesf2>
    14ac:	18 16       	cp	r1, r24
    14ae:	4c f5       	brge	.+82     	; 0x1502 <twi_stop+0x1ea>
    14b0:	20 e0       	ldi	r18, 0x00	; 0
    14b2:	30 e0       	ldi	r19, 0x00	; 0
    14b4:	40 e2       	ldi	r20, 0x20	; 32
    14b6:	51 e4       	ldi	r21, 0x41	; 65
    14b8:	6b 89       	ldd	r22, Y+19	; 0x13
    14ba:	7c 89       	ldd	r23, Y+20	; 0x14
    14bc:	8d 89       	ldd	r24, Y+21	; 0x15
    14be:	9e 89       	ldd	r25, Y+22	; 0x16
    14c0:	0e 94 07 31 	call	0x620e	; 0x620e <__mulsf3>
    14c4:	dc 01       	movw	r26, r24
    14c6:	cb 01       	movw	r24, r22
    14c8:	bc 01       	movw	r22, r24
    14ca:	cd 01       	movw	r24, r26
    14cc:	0e 94 62 30 	call	0x60c4	; 0x60c4 <__fixunssfsi>
    14d0:	dc 01       	movw	r26, r24
    14d2:	cb 01       	movw	r24, r22
    14d4:	9c 8f       	std	Y+28, r25	; 0x1c
    14d6:	8b 8f       	std	Y+27, r24	; 0x1b
    14d8:	0f c0       	rjmp	.+30     	; 0x14f8 <twi_stop+0x1e0>
    14da:	80 e9       	ldi	r24, 0x90	; 144
    14dc:	91 e0       	ldi	r25, 0x01	; 1
    14de:	9e 8f       	std	Y+30, r25	; 0x1e
    14e0:	8d 8f       	std	Y+29, r24	; 0x1d
    14e2:	8d 8d       	ldd	r24, Y+29	; 0x1d
    14e4:	9e 8d       	ldd	r25, Y+30	; 0x1e
    14e6:	01 97       	sbiw	r24, 0x01	; 1
    14e8:	f1 f7       	brne	.-4      	; 0x14e6 <twi_stop+0x1ce>
    14ea:	9e 8f       	std	Y+30, r25	; 0x1e
    14ec:	8d 8f       	std	Y+29, r24	; 0x1d
    14ee:	8b 8d       	ldd	r24, Y+27	; 0x1b
    14f0:	9c 8d       	ldd	r25, Y+28	; 0x1c
    14f2:	01 97       	sbiw	r24, 0x01	; 1
    14f4:	9c 8f       	std	Y+28, r25	; 0x1c
    14f6:	8b 8f       	std	Y+27, r24	; 0x1b
    14f8:	8b 8d       	ldd	r24, Y+27	; 0x1b
    14fa:	9c 8d       	ldd	r25, Y+28	; 0x1c
    14fc:	89 2b       	or	r24, r25
    14fe:	69 f7       	brne	.-38     	; 0x14da <twi_stop+0x1c2>
    1500:	3f c0       	rjmp	.+126    	; 0x1580 <twi_stop+0x268>
    1502:	6f 89       	ldd	r22, Y+23	; 0x17
    1504:	78 8d       	ldd	r23, Y+24	; 0x18
    1506:	89 8d       	ldd	r24, Y+25	; 0x19
    1508:	9a 8d       	ldd	r25, Y+26	; 0x1a
    150a:	0e 94 62 30 	call	0x60c4	; 0x60c4 <__fixunssfsi>
    150e:	dc 01       	movw	r26, r24
    1510:	cb 01       	movw	r24, r22
    1512:	9c 8f       	std	Y+28, r25	; 0x1c
    1514:	8b 8f       	std	Y+27, r24	; 0x1b
    1516:	8b 8d       	ldd	r24, Y+27	; 0x1b
    1518:	9c 8d       	ldd	r25, Y+28	; 0x1c
    151a:	98 a3       	std	Y+32, r25	; 0x20
    151c:	8f 8f       	std	Y+31, r24	; 0x1f
    151e:	8f 8d       	ldd	r24, Y+31	; 0x1f
    1520:	98 a1       	ldd	r25, Y+32	; 0x20
    1522:	01 97       	sbiw	r24, 0x01	; 1
    1524:	f1 f7       	brne	.-4      	; 0x1522 <twi_stop+0x20a>
    1526:	98 a3       	std	Y+32, r25	; 0x20
    1528:	8f 8f       	std	Y+31, r24	; 0x1f
    152a:	2a c0       	rjmp	.+84     	; 0x1580 <twi_stop+0x268>
    152c:	20 e0       	ldi	r18, 0x00	; 0
    152e:	30 e0       	ldi	r19, 0x00	; 0
    1530:	4f e7       	ldi	r20, 0x7F	; 127
    1532:	53 e4       	ldi	r21, 0x43	; 67
    1534:	6a 85       	ldd	r22, Y+10	; 0x0a
    1536:	7b 85       	ldd	r23, Y+11	; 0x0b
    1538:	8c 85       	ldd	r24, Y+12	; 0x0c
    153a:	9d 85       	ldd	r25, Y+13	; 0x0d
    153c:	0e 94 03 31 	call	0x6206	; 0x6206 <__gesf2>
    1540:	18 16       	cp	r1, r24
    1542:	ac f4       	brge	.+42     	; 0x156e <twi_stop+0x256>
    1544:	6e 85       	ldd	r22, Y+14	; 0x0e
    1546:	7f 85       	ldd	r23, Y+15	; 0x0f
    1548:	88 89       	ldd	r24, Y+16	; 0x10
    154a:	99 89       	ldd	r25, Y+17	; 0x11
    154c:	0e 94 62 30 	call	0x60c4	; 0x60c4 <__fixunssfsi>
    1550:	dc 01       	movw	r26, r24
    1552:	cb 01       	movw	r24, r22
    1554:	9a a3       	std	Y+34, r25	; 0x22
    1556:	89 a3       	std	Y+33, r24	; 0x21
    1558:	89 a1       	ldd	r24, Y+33	; 0x21
    155a:	9a a1       	ldd	r25, Y+34	; 0x22
    155c:	9c a3       	std	Y+36, r25	; 0x24
    155e:	8b a3       	std	Y+35, r24	; 0x23
    1560:	8b a1       	ldd	r24, Y+35	; 0x23
    1562:	9c a1       	ldd	r25, Y+36	; 0x24
    1564:	01 97       	sbiw	r24, 0x01	; 1
    1566:	f1 f7       	brne	.-4      	; 0x1564 <twi_stop+0x24c>
    1568:	9c a3       	std	Y+36, r25	; 0x24
    156a:	8b a3       	std	Y+35, r24	; 0x23
    156c:	0f c0       	rjmp	.+30     	; 0x158c <twi_stop+0x274>
    156e:	6a 85       	ldd	r22, Y+10	; 0x0a
    1570:	7b 85       	ldd	r23, Y+11	; 0x0b
    1572:	8c 85       	ldd	r24, Y+12	; 0x0c
    1574:	9d 85       	ldd	r25, Y+13	; 0x0d
    1576:	0e 94 62 30 	call	0x60c4	; 0x60c4 <__fixunssfsi>
    157a:	dc 01       	movw	r26, r24
    157c:	cb 01       	movw	r24, r22
    157e:	8a 8b       	std	Y+18, r24	; 0x12
    1580:	8a 89       	ldd	r24, Y+18	; 0x12
    1582:	8d a3       	std	Y+37, r24	; 0x25
    1584:	8d a1       	ldd	r24, Y+37	; 0x25
    1586:	8a 95       	dec	r24
    1588:	f1 f7       	brne	.-4      	; 0x1586 <twi_stop+0x26e>
    158a:	8d a3       	std	Y+37, r24	; 0x25
    158c:	89 81       	ldd	r24, Y+1	; 0x01
    158e:	9a 81       	ldd	r25, Y+2	; 0x02
    1590:	ab 81       	ldd	r26, Y+3	; 0x03
    1592:	bc 81       	ldd	r27, Y+4	; 0x04
    1594:	01 97       	sbiw	r24, 0x01	; 1
    1596:	a1 09       	sbc	r26, r1
    1598:	b1 09       	sbc	r27, r1
    159a:	89 83       	std	Y+1, r24	; 0x01
    159c:	9a 83       	std	Y+2, r25	; 0x02
    159e:	ab 83       	std	Y+3, r26	; 0x03
    15a0:	bc 83       	std	Y+4, r27	; 0x04
    15a2:	04 c0       	rjmp	.+8      	; 0x15ac <twi_stop+0x294>
    15a4:	80 91 b9 02 	lds	r24, 0x02B9	; 0x8002b9 <twi_do_reset_on_timeout>
    15a8:	26 d0       	rcall	.+76     	; 0x15f6 <twi_handleTimeout>
    15aa:	0d c0       	rjmp	.+26     	; 0x15c6 <twi_stop+0x2ae>
    15ac:	8c eb       	ldi	r24, 0xBC	; 188
    15ae:	90 e0       	ldi	r25, 0x00	; 0
    15b0:	fc 01       	movw	r30, r24
    15b2:	80 81       	ld	r24, Z
    15b4:	88 2f       	mov	r24, r24
    15b6:	90 e0       	ldi	r25, 0x00	; 0
    15b8:	80 71       	andi	r24, 0x10	; 16
    15ba:	99 27       	eor	r25, r25
    15bc:	89 2b       	or	r24, r25
    15be:	09 f0       	breq	.+2      	; 0x15c2 <twi_stop+0x2aa>
    15c0:	e0 ce       	rjmp	.-576    	; 0x1382 <twi_stop+0x6a>
    15c2:	10 92 b0 02 	sts	0x02B0, r1	; 0x8002b0 <__data_end>
    15c6:	a5 96       	adiw	r28, 0x25	; 37
    15c8:	0f b6       	in	r0, 0x3f	; 63
    15ca:	f8 94       	cli
    15cc:	de bf       	out	0x3e, r29	; 62
    15ce:	0f be       	out	0x3f, r0	; 63
    15d0:	cd bf       	out	0x3d, r28	; 61
    15d2:	df 91       	pop	r29
    15d4:	cf 91       	pop	r28
    15d6:	08 95       	ret

000015d8 <twi_releaseBus>:
    15d8:	cf 93       	push	r28
    15da:	df 93       	push	r29
    15dc:	cd b7       	in	r28, 0x3d	; 61
    15de:	de b7       	in	r29, 0x3e	; 62
    15e0:	8c eb       	ldi	r24, 0xBC	; 188
    15e2:	90 e0       	ldi	r25, 0x00	; 0
    15e4:	25 ec       	ldi	r18, 0xC5	; 197
    15e6:	fc 01       	movw	r30, r24
    15e8:	20 83       	st	Z, r18
    15ea:	10 92 b0 02 	sts	0x02B0, r1	; 0x8002b0 <__data_end>
    15ee:	00 00       	nop
    15f0:	df 91       	pop	r29
    15f2:	cf 91       	pop	r28
    15f4:	08 95       	ret

000015f6 <twi_handleTimeout>:
    15f6:	cf 93       	push	r28
    15f8:	df 93       	push	r29
    15fa:	00 d0       	rcall	.+0      	; 0x15fc <twi_handleTimeout+0x6>
    15fc:	cd b7       	in	r28, 0x3d	; 61
    15fe:	de b7       	in	r29, 0x3e	; 62
    1600:	8b 83       	std	Y+3, r24	; 0x03
    1602:	81 e0       	ldi	r24, 0x01	; 1
    1604:	80 93 b8 02 	sts	0x02B8, r24	; 0x8002b8 <twi_timed_out_flag>
    1608:	8b 81       	ldd	r24, Y+3	; 0x03
    160a:	88 23       	and	r24, r24
    160c:	b1 f0       	breq	.+44     	; 0x163a <twi_handleTimeout+0x44>
    160e:	88 eb       	ldi	r24, 0xB8	; 184
    1610:	90 e0       	ldi	r25, 0x00	; 0
    1612:	fc 01       	movw	r30, r24
    1614:	80 81       	ld	r24, Z
    1616:	89 83       	std	Y+1, r24	; 0x01
    1618:	8a eb       	ldi	r24, 0xBA	; 186
    161a:	90 e0       	ldi	r25, 0x00	; 0
    161c:	fc 01       	movw	r30, r24
    161e:	80 81       	ld	r24, Z
    1620:	8a 83       	std	Y+2, r24	; 0x02
    1622:	7c dc       	rcall	.-1800   	; 0xf1c <twi_disable>
    1624:	48 dc       	rcall	.-1904   	; 0xeb6 <twi_init>
    1626:	8a eb       	ldi	r24, 0xBA	; 186
    1628:	90 e0       	ldi	r25, 0x00	; 0
    162a:	2a 81       	ldd	r18, Y+2	; 0x02
    162c:	fc 01       	movw	r30, r24
    162e:	20 83       	st	Z, r18
    1630:	88 eb       	ldi	r24, 0xB8	; 184
    1632:	90 e0       	ldi	r25, 0x00	; 0
    1634:	29 81       	ldd	r18, Y+1	; 0x01
    1636:	fc 01       	movw	r30, r24
    1638:	20 83       	st	Z, r18
    163a:	00 00       	nop
    163c:	0f 90       	pop	r0
    163e:	0f 90       	pop	r0
    1640:	0f 90       	pop	r0
    1642:	df 91       	pop	r29
    1644:	cf 91       	pop	r28
    1646:	08 95       	ret

00001648 <__vector_39>:

ISR(TWI_vect)
{
    1648:	1f 92       	push	r1
    164a:	0f 92       	push	r0
    164c:	00 90 5f 00 	lds	r0, 0x005F	; 0x80005f <__TEXT_REGION_LENGTH__+0x7c005f>
    1650:	0f 92       	push	r0
    1652:	11 24       	eor	r1, r1
    1654:	00 90 5b 00 	lds	r0, 0x005B	; 0x80005b <__TEXT_REGION_LENGTH__+0x7c005b>
    1658:	0f 92       	push	r0
    165a:	2f 93       	push	r18
    165c:	3f 93       	push	r19
    165e:	4f 93       	push	r20
    1660:	5f 93       	push	r21
    1662:	6f 93       	push	r22
    1664:	7f 93       	push	r23
    1666:	8f 93       	push	r24
    1668:	9f 93       	push	r25
    166a:	af 93       	push	r26
    166c:	bf 93       	push	r27
    166e:	ef 93       	push	r30
    1670:	ff 93       	push	r31
    1672:	cf 93       	push	r28
    1674:	df 93       	push	r29
    1676:	cd b7       	in	r28, 0x3d	; 61
    1678:	de b7       	in	r29, 0x3e	; 62
  switch(TW_STATUS){
    167a:	89 eb       	ldi	r24, 0xB9	; 185
    167c:	90 e0       	ldi	r25, 0x00	; 0
    167e:	fc 01       	movw	r30, r24
    1680:	80 81       	ld	r24, Z
    1682:	88 2f       	mov	r24, r24
    1684:	90 e0       	ldi	r25, 0x00	; 0
    1686:	88 7f       	andi	r24, 0xF8	; 248
    1688:	99 27       	eor	r25, r25
    168a:	09 2e       	mov	r0, r25
    168c:	00 0c       	add	r0, r0
    168e:	aa 0b       	sbc	r26, r26
    1690:	bb 0b       	sbc	r27, r27
    1692:	40 e0       	ldi	r20, 0x00	; 0
    1694:	50 e0       	ldi	r21, 0x00	; 0
    1696:	28 ef       	ldi	r18, 0xF8	; 248
    1698:	30 e0       	ldi	r19, 0x00	; 0
    169a:	84 1b       	sub	r24, r20
    169c:	95 0b       	sbc	r25, r21
    169e:	28 17       	cp	r18, r24
    16a0:	39 07       	cpc	r19, r25
    16a2:	08 f4       	brcc	.+2      	; 0x16a6 <__vector_39+0x5e>
    16a4:	06 c1       	rjmp	.+524    	; 0x18b2 <__vector_39+0x26a>
    16a6:	fc 01       	movw	r30, r24
    16a8:	88 27       	eor	r24, r24
    16aa:	ee 58       	subi	r30, 0x8E	; 142
    16ac:	ff 4f       	sbci	r31, 0xFF	; 255
    16ae:	8f 4f       	sbci	r24, 0xFF	; 255
    16b0:	0c 94 da 35 	jmp	0x6bb4	; 0x6bb4 <__tablejump2__>
    // All Master
    case TW_START:     // sent start condition
    case TW_REP_START: // sent repeated start condition
      // copy device address and r/w bit to output register and ack
      TWDR = twi_slarw;
    16b4:	8b eb       	ldi	r24, 0xBB	; 187
    16b6:	90 e0       	ldi	r25, 0x00	; 0
    16b8:	20 91 b1 02 	lds	r18, 0x02B1	; 0x8002b1 <twi_slarw>
    16bc:	fc 01       	movw	r30, r24
    16be:	20 83       	st	Z, r18
      twi_reply(1);
    16c0:	81 e0       	ldi	r24, 0x01	; 1
    16c2:	11 de       	rcall	.-990    	; 0x12e6 <twi_reply>
      break;
    16c4:	f6 c0       	rjmp	.+492    	; 0x18b2 <__vector_39+0x26a>

    // Master Transmitter
    case TW_MT_SLA_ACK:  // slave receiver acked address
    case TW_MT_DATA_ACK: // slave receiver acked data
      // if there is data to send, send it, otherwise stop 
      if(twi_masterBufferIndex < twi_masterBufferLength){
    16c6:	90 91 de 02 	lds	r25, 0x02DE	; 0x8002de <twi_masterBufferIndex>
    16ca:	80 91 df 02 	lds	r24, 0x02DF	; 0x8002df <twi_masterBufferLength>
    16ce:	98 17       	cp	r25, r24
    16d0:	98 f4       	brcc	.+38     	; 0x16f8 <__vector_39+0xb0>
        // copy data to output register and ack
        TWDR = twi_masterBuffer[twi_masterBufferIndex++];
    16d2:	8b eb       	ldi	r24, 0xBB	; 187
    16d4:	90 e0       	ldi	r25, 0x00	; 0
    16d6:	20 91 de 02 	lds	r18, 0x02DE	; 0x8002de <twi_masterBufferIndex>
    16da:	31 e0       	ldi	r19, 0x01	; 1
    16dc:	32 0f       	add	r19, r18
    16de:	30 93 de 02 	sts	0x02DE, r19	; 0x8002de <twi_masterBufferIndex>
    16e2:	22 2f       	mov	r18, r18
    16e4:	30 e0       	ldi	r19, 0x00	; 0
    16e6:	22 54       	subi	r18, 0x42	; 66
    16e8:	3d 4f       	sbci	r19, 0xFD	; 253
    16ea:	f9 01       	movw	r30, r18
    16ec:	20 81       	ld	r18, Z
    16ee:	fc 01       	movw	r30, r24
    16f0:	20 83       	st	Z, r18
        twi_reply(1);
    16f2:	81 e0       	ldi	r24, 0x01	; 1
    16f4:	f8 dd       	rcall	.-1040   	; 0x12e6 <twi_reply>
         // at the point where we would normally issue the start.
         TWCR = _BV(TWINT) | _BV(TWSTA)| _BV(TWEN) ;
         twi_state = TWI_READY;
        }
      }
      break;
    16f6:	dd c0       	rjmp	.+442    	; 0x18b2 <__vector_39+0x26a>
      if(twi_masterBufferIndex < twi_masterBufferLength){
        // copy data to output register and ack
        TWDR = twi_masterBuffer[twi_masterBufferIndex++];
        twi_reply(1);
      }else{
        if (twi_sendStop){
    16f8:	80 91 b2 02 	lds	r24, 0x02B2	; 0x8002b2 <twi_sendStop>
    16fc:	88 23       	and	r24, r24
          twi_stop();
    16fe:	11 f0       	breq	.+4      	; 0x1704 <__vector_39+0xbc>
    1700:	0b de       	rcall	.-1002   	; 0x1318 <twi_stop>
         // at the point where we would normally issue the start.
         TWCR = _BV(TWINT) | _BV(TWSTA)| _BV(TWEN) ;
         twi_state = TWI_READY;
        }
      }
      break;
    1702:	d7 c0       	rjmp	.+430    	; 0x18b2 <__vector_39+0x26a>
        twi_reply(1);
      }else{
        if (twi_sendStop){
          twi_stop();
       } else {
         twi_inRepStart = true;	// we're gonna send the START
    1704:	81 e0       	ldi	r24, 0x01	; 1
    1706:	80 93 b3 02 	sts	0x02B3, r24	; 0x8002b3 <twi_inRepStart>
         // don't enable the interrupt. We'll generate the start, but we
         // avoid handling the interrupt until we're in the next transaction,
         // at the point where we would normally issue the start.
         TWCR = _BV(TWINT) | _BV(TWSTA)| _BV(TWEN) ;
    170a:	8c eb       	ldi	r24, 0xBC	; 188
    170c:	90 e0       	ldi	r25, 0x00	; 0
    170e:	24 ea       	ldi	r18, 0xA4	; 164
    1710:	fc 01       	movw	r30, r24
    1712:	20 83       	st	Z, r18
         twi_state = TWI_READY;
    1714:	10 92 b0 02 	sts	0x02B0, r1	; 0x8002b0 <__data_end>
        }
      }
      break;
    1718:	cc c0       	rjmp	.+408    	; 0x18b2 <__vector_39+0x26a>
    case TW_MT_SLA_NACK:  // address sent, nack received
      twi_error = TW_MT_SLA_NACK;
    171a:	80 e2       	ldi	r24, 0x20	; 32
    171c:	80 93 23 03 	sts	0x0323, r24	; 0x800323 <twi_error>
      twi_stop();
    1720:	fb dd       	rcall	.-1034   	; 0x1318 <twi_stop>
      break;
    case TW_MT_DATA_NACK: // data sent, nack received
      twi_error = TW_MT_DATA_NACK;
    1722:	c7 c0       	rjmp	.+398    	; 0x18b2 <__vector_39+0x26a>
    1724:	80 e3       	ldi	r24, 0x30	; 48
    1726:	80 93 23 03 	sts	0x0323, r24	; 0x800323 <twi_error>
      twi_stop();
      break;
    172a:	f6 dd       	rcall	.-1044   	; 0x1318 <twi_stop>
    case TW_MT_ARB_LOST: // lost bus arbitration
      twi_error = TW_MT_ARB_LOST;
    172c:	c2 c0       	rjmp	.+388    	; 0x18b2 <__vector_39+0x26a>
    172e:	88 e3       	ldi	r24, 0x38	; 56
    1730:	80 93 23 03 	sts	0x0323, r24	; 0x800323 <twi_error>
      twi_releaseBus();
    1734:	51 df       	rcall	.-350    	; 0x15d8 <twi_releaseBus>
      break;
    1736:	bd c0       	rjmp	.+378    	; 0x18b2 <__vector_39+0x26a>

    // Master Receiver
    case TW_MR_DATA_ACK: // data received, ack sent
      // put byte into buffer
      twi_masterBuffer[twi_masterBufferIndex++] = TWDR;
    1738:	80 91 de 02 	lds	r24, 0x02DE	; 0x8002de <twi_masterBufferIndex>
    173c:	91 e0       	ldi	r25, 0x01	; 1
    173e:	98 0f       	add	r25, r24
    1740:	90 93 de 02 	sts	0x02DE, r25	; 0x8002de <twi_masterBufferIndex>
    1744:	88 2f       	mov	r24, r24
    1746:	90 e0       	ldi	r25, 0x00	; 0
    1748:	2b eb       	ldi	r18, 0xBB	; 187
    174a:	30 e0       	ldi	r19, 0x00	; 0
    174c:	f9 01       	movw	r30, r18
    174e:	20 81       	ld	r18, Z
    1750:	82 54       	subi	r24, 0x42	; 66
    1752:	9d 4f       	sbci	r25, 0xFD	; 253
    1754:	fc 01       	movw	r30, r24
    1756:	20 83       	st	Z, r18
      __attribute__ ((fallthrough));
    case TW_MR_SLA_ACK:  // address sent, ack received
      // ack if more bytes are expected, otherwise nack
      if(twi_masterBufferIndex < twi_masterBufferLength){
    1758:	90 91 de 02 	lds	r25, 0x02DE	; 0x8002de <twi_masterBufferIndex>
    175c:	80 91 df 02 	lds	r24, 0x02DF	; 0x8002df <twi_masterBufferLength>
        twi_reply(1);
    1760:	98 17       	cp	r25, r24
    1762:	18 f4       	brcc	.+6      	; 0x176a <__vector_39+0x122>
    1764:	81 e0       	ldi	r24, 0x01	; 1
      }else{
        twi_reply(0);
      }
      break;
    1766:	bf dd       	rcall	.-1154   	; 0x12e6 <twi_reply>
    case TW_MR_SLA_ACK:  // address sent, ack received
      // ack if more bytes are expected, otherwise nack
      if(twi_masterBufferIndex < twi_masterBufferLength){
        twi_reply(1);
      }else{
        twi_reply(0);
    1768:	a4 c0       	rjmp	.+328    	; 0x18b2 <__vector_39+0x26a>
    176a:	80 e0       	ldi	r24, 0x00	; 0
    176c:	bc dd       	rcall	.-1160   	; 0x12e6 <twi_reply>
      }
      break;
    176e:	a1 c0       	rjmp	.+322    	; 0x18b2 <__vector_39+0x26a>
    case TW_MR_DATA_NACK: // data received, nack sent
      // put final byte into buffer
      twi_masterBuffer[twi_masterBufferIndex++] = TWDR;
    1770:	80 91 de 02 	lds	r24, 0x02DE	; 0x8002de <twi_masterBufferIndex>
    1774:	91 e0       	ldi	r25, 0x01	; 1
    1776:	98 0f       	add	r25, r24
    1778:	90 93 de 02 	sts	0x02DE, r25	; 0x8002de <twi_masterBufferIndex>
    177c:	88 2f       	mov	r24, r24
    177e:	90 e0       	ldi	r25, 0x00	; 0
    1780:	2b eb       	ldi	r18, 0xBB	; 187
    1782:	30 e0       	ldi	r19, 0x00	; 0
    1784:	f9 01       	movw	r30, r18
    1786:	20 81       	ld	r18, Z
    1788:	82 54       	subi	r24, 0x42	; 66
    178a:	9d 4f       	sbci	r25, 0xFD	; 253
    178c:	fc 01       	movw	r30, r24
      if (twi_sendStop){
    178e:	20 83       	st	Z, r18
    1790:	80 91 b2 02 	lds	r24, 0x02B2	; 0x8002b2 <twi_sendStop>
    1794:	88 23       	and	r24, r24
        twi_stop();
    1796:	11 f0       	breq	.+4      	; 0x179c <__vector_39+0x154>
    1798:	bf dd       	rcall	.-1154   	; 0x1318 <twi_stop>
        // avoid handling the interrupt until we're in the next transaction,
        // at the point where we would normally issue the start.
        TWCR = _BV(TWINT) | _BV(TWSTA)| _BV(TWEN) ;
        twi_state = TWI_READY;
      }
      break;
    179a:	8b c0       	rjmp	.+278    	; 0x18b2 <__vector_39+0x26a>
      // put final byte into buffer
      twi_masterBuffer[twi_masterBufferIndex++] = TWDR;
      if (twi_sendStop){
        twi_stop();
      } else {
        twi_inRepStart = true;	// we're gonna send the START
    179c:	81 e0       	ldi	r24, 0x01	; 1
    179e:	80 93 b3 02 	sts	0x02B3, r24	; 0x8002b3 <twi_inRepStart>
        // don't enable the interrupt. We'll generate the start, but we
        // avoid handling the interrupt until we're in the next transaction,
        // at the point where we would normally issue the start.
        TWCR = _BV(TWINT) | _BV(TWSTA)| _BV(TWEN) ;
    17a2:	8c eb       	ldi	r24, 0xBC	; 188
    17a4:	90 e0       	ldi	r25, 0x00	; 0
    17a6:	24 ea       	ldi	r18, 0xA4	; 164
    17a8:	fc 01       	movw	r30, r24
        twi_state = TWI_READY;
    17aa:	20 83       	st	Z, r18
    17ac:	10 92 b0 02 	sts	0x02B0, r1	; 0x8002b0 <__data_end>
      }
      break;
    case TW_MR_SLA_NACK: // address sent, nack received
      twi_stop();
    17b0:	80 c0       	rjmp	.+256    	; 0x18b2 <__vector_39+0x26a>
      break;
    17b2:	b2 dd       	rcall	.-1180   	; 0x1318 <twi_stop>
    case TW_SR_SLA_ACK:   // addressed, returned ack
    case TW_SR_GCALL_ACK: // addressed generally, returned ack
    case TW_SR_ARB_LOST_SLA_ACK:   // lost arbitration, returned ack
    case TW_SR_ARB_LOST_GCALL_ACK: // lost arbitration, returned ack
      // enter slave receiver mode
      twi_state = TWI_SRX;
    17b4:	7e c0       	rjmp	.+252    	; 0x18b2 <__vector_39+0x26a>
    17b6:	83 e0       	ldi	r24, 0x03	; 3
    17b8:	80 93 b0 02 	sts	0x02B0, r24	; 0x8002b0 <__data_end>
      // indicate that rx buffer can be overwritten and ack
      twi_rxBufferIndex = 0;
    17bc:	10 92 22 03 	sts	0x0322, r1	; 0x800322 <twi_rxBufferIndex>
      twi_reply(1);
    17c0:	81 e0       	ldi	r24, 0x01	; 1
    17c2:	91 dd       	rcall	.-1246   	; 0x12e6 <twi_reply>
      break;
    17c4:	76 c0       	rjmp	.+236    	; 0x18b2 <__vector_39+0x26a>
    case TW_SR_DATA_ACK:       // data received, returned ack
    case TW_SR_GCALL_DATA_ACK: // data received generally, returned ack
      // if there is still room in the rx buffer
      if(twi_rxBufferIndex < TWI_BUFFER_LENGTH){
    17c6:	80 91 22 03 	lds	r24, 0x0322	; 0x800322 <twi_rxBufferIndex>
    17ca:	80 32       	cpi	r24, 0x20	; 32
    17cc:	98 f4       	brcc	.+38     	; 0x17f4 <__vector_39+0x1ac>
        // put byte in buffer and ack
        twi_rxBuffer[twi_rxBufferIndex++] = TWDR;
    17ce:	80 91 22 03 	lds	r24, 0x0322	; 0x800322 <twi_rxBufferIndex>
    17d2:	91 e0       	ldi	r25, 0x01	; 1
    17d4:	98 0f       	add	r25, r24
    17d6:	90 93 22 03 	sts	0x0322, r25	; 0x800322 <twi_rxBufferIndex>
    17da:	88 2f       	mov	r24, r24
    17dc:	90 e0       	ldi	r25, 0x00	; 0
    17de:	2b eb       	ldi	r18, 0xBB	; 187
    17e0:	30 e0       	ldi	r19, 0x00	; 0
    17e2:	f9 01       	movw	r30, r18
    17e4:	20 81       	ld	r18, Z
    17e6:	8e 5f       	subi	r24, 0xFE	; 254
        twi_reply(1);
    17e8:	9c 4f       	sbci	r25, 0xFC	; 252
    17ea:	fc 01       	movw	r30, r24
    17ec:	20 83       	st	Z, r18
      }else{
        // otherwise nack
        twi_reply(0);
      }
      break;
    17ee:	81 e0       	ldi	r24, 0x01	; 1
        // put byte in buffer and ack
        twi_rxBuffer[twi_rxBufferIndex++] = TWDR;
        twi_reply(1);
      }else{
        // otherwise nack
        twi_reply(0);
    17f0:	7a dd       	rcall	.-1292   	; 0x12e6 <twi_reply>
    17f2:	5f c0       	rjmp	.+190    	; 0x18b2 <__vector_39+0x26a>
    17f4:	80 e0       	ldi	r24, 0x00	; 0
      }
      break;
    17f6:	77 dd       	rcall	.-1298   	; 0x12e6 <twi_reply>
    case TW_SR_STOP: // stop or repeated start condition received
      // ack future responses and leave slave receiver state
      twi_releaseBus();
    17f8:	5c c0       	rjmp	.+184    	; 0x18b2 <__vector_39+0x26a>
    17fa:	ee de       	rcall	.-548    	; 0x15d8 <twi_releaseBus>
      // put a null char after data if there's room
      if(twi_rxBufferIndex < TWI_BUFFER_LENGTH){
    17fc:	80 91 22 03 	lds	r24, 0x0322	; 0x800322 <twi_rxBufferIndex>
    1800:	80 32       	cpi	r24, 0x20	; 32
    1802:	40 f4       	brcc	.+16     	; 0x1814 <__vector_39+0x1cc>
        twi_rxBuffer[twi_rxBufferIndex] = '\0';
    1804:	80 91 22 03 	lds	r24, 0x0322	; 0x800322 <twi_rxBufferIndex>
    1808:	88 2f       	mov	r24, r24
    180a:	90 e0       	ldi	r25, 0x00	; 0
    180c:	8e 5f       	subi	r24, 0xFE	; 254
    180e:	9c 4f       	sbci	r25, 0xFC	; 252
    1810:	fc 01       	movw	r30, r24
    1812:	10 82       	st	Z, r1
      }
      // callback to user defined callback
      twi_onSlaveReceive(twi_rxBuffer, twi_rxBufferIndex);
    1814:	20 91 bc 02 	lds	r18, 0x02BC	; 0x8002bc <twi_onSlaveReceive>
    1818:	30 91 bd 02 	lds	r19, 0x02BD	; 0x8002bd <twi_onSlaveReceive+0x1>
    181c:	80 91 22 03 	lds	r24, 0x0322	; 0x800322 <twi_rxBufferIndex>
    1820:	88 2f       	mov	r24, r24
    1822:	90 e0       	ldi	r25, 0x00	; 0
    1824:	bc 01       	movw	r22, r24
    1826:	82 e0       	ldi	r24, 0x02	; 2
    1828:	93 e0       	ldi	r25, 0x03	; 3
    182a:	f9 01       	movw	r30, r18
      // since we submit rx buffer to "wire" library, we can reset it
      twi_rxBufferIndex = 0;
    182c:	19 95       	eicall
    182e:	10 92 22 03 	sts	0x0322, r1	; 0x800322 <twi_rxBufferIndex>
      break;
    case TW_SR_DATA_NACK:       // data received, returned nack
    case TW_SR_GCALL_DATA_NACK: // data received generally, returned nack
      // nack back at master
      twi_reply(0);
    1832:	3f c0       	rjmp	.+126    	; 0x18b2 <__vector_39+0x26a>
    1834:	80 e0       	ldi	r24, 0x00	; 0
    1836:	57 dd       	rcall	.-1362   	; 0x12e6 <twi_reply>
      break;
    1838:	3c c0       	rjmp	.+120    	; 0x18b2 <__vector_39+0x26a>
    
    // Slave Transmitter
    case TW_ST_SLA_ACK:          // addressed, returned ack
    case TW_ST_ARB_LOST_SLA_ACK: // arbitration lost, returned ack
      // enter slave transmitter mode
      twi_state = TWI_STX;
    183a:	84 e0       	ldi	r24, 0x04	; 4
    183c:	80 93 b0 02 	sts	0x02B0, r24	; 0x8002b0 <__data_end>
      // ready the tx buffer index for iteration
      twi_txBufferIndex = 0;
    1840:	10 92 00 03 	sts	0x0300, r1	; 0x800300 <twi_txBufferIndex>
      // set tx buffer length to be zero, to verify if user changes it
      twi_txBufferLength = 0;
    1844:	10 92 01 03 	sts	0x0301, r1	; 0x800301 <twi_txBufferLength>
      // request for txBuffer to be filled and length to be set
      // note: user must call twi_transmit(bytes, length) to do this
      twi_onSlaveTransmit();
    1848:	80 91 ba 02 	lds	r24, 0x02BA	; 0x8002ba <twi_onSlaveTransmit>
    184c:	90 91 bb 02 	lds	r25, 0x02BB	; 0x8002bb <twi_onSlaveTransmit+0x1>
    1850:	fc 01       	movw	r30, r24
    1852:	19 95       	eicall
      // if they didn't change buffer & length, initialize it
      if(0 == twi_txBufferLength){
    1854:	80 91 01 03 	lds	r24, 0x0301	; 0x800301 <twi_txBufferLength>
    1858:	88 23       	and	r24, r24
    185a:	29 f4       	brne	.+10     	; 0x1866 <__vector_39+0x21e>
        twi_txBufferLength = 1;
    185c:	81 e0       	ldi	r24, 0x01	; 1
    185e:	80 93 01 03 	sts	0x0301, r24	; 0x800301 <twi_txBufferLength>
        twi_txBuffer[0] = 0x00;
    1862:	10 92 e0 02 	sts	0x02E0, r1	; 0x8002e0 <twi_txBuffer>
      }
      __attribute__ ((fallthrough));		  
      // transmit first byte from buffer, fall
    case TW_ST_DATA_ACK: // byte sent, ack returned
      // copy data to output register
      TWDR = twi_txBuffer[twi_txBufferIndex++];
    1866:	8b eb       	ldi	r24, 0xBB	; 187
    1868:	90 e0       	ldi	r25, 0x00	; 0
    186a:	20 91 00 03 	lds	r18, 0x0300	; 0x800300 <twi_txBufferIndex>
    186e:	31 e0       	ldi	r19, 0x01	; 1
    1870:	32 0f       	add	r19, r18
    1872:	30 93 00 03 	sts	0x0300, r19	; 0x800300 <twi_txBufferIndex>
    1876:	22 2f       	mov	r18, r18
    1878:	30 e0       	ldi	r19, 0x00	; 0
    187a:	20 52       	subi	r18, 0x20	; 32
    187c:	3d 4f       	sbci	r19, 0xFD	; 253
    187e:	f9 01       	movw	r30, r18
    1880:	20 81       	ld	r18, Z
      // if there is more to send, ack, otherwise nack
      if(twi_txBufferIndex < twi_txBufferLength){
    1882:	fc 01       	movw	r30, r24
    1884:	20 83       	st	Z, r18
    1886:	90 91 00 03 	lds	r25, 0x0300	; 0x800300 <twi_txBufferIndex>
    188a:	80 91 01 03 	lds	r24, 0x0301	; 0x800301 <twi_txBufferLength>
        twi_reply(1);
    188e:	98 17       	cp	r25, r24
    1890:	18 f4       	brcc	.+6      	; 0x1898 <__vector_39+0x250>
      }else{
        twi_reply(0);
      }
      break;
    1892:	81 e0       	ldi	r24, 0x01	; 1
      TWDR = twi_txBuffer[twi_txBufferIndex++];
      // if there is more to send, ack, otherwise nack
      if(twi_txBufferIndex < twi_txBufferLength){
        twi_reply(1);
      }else{
        twi_reply(0);
    1894:	28 dd       	rcall	.-1456   	; 0x12e6 <twi_reply>
    1896:	0d c0       	rjmp	.+26     	; 0x18b2 <__vector_39+0x26a>
    1898:	80 e0       	ldi	r24, 0x00	; 0
      }
      break;
    189a:	25 dd       	rcall	.-1462   	; 0x12e6 <twi_reply>
    case TW_ST_DATA_NACK: // received nack, we are done 
    case TW_ST_LAST_DATA: // received ack, but we are done already!
      // ack future responses
      twi_reply(1);
    189c:	0a c0       	rjmp	.+20     	; 0x18b2 <__vector_39+0x26a>
    189e:	81 e0       	ldi	r24, 0x01	; 1
    18a0:	22 dd       	rcall	.-1468   	; 0x12e6 <twi_reply>
      // leave slave receiver state
      twi_state = TWI_READY;
    18a2:	10 92 b0 02 	sts	0x02B0, r1	; 0x8002b0 <__data_end>
      break;
    18a6:	05 c0       	rjmp	.+10     	; 0x18b2 <__vector_39+0x26a>

    // All
    case TW_NO_INFO:   // no state information
      break;
    case TW_BUS_ERROR: // bus error, illegal stop/start
      twi_error = TW_BUS_ERROR;
    18a8:	10 92 23 03 	sts	0x0323, r1	; 0x800323 <twi_error>
      twi_stop();
    18ac:	35 dd       	rcall	.-1430   	; 0x1318 <twi_stop>
    18ae:	01 c0       	rjmp	.+2      	; 0x18b2 <__vector_39+0x26a>
      break;
    18b0:	00 00       	nop
      twi_state = TWI_READY;
      break;

    // All
    case TW_NO_INFO:   // no state information
      break;
    18b2:	00 00       	nop
    case TW_BUS_ERROR: // bus error, illegal stop/start
      twi_error = TW_BUS_ERROR;
      twi_stop();
      break;
  }
}
    18b4:	df 91       	pop	r29
    18b6:	cf 91       	pop	r28
    18b8:	ff 91       	pop	r31
    18ba:	ef 91       	pop	r30
    18bc:	bf 91       	pop	r27
    18be:	af 91       	pop	r26
    18c0:	9f 91       	pop	r25
    18c2:	8f 91       	pop	r24
    18c4:	7f 91       	pop	r23
    18c6:	6f 91       	pop	r22
    18c8:	5f 91       	pop	r21
    18ca:	4f 91       	pop	r20
    18cc:	3f 91       	pop	r19
    18ce:	2f 91       	pop	r18
    18d0:	0f 90       	pop	r0
    18d2:	00 92 5b 00 	sts	0x005B, r0	; 0x80005b <__TEXT_REGION_LENGTH__+0x7c005b>
    18d6:	0f 90       	pop	r0
    18d8:	00 92 5f 00 	sts	0x005F, r0	; 0x80005f <__TEXT_REGION_LENGTH__+0x7c005f>
    18dc:	0f 90       	pop	r0
    18de:	1f 90       	pop	r1
    18e0:	18 95       	reti

000018e2 <_ZN5Print13setWriteErrorEi>:
    18e2:	cf 93       	push	r28

// sets function called on slave read
void TwoWire::onRequest( void (*function)(void) )
{
  user_onRequest = function;
}
    18e4:	df 93       	push	r29
    18e6:	00 d0       	rcall	.+0      	; 0x18e8 <_ZN5Print13setWriteErrorEi+0x6>
    18e8:	1f 92       	push	r1
    18ea:	cd b7       	in	r28, 0x3d	; 61
    18ec:	de b7       	in	r29, 0x3e	; 62
    18ee:	9a 83       	std	Y+2, r25	; 0x02
    18f0:	89 83       	std	Y+1, r24	; 0x01
    18f2:	7c 83       	std	Y+4, r23	; 0x04
    18f4:	6b 83       	std	Y+3, r22	; 0x03
    18f6:	89 81       	ldd	r24, Y+1	; 0x01
    18f8:	9a 81       	ldd	r25, Y+2	; 0x02
    18fa:	2b 81       	ldd	r18, Y+3	; 0x03
    18fc:	3c 81       	ldd	r19, Y+4	; 0x04
    18fe:	fc 01       	movw	r30, r24
    1900:	33 83       	std	Z+3, r19	; 0x03
    1902:	22 83       	std	Z+2, r18	; 0x02
    1904:	00 00       	nop
    1906:	0f 90       	pop	r0
    1908:	0f 90       	pop	r0
    190a:	0f 90       	pop	r0
    190c:	0f 90       	pop	r0
    190e:	df 91       	pop	r29
    1910:	cf 91       	pop	r28
    1912:	08 95       	ret

00001914 <_ZN5PrintC1Ev>:
    1914:	cf 93       	push	r28
    1916:	df 93       	push	r29
    1918:	1f 92       	push	r1
    191a:	1f 92       	push	r1
    191c:	cd b7       	in	r28, 0x3d	; 61
    191e:	de b7       	in	r29, 0x3e	; 62
    1920:	9a 83       	std	Y+2, r25	; 0x02
    1922:	89 83       	std	Y+1, r24	; 0x01
    1924:	27 ea       	ldi	r18, 0xA7	; 167
    1926:	32 e0       	ldi	r19, 0x02	; 2
    1928:	89 81       	ldd	r24, Y+1	; 0x01
    192a:	9a 81       	ldd	r25, Y+2	; 0x02
    192c:	fc 01       	movw	r30, r24
    192e:	31 83       	std	Z+1, r19	; 0x01
    1930:	20 83       	st	Z, r18
    1932:	89 81       	ldd	r24, Y+1	; 0x01
    1934:	9a 81       	ldd	r25, Y+2	; 0x02
    1936:	fc 01       	movw	r30, r24
    1938:	13 82       	std	Z+3, r1	; 0x03
    193a:	12 82       	std	Z+2, r1	; 0x02
    193c:	00 00       	nop
    193e:	0f 90       	pop	r0
    1940:	0f 90       	pop	r0
    1942:	df 91       	pop	r29
    1944:	cf 91       	pop	r28
    1946:	08 95       	ret

00001948 <_ZN5Print17availableForWriteEv>:
    1948:	cf 93       	push	r28
    194a:	df 93       	push	r29
    194c:	1f 92       	push	r1
    194e:	1f 92       	push	r1
    1950:	cd b7       	in	r28, 0x3d	; 61
    1952:	de b7       	in	r29, 0x3e	; 62
    1954:	9a 83       	std	Y+2, r25	; 0x02
    1956:	89 83       	std	Y+1, r24	; 0x01
    1958:	80 e0       	ldi	r24, 0x00	; 0
    195a:	90 e0       	ldi	r25, 0x00	; 0
    195c:	0f 90       	pop	r0
    195e:	0f 90       	pop	r0
    1960:	df 91       	pop	r29
    1962:	cf 91       	pop	r28
    1964:	08 95       	ret

00001966 <_ZN5Print5flushEv>:
    1966:	cf 93       	push	r28
    1968:	df 93       	push	r29
    196a:	1f 92       	push	r1
    196c:	1f 92       	push	r1
    196e:	cd b7       	in	r28, 0x3d	; 61
    1970:	de b7       	in	r29, 0x3e	; 62
    1972:	9a 83       	std	Y+2, r25	; 0x02
    1974:	89 83       	std	Y+1, r24	; 0x01
    1976:	00 00       	nop
    1978:	0f 90       	pop	r0
    197a:	0f 90       	pop	r0
    197c:	df 91       	pop	r29
    197e:	cf 91       	pop	r28
    1980:	08 95       	ret

00001982 <_ZN6StreamC1Ev>:
    1982:	cf 93       	push	r28
    1984:	df 93       	push	r29
    1986:	1f 92       	push	r1
    1988:	1f 92       	push	r1
    198a:	cd b7       	in	r28, 0x3d	; 61
    198c:	de b7       	in	r29, 0x3e	; 62
    198e:	9a 83       	std	Y+2, r25	; 0x02
    1990:	89 83       	std	Y+1, r24	; 0x01
    1992:	89 81       	ldd	r24, Y+1	; 0x01
    1994:	9a 81       	ldd	r25, Y+2	; 0x02
    1996:	be df       	rcall	.-132    	; 0x1914 <_ZN5PrintC1Ev>
    1998:	2c e1       	ldi	r18, 0x1C	; 28
    199a:	32 e0       	ldi	r19, 0x02	; 2
    199c:	89 81       	ldd	r24, Y+1	; 0x01
    199e:	9a 81       	ldd	r25, Y+2	; 0x02
    19a0:	fc 01       	movw	r30, r24
    19a2:	31 83       	std	Z+1, r19	; 0x01
    19a4:	20 83       	st	Z, r18
    19a6:	29 81       	ldd	r18, Y+1	; 0x01
    19a8:	3a 81       	ldd	r19, Y+2	; 0x02
    19aa:	88 ee       	ldi	r24, 0xE8	; 232
    19ac:	93 e0       	ldi	r25, 0x03	; 3
    19ae:	a0 e0       	ldi	r26, 0x00	; 0
    19b0:	b0 e0       	ldi	r27, 0x00	; 0
    19b2:	f9 01       	movw	r30, r18
    19b4:	84 83       	std	Z+4, r24	; 0x04
    19b6:	95 83       	std	Z+5, r25	; 0x05
    19b8:	a6 83       	std	Z+6, r26	; 0x06
    19ba:	b7 83       	std	Z+7, r27	; 0x07
    19bc:	00 00       	nop
    19be:	0f 90       	pop	r0
    19c0:	0f 90       	pop	r0
    19c2:	df 91       	pop	r29
    19c4:	cf 91       	pop	r28
    19c6:	08 95       	ret

000019c8 <_ZN7TwoWireC1Ev>:
    19c8:	cf 93       	push	r28
    19ca:	df 93       	push	r29
    19cc:	1f 92       	push	r1
    19ce:	1f 92       	push	r1
    19d0:	cd b7       	in	r28, 0x3d	; 61
    19d2:	de b7       	in	r29, 0x3e	; 62
    19d4:	9a 83       	std	Y+2, r25	; 0x02
    19d6:	89 83       	std	Y+1, r24	; 0x01
    19d8:	89 81       	ldd	r24, Y+1	; 0x01
    19da:	9a 81       	ldd	r25, Y+2	; 0x02
    19dc:	d2 df       	rcall	.-92     	; 0x1982 <_ZN6StreamC1Ev>
    19de:	2a e0       	ldi	r18, 0x0A	; 10
    19e0:	32 e0       	ldi	r19, 0x02	; 2
    19e2:	89 81       	ldd	r24, Y+1	; 0x01
    19e4:	9a 81       	ldd	r25, Y+2	; 0x02
    19e6:	fc 01       	movw	r30, r24
    19e8:	31 83       	std	Z+1, r19	; 0x01
    19ea:	20 83       	st	Z, r18
    19ec:	00 00       	nop
    19ee:	0f 90       	pop	r0
    19f0:	0f 90       	pop	r0
    19f2:	df 91       	pop	r29
    19f4:	cf 91       	pop	r28
    19f6:	08 95       	ret

000019f8 <_ZN7TwoWire5beginEv>:
    19f8:	cf 93       	push	r28
    19fa:	df 93       	push	r29
    19fc:	1f 92       	push	r1
    19fe:	1f 92       	push	r1
    1a00:	cd b7       	in	r28, 0x3d	; 61
    1a02:	de b7       	in	r29, 0x3e	; 62
    1a04:	9a 83       	std	Y+2, r25	; 0x02
    1a06:	89 83       	std	Y+1, r24	; 0x01
    1a08:	10 92 44 03 	sts	0x0344, r1	; 0x800344 <_ZN7TwoWire13rxBufferIndexE>
    1a0c:	10 92 45 03 	sts	0x0345, r1	; 0x800345 <_ZN7TwoWire14rxBufferLengthE>
    1a10:	10 92 67 03 	sts	0x0367, r1	; 0x800367 <_ZN7TwoWire13txBufferIndexE>
    1a14:	10 92 68 03 	sts	0x0368, r1	; 0x800368 <_ZN7TwoWire14txBufferLengthE>
    1a18:	4e da       	rcall	.-2916   	; 0xeb6 <twi_init>
    1a1a:	81 ee       	ldi	r24, 0xE1	; 225
    1a1c:	9e e0       	ldi	r25, 0x0E	; 14
    1a1e:	4f dc       	rcall	.-1890   	; 0x12be <twi_attachSlaveTxEvent>
    1a20:	84 e9       	ldi	r24, 0x94	; 148
    1a22:	9e e0       	ldi	r25, 0x0E	; 14
    1a24:	38 dc       	rcall	.-1936   	; 0x1296 <twi_attachSlaveRxEvent>
    1a26:	00 00       	nop
    1a28:	0f 90       	pop	r0
    1a2a:	0f 90       	pop	r0
    1a2c:	df 91       	pop	r29
    1a2e:	cf 91       	pop	r28
    1a30:	08 95       	ret

00001a32 <_ZN7TwoWire8setClockEm>:
    1a32:	cf 93       	push	r28
    1a34:	df 93       	push	r29
    1a36:	00 d0       	rcall	.+0      	; 0x1a38 <_ZN7TwoWire8setClockEm+0x6>
    1a38:	00 d0       	rcall	.+0      	; 0x1a3a <_ZN7TwoWire8setClockEm+0x8>
    1a3a:	cd b7       	in	r28, 0x3d	; 61
    1a3c:	de b7       	in	r29, 0x3e	; 62
    1a3e:	9a 83       	std	Y+2, r25	; 0x02
    1a40:	89 83       	std	Y+1, r24	; 0x01
    1a42:	4b 83       	std	Y+3, r20	; 0x03
    1a44:	5c 83       	std	Y+4, r21	; 0x04
    1a46:	6d 83       	std	Y+5, r22	; 0x05
    1a48:	7e 83       	std	Y+6, r23	; 0x06
    1a4a:	8b 81       	ldd	r24, Y+3	; 0x03
    1a4c:	9c 81       	ldd	r25, Y+4	; 0x04
    1a4e:	ad 81       	ldd	r26, Y+5	; 0x05
    1a50:	be 81       	ldd	r27, Y+6	; 0x06
    1a52:	bc 01       	movw	r22, r24
    1a54:	cd 01       	movw	r24, r26
    1a56:	7b da       	rcall	.-2826   	; 0xf4e <twi_setFrequency>
    1a58:	00 00       	nop
    1a5a:	26 96       	adiw	r28, 0x06	; 6
    1a5c:	0f b6       	in	r0, 0x3f	; 63
    1a5e:	f8 94       	cli
    1a60:	de bf       	out	0x3e, r29	; 62
    1a62:	0f be       	out	0x3f, r0	; 63
    1a64:	cd bf       	out	0x3d, r28	; 61
    1a66:	df 91       	pop	r29
    1a68:	cf 91       	pop	r28
    1a6a:	08 95       	ret

00001a6c <_ZN7TwoWire17beginTransmissionEh>:
    1a6c:	cf 93       	push	r28
    1a6e:	df 93       	push	r29
    1a70:	00 d0       	rcall	.+0      	; 0x1a72 <_ZN7TwoWire17beginTransmissionEh+0x6>
    1a72:	cd b7       	in	r28, 0x3d	; 61
    1a74:	de b7       	in	r29, 0x3e	; 62
    1a76:	9a 83       	std	Y+2, r25	; 0x02
    1a78:	89 83       	std	Y+1, r24	; 0x01
    1a7a:	6b 83       	std	Y+3, r22	; 0x03
    1a7c:	81 e0       	ldi	r24, 0x01	; 1
    1a7e:	80 93 69 03 	sts	0x0369, r24	; 0x800369 <_ZN7TwoWire12transmittingE>
    1a82:	8b 81       	ldd	r24, Y+3	; 0x03
    1a84:	80 93 46 03 	sts	0x0346, r24	; 0x800346 <_ZN7TwoWire9txAddressE>
    1a88:	10 92 67 03 	sts	0x0367, r1	; 0x800367 <_ZN7TwoWire13txBufferIndexE>
    1a8c:	10 92 68 03 	sts	0x0368, r1	; 0x800368 <_ZN7TwoWire14txBufferLengthE>
    1a90:	00 00       	nop
    1a92:	0f 90       	pop	r0
    1a94:	0f 90       	pop	r0
    1a96:	0f 90       	pop	r0
    1a98:	df 91       	pop	r29
    1a9a:	cf 91       	pop	r28
    1a9c:	08 95       	ret

00001a9e <_ZN7TwoWire17beginTransmissionEi>:
    1a9e:	cf 93       	push	r28
    1aa0:	df 93       	push	r29
    1aa2:	00 d0       	rcall	.+0      	; 0x1aa4 <_ZN7TwoWire17beginTransmissionEi+0x6>
    1aa4:	1f 92       	push	r1
    1aa6:	cd b7       	in	r28, 0x3d	; 61
    1aa8:	de b7       	in	r29, 0x3e	; 62
    1aaa:	9a 83       	std	Y+2, r25	; 0x02
    1aac:	89 83       	std	Y+1, r24	; 0x01
    1aae:	7c 83       	std	Y+4, r23	; 0x04
    1ab0:	6b 83       	std	Y+3, r22	; 0x03
    1ab2:	2b 81       	ldd	r18, Y+3	; 0x03
    1ab4:	89 81       	ldd	r24, Y+1	; 0x01
    1ab6:	9a 81       	ldd	r25, Y+2	; 0x02
    1ab8:	62 2f       	mov	r22, r18
    1aba:	d8 df       	rcall	.-80     	; 0x1a6c <_ZN7TwoWire17beginTransmissionEh>
    1abc:	00 00       	nop
    1abe:	0f 90       	pop	r0
    1ac0:	0f 90       	pop	r0
    1ac2:	0f 90       	pop	r0
    1ac4:	0f 90       	pop	r0
    1ac6:	df 91       	pop	r29
    1ac8:	cf 91       	pop	r28
    1aca:	08 95       	ret

00001acc <_ZN7TwoWire15endTransmissionEh>:
    1acc:	0f 93       	push	r16
    1ace:	cf 93       	push	r28
    1ad0:	df 93       	push	r29
    1ad2:	00 d0       	rcall	.+0      	; 0x1ad4 <_ZN7TwoWire15endTransmissionEh+0x8>
    1ad4:	1f 92       	push	r1
    1ad6:	cd b7       	in	r28, 0x3d	; 61
    1ad8:	de b7       	in	r29, 0x3e	; 62
    1ada:	9b 83       	std	Y+3, r25	; 0x03
    1adc:	8a 83       	std	Y+2, r24	; 0x02
    1ade:	6c 83       	std	Y+4, r22	; 0x04
    1ae0:	90 91 68 03 	lds	r25, 0x0368	; 0x800368 <_ZN7TwoWire14txBufferLengthE>
    1ae4:	80 91 46 03 	lds	r24, 0x0346	; 0x800346 <_ZN7TwoWire9txAddressE>
    1ae8:	0c 81       	ldd	r16, Y+4	; 0x04
    1aea:	21 e0       	ldi	r18, 0x01	; 1
    1aec:	49 2f       	mov	r20, r25
    1aee:	67 e4       	ldi	r22, 0x47	; 71
    1af0:	73 e0       	ldi	r23, 0x03	; 3
    1af2:	5c da       	rcall	.-2888   	; 0xfac <twi_writeTo>
    1af4:	89 83       	std	Y+1, r24	; 0x01
    1af6:	10 92 67 03 	sts	0x0367, r1	; 0x800367 <_ZN7TwoWire13txBufferIndexE>
    1afa:	10 92 68 03 	sts	0x0368, r1	; 0x800368 <_ZN7TwoWire14txBufferLengthE>
    1afe:	10 92 69 03 	sts	0x0369, r1	; 0x800369 <_ZN7TwoWire12transmittingE>
    1b02:	89 81       	ldd	r24, Y+1	; 0x01
    1b04:	0f 90       	pop	r0
    1b06:	0f 90       	pop	r0
    1b08:	0f 90       	pop	r0
    1b0a:	0f 90       	pop	r0
    1b0c:	df 91       	pop	r29
    1b0e:	cf 91       	pop	r28
    1b10:	0f 91       	pop	r16
    1b12:	08 95       	ret

00001b14 <_ZN7TwoWire15endTransmissionEv>:
    1b14:	cf 93       	push	r28
    1b16:	df 93       	push	r29
    1b18:	1f 92       	push	r1
    1b1a:	1f 92       	push	r1
    1b1c:	cd b7       	in	r28, 0x3d	; 61
    1b1e:	de b7       	in	r29, 0x3e	; 62
    1b20:	9a 83       	std	Y+2, r25	; 0x02
    1b22:	89 83       	std	Y+1, r24	; 0x01
    1b24:	89 81       	ldd	r24, Y+1	; 0x01
    1b26:	9a 81       	ldd	r25, Y+2	; 0x02
    1b28:	61 e0       	ldi	r22, 0x01	; 1
    1b2a:	d0 df       	rcall	.-96     	; 0x1acc <_ZN7TwoWire15endTransmissionEh>
    1b2c:	0f 90       	pop	r0
    1b2e:	0f 90       	pop	r0
    1b30:	df 91       	pop	r29
    1b32:	cf 91       	pop	r28
    1b34:	08 95       	ret

00001b36 <_ZN7TwoWire5writeEh>:
    1b36:	cf 93       	push	r28
    1b38:	df 93       	push	r29
    1b3a:	00 d0       	rcall	.+0      	; 0x1b3c <_ZN7TwoWire5writeEh+0x6>
    1b3c:	cd b7       	in	r28, 0x3d	; 61
    1b3e:	de b7       	in	r29, 0x3e	; 62
    1b40:	9a 83       	std	Y+2, r25	; 0x02
    1b42:	89 83       	std	Y+1, r24	; 0x01
    1b44:	6b 83       	std	Y+3, r22	; 0x03
    1b46:	80 91 69 03 	lds	r24, 0x0369	; 0x800369 <_ZN7TwoWire12transmittingE>
    1b4a:	88 23       	and	r24, r24
    1b4c:	f9 f0       	breq	.+62     	; 0x1b8c <_ZN7TwoWire5writeEh+0x56>
    1b4e:	80 91 68 03 	lds	r24, 0x0368	; 0x800368 <_ZN7TwoWire14txBufferLengthE>
    1b52:	80 32       	cpi	r24, 0x20	; 32
    1b54:	40 f0       	brcs	.+16     	; 0x1b66 <_ZN7TwoWire5writeEh+0x30>
    1b56:	89 81       	ldd	r24, Y+1	; 0x01
    1b58:	9a 81       	ldd	r25, Y+2	; 0x02
    1b5a:	61 e0       	ldi	r22, 0x01	; 1
    1b5c:	70 e0       	ldi	r23, 0x00	; 0
    1b5e:	c1 de       	rcall	.-638    	; 0x18e2 <_ZN5Print13setWriteErrorEi>
    1b60:	80 e0       	ldi	r24, 0x00	; 0
    1b62:	90 e0       	ldi	r25, 0x00	; 0
    1b64:	19 c0       	rjmp	.+50     	; 0x1b98 <_ZN7TwoWire5writeEh+0x62>
    1b66:	80 91 67 03 	lds	r24, 0x0367	; 0x800367 <_ZN7TwoWire13txBufferIndexE>
    1b6a:	88 2f       	mov	r24, r24
    1b6c:	90 e0       	ldi	r25, 0x00	; 0
    1b6e:	2b 81       	ldd	r18, Y+3	; 0x03
    1b70:	89 5b       	subi	r24, 0xB9	; 185
    1b72:	9c 4f       	sbci	r25, 0xFC	; 252
    1b74:	fc 01       	movw	r30, r24
    1b76:	20 83       	st	Z, r18
    1b78:	80 91 67 03 	lds	r24, 0x0367	; 0x800367 <_ZN7TwoWire13txBufferIndexE>
    1b7c:	8f 5f       	subi	r24, 0xFF	; 255
    1b7e:	80 93 67 03 	sts	0x0367, r24	; 0x800367 <_ZN7TwoWire13txBufferIndexE>
    1b82:	80 91 67 03 	lds	r24, 0x0367	; 0x800367 <_ZN7TwoWire13txBufferIndexE>
    1b86:	80 93 68 03 	sts	0x0368, r24	; 0x800368 <_ZN7TwoWire14txBufferLengthE>
    1b8a:	04 c0       	rjmp	.+8      	; 0x1b94 <_ZN7TwoWire5writeEh+0x5e>
    1b8c:	ce 01       	movw	r24, r28
    1b8e:	03 96       	adiw	r24, 0x03	; 3
    1b90:	61 e0       	ldi	r22, 0x01	; 1
    1b92:	38 db       	rcall	.-2448   	; 0x1204 <twi_transmit>
    1b94:	81 e0       	ldi	r24, 0x01	; 1
    1b96:	90 e0       	ldi	r25, 0x00	; 0
    1b98:	0f 90       	pop	r0
    1b9a:	0f 90       	pop	r0
    1b9c:	0f 90       	pop	r0
    1b9e:	df 91       	pop	r29
    1ba0:	cf 91       	pop	r28
    1ba2:	08 95       	ret

00001ba4 <_ZN7TwoWire5writeEPKhj>:
    1ba4:	cf 93       	push	r28
    1ba6:	df 93       	push	r29
    1ba8:	cd b7       	in	r28, 0x3d	; 61
    1baa:	de b7       	in	r29, 0x3e	; 62
    1bac:	28 97       	sbiw	r28, 0x08	; 8
    1bae:	0f b6       	in	r0, 0x3f	; 63
    1bb0:	f8 94       	cli
    1bb2:	de bf       	out	0x3e, r29	; 62
    1bb4:	0f be       	out	0x3f, r0	; 63
    1bb6:	cd bf       	out	0x3d, r28	; 61
    1bb8:	9c 83       	std	Y+4, r25	; 0x04
    1bba:	8b 83       	std	Y+3, r24	; 0x03
    1bbc:	7e 83       	std	Y+6, r23	; 0x06
    1bbe:	6d 83       	std	Y+5, r22	; 0x05
    1bc0:	58 87       	std	Y+8, r21	; 0x08
    1bc2:	4f 83       	std	Y+7, r20	; 0x07
    1bc4:	80 91 69 03 	lds	r24, 0x0369	; 0x800369 <_ZN7TwoWire12transmittingE>
    1bc8:	88 23       	and	r24, r24
    1bca:	21 f1       	breq	.+72     	; 0x1c14 <_ZN7TwoWire5writeEPKhj+0x70>
    1bcc:	1a 82       	std	Y+2, r1	; 0x02
    1bce:	19 82       	std	Y+1, r1	; 0x01
    1bd0:	29 81       	ldd	r18, Y+1	; 0x01
    1bd2:	3a 81       	ldd	r19, Y+2	; 0x02
    1bd4:	8f 81       	ldd	r24, Y+7	; 0x07
    1bd6:	98 85       	ldd	r25, Y+8	; 0x08
    1bd8:	28 17       	cp	r18, r24
    1bda:	39 07       	cpc	r19, r25
    1bdc:	00 f5       	brcc	.+64     	; 0x1c1e <_ZN7TwoWire5writeEPKhj+0x7a>
    1bde:	8b 81       	ldd	r24, Y+3	; 0x03
    1be0:	9c 81       	ldd	r25, Y+4	; 0x04
    1be2:	fc 01       	movw	r30, r24
    1be4:	80 81       	ld	r24, Z
    1be6:	91 81       	ldd	r25, Z+1	; 0x01
    1be8:	fc 01       	movw	r30, r24
    1bea:	20 81       	ld	r18, Z
    1bec:	31 81       	ldd	r19, Z+1	; 0x01
    1bee:	4d 81       	ldd	r20, Y+5	; 0x05
    1bf0:	5e 81       	ldd	r21, Y+6	; 0x06
    1bf2:	89 81       	ldd	r24, Y+1	; 0x01
    1bf4:	9a 81       	ldd	r25, Y+2	; 0x02
    1bf6:	84 0f       	add	r24, r20
    1bf8:	95 1f       	adc	r25, r21
    1bfa:	fc 01       	movw	r30, r24
    1bfc:	40 81       	ld	r20, Z
    1bfe:	8b 81       	ldd	r24, Y+3	; 0x03
    1c00:	9c 81       	ldd	r25, Y+4	; 0x04
    1c02:	64 2f       	mov	r22, r20
    1c04:	f9 01       	movw	r30, r18
    1c06:	19 95       	eicall
    1c08:	89 81       	ldd	r24, Y+1	; 0x01
    1c0a:	9a 81       	ldd	r25, Y+2	; 0x02
    1c0c:	01 96       	adiw	r24, 0x01	; 1
    1c0e:	9a 83       	std	Y+2, r25	; 0x02
    1c10:	89 83       	std	Y+1, r24	; 0x01
    1c12:	de cf       	rjmp	.-68     	; 0x1bd0 <_ZN7TwoWire5writeEPKhj+0x2c>
    1c14:	2f 81       	ldd	r18, Y+7	; 0x07
    1c16:	8d 81       	ldd	r24, Y+5	; 0x05
    1c18:	9e 81       	ldd	r25, Y+6	; 0x06
    1c1a:	62 2f       	mov	r22, r18
    1c1c:	f3 da       	rcall	.-2586   	; 0x1204 <twi_transmit>
    1c1e:	8f 81       	ldd	r24, Y+7	; 0x07
    1c20:	98 85       	ldd	r25, Y+8	; 0x08
    1c22:	28 96       	adiw	r28, 0x08	; 8
    1c24:	0f b6       	in	r0, 0x3f	; 63
    1c26:	f8 94       	cli
    1c28:	de bf       	out	0x3e, r29	; 62
    1c2a:	0f be       	out	0x3f, r0	; 63
    1c2c:	cd bf       	out	0x3d, r28	; 61
    1c2e:	df 91       	pop	r29
    1c30:	cf 91       	pop	r28
    1c32:	08 95       	ret

00001c34 <_ZN7TwoWire9availableEv>:
    1c34:	cf 93       	push	r28
    1c36:	df 93       	push	r29
    1c38:	1f 92       	push	r1
    1c3a:	1f 92       	push	r1
    1c3c:	cd b7       	in	r28, 0x3d	; 61
    1c3e:	de b7       	in	r29, 0x3e	; 62
    1c40:	9a 83       	std	Y+2, r25	; 0x02
    1c42:	89 83       	std	Y+1, r24	; 0x01
    1c44:	80 91 45 03 	lds	r24, 0x0345	; 0x800345 <_ZN7TwoWire14rxBufferLengthE>
    1c48:	28 2f       	mov	r18, r24
    1c4a:	30 e0       	ldi	r19, 0x00	; 0
    1c4c:	80 91 44 03 	lds	r24, 0x0344	; 0x800344 <_ZN7TwoWire13rxBufferIndexE>
    1c50:	88 2f       	mov	r24, r24
    1c52:	90 e0       	ldi	r25, 0x00	; 0
    1c54:	a9 01       	movw	r20, r18
    1c56:	48 1b       	sub	r20, r24
    1c58:	59 0b       	sbc	r21, r25
    1c5a:	ca 01       	movw	r24, r20
    1c5c:	0f 90       	pop	r0
    1c5e:	0f 90       	pop	r0
    1c60:	df 91       	pop	r29
    1c62:	cf 91       	pop	r28
    1c64:	08 95       	ret

00001c66 <_ZN7TwoWire4readEv>:
    1c66:	cf 93       	push	r28
    1c68:	df 93       	push	r29
    1c6a:	00 d0       	rcall	.+0      	; 0x1c6c <_ZN7TwoWire4readEv+0x6>
    1c6c:	1f 92       	push	r1
    1c6e:	cd b7       	in	r28, 0x3d	; 61
    1c70:	de b7       	in	r29, 0x3e	; 62
    1c72:	9c 83       	std	Y+4, r25	; 0x04
    1c74:	8b 83       	std	Y+3, r24	; 0x03
    1c76:	8f ef       	ldi	r24, 0xFF	; 255
    1c78:	9f ef       	ldi	r25, 0xFF	; 255
    1c7a:	9a 83       	std	Y+2, r25	; 0x02
    1c7c:	89 83       	std	Y+1, r24	; 0x01
    1c7e:	90 91 44 03 	lds	r25, 0x0344	; 0x800344 <_ZN7TwoWire13rxBufferIndexE>
    1c82:	80 91 45 03 	lds	r24, 0x0345	; 0x800345 <_ZN7TwoWire14rxBufferLengthE>
    1c86:	98 17       	cp	r25, r24
    1c88:	88 f4       	brcc	.+34     	; 0x1cac <_ZN7TwoWire4readEv+0x46>
    1c8a:	80 91 44 03 	lds	r24, 0x0344	; 0x800344 <_ZN7TwoWire13rxBufferIndexE>
    1c8e:	88 2f       	mov	r24, r24
    1c90:	90 e0       	ldi	r25, 0x00	; 0
    1c92:	8c 5d       	subi	r24, 0xDC	; 220
    1c94:	9c 4f       	sbci	r25, 0xFC	; 252
    1c96:	fc 01       	movw	r30, r24
    1c98:	80 81       	ld	r24, Z
    1c9a:	88 2f       	mov	r24, r24
    1c9c:	90 e0       	ldi	r25, 0x00	; 0
    1c9e:	9a 83       	std	Y+2, r25	; 0x02
    1ca0:	89 83       	std	Y+1, r24	; 0x01
    1ca2:	80 91 44 03 	lds	r24, 0x0344	; 0x800344 <_ZN7TwoWire13rxBufferIndexE>
    1ca6:	8f 5f       	subi	r24, 0xFF	; 255
    1ca8:	80 93 44 03 	sts	0x0344, r24	; 0x800344 <_ZN7TwoWire13rxBufferIndexE>
    1cac:	89 81       	ldd	r24, Y+1	; 0x01
    1cae:	9a 81       	ldd	r25, Y+2	; 0x02
    1cb0:	0f 90       	pop	r0
    1cb2:	0f 90       	pop	r0
    1cb4:	0f 90       	pop	r0
    1cb6:	0f 90       	pop	r0
    1cb8:	df 91       	pop	r29
    1cba:	cf 91       	pop	r28
    1cbc:	08 95       	ret

00001cbe <_ZN7TwoWire4peekEv>:
    1cbe:	cf 93       	push	r28
    1cc0:	df 93       	push	r29
    1cc2:	00 d0       	rcall	.+0      	; 0x1cc4 <_ZN7TwoWire4peekEv+0x6>
    1cc4:	1f 92       	push	r1
    1cc6:	cd b7       	in	r28, 0x3d	; 61
    1cc8:	de b7       	in	r29, 0x3e	; 62
    1cca:	9c 83       	std	Y+4, r25	; 0x04
    1ccc:	8b 83       	std	Y+3, r24	; 0x03
    1cce:	8f ef       	ldi	r24, 0xFF	; 255
    1cd0:	9f ef       	ldi	r25, 0xFF	; 255
    1cd2:	9a 83       	std	Y+2, r25	; 0x02
    1cd4:	89 83       	std	Y+1, r24	; 0x01
    1cd6:	90 91 44 03 	lds	r25, 0x0344	; 0x800344 <_ZN7TwoWire13rxBufferIndexE>
    1cda:	80 91 45 03 	lds	r24, 0x0345	; 0x800345 <_ZN7TwoWire14rxBufferLengthE>
    1cde:	98 17       	cp	r25, r24
    1ce0:	60 f4       	brcc	.+24     	; 0x1cfa <_ZN7TwoWire4peekEv+0x3c>
    1ce2:	80 91 44 03 	lds	r24, 0x0344	; 0x800344 <_ZN7TwoWire13rxBufferIndexE>
    1ce6:	88 2f       	mov	r24, r24
    1ce8:	90 e0       	ldi	r25, 0x00	; 0
    1cea:	8c 5d       	subi	r24, 0xDC	; 220
    1cec:	9c 4f       	sbci	r25, 0xFC	; 252
    1cee:	fc 01       	movw	r30, r24
    1cf0:	80 81       	ld	r24, Z
    1cf2:	88 2f       	mov	r24, r24
    1cf4:	90 e0       	ldi	r25, 0x00	; 0
    1cf6:	9a 83       	std	Y+2, r25	; 0x02
    1cf8:	89 83       	std	Y+1, r24	; 0x01
    1cfa:	89 81       	ldd	r24, Y+1	; 0x01
    1cfc:	9a 81       	ldd	r25, Y+2	; 0x02
    1cfe:	0f 90       	pop	r0
    1d00:	0f 90       	pop	r0
    1d02:	0f 90       	pop	r0
    1d04:	0f 90       	pop	r0
    1d06:	df 91       	pop	r29
    1d08:	cf 91       	pop	r28
    1d0a:	08 95       	ret

00001d0c <_ZN7TwoWire5flushEv>:
    1d0c:	cf 93       	push	r28
    1d0e:	df 93       	push	r29
    1d10:	1f 92       	push	r1
    1d12:	1f 92       	push	r1
    1d14:	cd b7       	in	r28, 0x3d	; 61
    1d16:	de b7       	in	r29, 0x3e	; 62
    1d18:	9a 83       	std	Y+2, r25	; 0x02
    1d1a:	89 83       	std	Y+1, r24	; 0x01
    1d1c:	00 00       	nop
    1d1e:	0f 90       	pop	r0
    1d20:	0f 90       	pop	r0
    1d22:	df 91       	pop	r29
    1d24:	cf 91       	pop	r28
    1d26:	08 95       	ret

00001d28 <_ZN7TwoWire16onReceiveServiceEPhi>:
    1d28:	cf 93       	push	r28
    1d2a:	df 93       	push	r29
    1d2c:	00 d0       	rcall	.+0      	; 0x1d2e <_ZN7TwoWire16onReceiveServiceEPhi+0x6>
    1d2e:	1f 92       	push	r1
    1d30:	1f 92       	push	r1
    1d32:	cd b7       	in	r28, 0x3d	; 61
    1d34:	de b7       	in	r29, 0x3e	; 62
    1d36:	9b 83       	std	Y+3, r25	; 0x03
    1d38:	8a 83       	std	Y+2, r24	; 0x02
    1d3a:	7d 83       	std	Y+5, r23	; 0x05
    1d3c:	6c 83       	std	Y+4, r22	; 0x04
    1d3e:	80 91 6c 03 	lds	r24, 0x036C	; 0x80036c <_ZN7TwoWire14user_onReceiveE>
    1d42:	90 91 6d 03 	lds	r25, 0x036D	; 0x80036d <_ZN7TwoWire14user_onReceiveE+0x1>
    1d46:	89 2b       	or	r24, r25
    1d48:	89 f1       	breq	.+98     	; 0x1dac <_ZN7TwoWire16onReceiveServiceEPhi+0x84>
    1d4a:	90 91 44 03 	lds	r25, 0x0344	; 0x800344 <_ZN7TwoWire13rxBufferIndexE>
    1d4e:	80 91 45 03 	lds	r24, 0x0345	; 0x800345 <_ZN7TwoWire14rxBufferLengthE>
    1d52:	98 17       	cp	r25, r24
    1d54:	68 f1       	brcs	.+90     	; 0x1db0 <_ZN7TwoWire16onReceiveServiceEPhi+0x88>
    1d56:	19 82       	std	Y+1, r1	; 0x01
    1d58:	89 81       	ldd	r24, Y+1	; 0x01
    1d5a:	28 2f       	mov	r18, r24
    1d5c:	30 e0       	ldi	r19, 0x00	; 0
    1d5e:	8c 81       	ldd	r24, Y+4	; 0x04
    1d60:	9d 81       	ldd	r25, Y+5	; 0x05
    1d62:	28 17       	cp	r18, r24
    1d64:	39 07       	cpc	r19, r25
    1d66:	a4 f4       	brge	.+40     	; 0x1d90 <_ZN7TwoWire16onReceiveServiceEPhi+0x68>
    1d68:	89 81       	ldd	r24, Y+1	; 0x01
    1d6a:	88 2f       	mov	r24, r24
    1d6c:	90 e0       	ldi	r25, 0x00	; 0
    1d6e:	29 81       	ldd	r18, Y+1	; 0x01
    1d70:	22 2f       	mov	r18, r18
    1d72:	30 e0       	ldi	r19, 0x00	; 0
    1d74:	4a 81       	ldd	r20, Y+2	; 0x02
    1d76:	5b 81       	ldd	r21, Y+3	; 0x03
    1d78:	24 0f       	add	r18, r20
    1d7a:	35 1f       	adc	r19, r21
    1d7c:	f9 01       	movw	r30, r18
    1d7e:	20 81       	ld	r18, Z
    1d80:	8c 5d       	subi	r24, 0xDC	; 220
    1d82:	9c 4f       	sbci	r25, 0xFC	; 252
    1d84:	fc 01       	movw	r30, r24
    1d86:	20 83       	st	Z, r18
    1d88:	89 81       	ldd	r24, Y+1	; 0x01
    1d8a:	8f 5f       	subi	r24, 0xFF	; 255
    1d8c:	89 83       	std	Y+1, r24	; 0x01
    1d8e:	e4 cf       	rjmp	.-56     	; 0x1d58 <_ZN7TwoWire16onReceiveServiceEPhi+0x30>
    1d90:	10 92 44 03 	sts	0x0344, r1	; 0x800344 <_ZN7TwoWire13rxBufferIndexE>
    1d94:	8c 81       	ldd	r24, Y+4	; 0x04
    1d96:	80 93 45 03 	sts	0x0345, r24	; 0x800345 <_ZN7TwoWire14rxBufferLengthE>
    1d9a:	20 91 6c 03 	lds	r18, 0x036C	; 0x80036c <_ZN7TwoWire14user_onReceiveE>
    1d9e:	30 91 6d 03 	lds	r19, 0x036D	; 0x80036d <_ZN7TwoWire14user_onReceiveE+0x1>
    1da2:	8c 81       	ldd	r24, Y+4	; 0x04
    1da4:	9d 81       	ldd	r25, Y+5	; 0x05
    1da6:	f9 01       	movw	r30, r18
    1da8:	19 95       	eicall
    1daa:	03 c0       	rjmp	.+6      	; 0x1db2 <_ZN7TwoWire16onReceiveServiceEPhi+0x8a>
    1dac:	00 00       	nop
    1dae:	01 c0       	rjmp	.+2      	; 0x1db2 <_ZN7TwoWire16onReceiveServiceEPhi+0x8a>
    1db0:	00 00       	nop
    1db2:	0f 90       	pop	r0
    1db4:	0f 90       	pop	r0
    1db6:	0f 90       	pop	r0
    1db8:	0f 90       	pop	r0
    1dba:	0f 90       	pop	r0
    1dbc:	df 91       	pop	r29
    1dbe:	cf 91       	pop	r28
    1dc0:	08 95       	ret

00001dc2 <_ZN7TwoWire16onRequestServiceEv>:
    1dc2:	cf 93       	push	r28
    1dc4:	df 93       	push	r29
    1dc6:	cd b7       	in	r28, 0x3d	; 61
    1dc8:	de b7       	in	r29, 0x3e	; 62
    1dca:	80 91 6a 03 	lds	r24, 0x036A	; 0x80036a <_ZN7TwoWire14user_onRequestE>
    1dce:	90 91 6b 03 	lds	r25, 0x036B	; 0x80036b <_ZN7TwoWire14user_onRequestE+0x1>
    1dd2:	89 2b       	or	r24, r25
    1dd4:	59 f0       	breq	.+22     	; 0x1dec <_ZN7TwoWire16onRequestServiceEv+0x2a>
    1dd6:	10 92 67 03 	sts	0x0367, r1	; 0x800367 <_ZN7TwoWire13txBufferIndexE>
    1dda:	10 92 68 03 	sts	0x0368, r1	; 0x800368 <_ZN7TwoWire14txBufferLengthE>
    1dde:	80 91 6a 03 	lds	r24, 0x036A	; 0x80036a <_ZN7TwoWire14user_onRequestE>
    1de2:	90 91 6b 03 	lds	r25, 0x036B	; 0x80036b <_ZN7TwoWire14user_onRequestE+0x1>
    1de6:	fc 01       	movw	r30, r24
    1de8:	19 95       	eicall
    1dea:	01 c0       	rjmp	.+2      	; 0x1dee <_ZN7TwoWire16onRequestServiceEv+0x2c>
    1dec:	00 00       	nop
    1dee:	df 91       	pop	r29
    1df0:	cf 91       	pop	r28
    1df2:	08 95       	ret

00001df4 <_Z41__static_initialization_and_destruction_0ii>:

// Preinstantiate Objects //////////////////////////////////////////////////////

TwoWire Wire = TwoWire();
    1df4:	cf 93       	push	r28
    1df6:	df 93       	push	r29
    1df8:	00 d0       	rcall	.+0      	; 0x1dfa <_Z41__static_initialization_and_destruction_0ii+0x6>
    1dfa:	1f 92       	push	r1
    1dfc:	cd b7       	in	r28, 0x3d	; 61
    1dfe:	de b7       	in	r29, 0x3e	; 62
    1e00:	9a 83       	std	Y+2, r25	; 0x02
    1e02:	89 83       	std	Y+1, r24	; 0x01
    1e04:	7c 83       	std	Y+4, r23	; 0x04
    1e06:	6b 83       	std	Y+3, r22	; 0x03
    1e08:	89 81       	ldd	r24, Y+1	; 0x01
    1e0a:	9a 81       	ldd	r25, Y+2	; 0x02
    1e0c:	01 97       	sbiw	r24, 0x01	; 1
    1e0e:	39 f4       	brne	.+14     	; 0x1e1e <_Z41__static_initialization_and_destruction_0ii+0x2a>
    1e10:	8b 81       	ldd	r24, Y+3	; 0x03
    1e12:	9c 81       	ldd	r25, Y+4	; 0x04
    1e14:	01 96       	adiw	r24, 0x01	; 1
    1e16:	19 f4       	brne	.+6      	; 0x1e1e <_Z41__static_initialization_and_destruction_0ii+0x2a>
    1e18:	8e e6       	ldi	r24, 0x6E	; 110
    1e1a:	93 e0       	ldi	r25, 0x03	; 3
    1e1c:	d5 dd       	rcall	.-1110   	; 0x19c8 <_ZN7TwoWireC1Ev>
    1e1e:	00 00       	nop
    1e20:	0f 90       	pop	r0
    1e22:	0f 90       	pop	r0
    1e24:	0f 90       	pop	r0
    1e26:	0f 90       	pop	r0
    1e28:	df 91       	pop	r29
    1e2a:	cf 91       	pop	r28
    1e2c:	08 95       	ret

00001e2e <_GLOBAL__sub_I__ZN7TwoWire8rxBufferE>:
    1e2e:	cf 93       	push	r28
    1e30:	df 93       	push	r29
    1e32:	cd b7       	in	r28, 0x3d	; 61
    1e34:	de b7       	in	r29, 0x3e	; 62
    1e36:	6f ef       	ldi	r22, 0xFF	; 255
    1e38:	7f ef       	ldi	r23, 0xFF	; 255
    1e3a:	81 e0       	ldi	r24, 0x01	; 1
    1e3c:	90 e0       	ldi	r25, 0x00	; 0
    1e3e:	da df       	rcall	.-76     	; 0x1df4 <_Z41__static_initialization_and_destruction_0ii>
    1e40:	df 91       	pop	r29
    1e42:	cf 91       	pop	r28
    1e44:	08 95       	ret

00001e46 <_ZN14HardwareSerial5beginEm>:
  public:
    inline HardwareSerial(
      volatile uint8_t *ubrrh, volatile uint8_t *ubrrl,
      volatile uint8_t *ucsra, volatile uint8_t *ucsrb,
      volatile uint8_t *ucsrc, volatile uint8_t *udr);
    void begin(unsigned long baud) { begin(baud, SERIAL_8N1); }
    1e46:	cf 93       	push	r28
    1e48:	df 93       	push	r29
    1e4a:	00 d0       	rcall	.+0      	; 0x1e4c <_ZN14HardwareSerial5beginEm+0x6>
    1e4c:	00 d0       	rcall	.+0      	; 0x1e4e <_ZN14HardwareSerial5beginEm+0x8>
    1e4e:	cd b7       	in	r28, 0x3d	; 61
    1e50:	de b7       	in	r29, 0x3e	; 62
    1e52:	9a 83       	std	Y+2, r25	; 0x02
    1e54:	89 83       	std	Y+1, r24	; 0x01
    1e56:	4b 83       	std	Y+3, r20	; 0x03
    1e58:	5c 83       	std	Y+4, r21	; 0x04
    1e5a:	6d 83       	std	Y+5, r22	; 0x05
    1e5c:	7e 83       	std	Y+6, r23	; 0x06
    1e5e:	8b 81       	ldd	r24, Y+3	; 0x03
    1e60:	9c 81       	ldd	r25, Y+4	; 0x04
    1e62:	ad 81       	ldd	r26, Y+5	; 0x05
    1e64:	be 81       	ldd	r27, Y+6	; 0x06
    1e66:	e9 81       	ldd	r30, Y+1	; 0x01
    1e68:	fa 81       	ldd	r31, Y+2	; 0x02
    1e6a:	26 e0       	ldi	r18, 0x06	; 6
    1e6c:	ac 01       	movw	r20, r24
    1e6e:	bd 01       	movw	r22, r26
    1e70:	cf 01       	movw	r24, r30
    1e72:	0e 94 73 32 	call	0x64e6	; 0x64e6 <_ZN14HardwareSerial5beginEmh>
    1e76:	00 00       	nop
    1e78:	26 96       	adiw	r28, 0x06	; 6
    1e7a:	0f b6       	in	r0, 0x3f	; 63
    1e7c:	f8 94       	cli
    1e7e:	de bf       	out	0x3e, r29	; 62
    1e80:	0f be       	out	0x3f, r0	; 63
    1e82:	cd bf       	out	0x3d, r28	; 61
    1e84:	df 91       	pop	r29
    1e86:	cf 91       	pop	r28
    1e88:	08 95       	ret

00001e8a <_ZN12Adafruit_GFX9setCursorEii>:
    @brief  Set text cursor location
    @param  x    X coordinate in pixels
    @param  y    Y coordinate in pixels
  */
  /**********************************************************************/
  void setCursor(int16_t x, int16_t y) {
    1e8a:	cf 93       	push	r28
    1e8c:	df 93       	push	r29
    1e8e:	00 d0       	rcall	.+0      	; 0x1e90 <_ZN12Adafruit_GFX9setCursorEii+0x6>
    1e90:	00 d0       	rcall	.+0      	; 0x1e92 <_ZN12Adafruit_GFX9setCursorEii+0x8>
    1e92:	cd b7       	in	r28, 0x3d	; 61
    1e94:	de b7       	in	r29, 0x3e	; 62
    1e96:	9a 83       	std	Y+2, r25	; 0x02
    1e98:	89 83       	std	Y+1, r24	; 0x01
    1e9a:	7c 83       	std	Y+4, r23	; 0x04
    1e9c:	6b 83       	std	Y+3, r22	; 0x03
    1e9e:	5e 83       	std	Y+6, r21	; 0x06
    1ea0:	4d 83       	std	Y+5, r20	; 0x05
    cursor_x = x;
    1ea2:	89 81       	ldd	r24, Y+1	; 0x01
    1ea4:	9a 81       	ldd	r25, Y+2	; 0x02
    1ea6:	2b 81       	ldd	r18, Y+3	; 0x03
    1ea8:	3c 81       	ldd	r19, Y+4	; 0x04
    1eaa:	fc 01       	movw	r30, r24
    1eac:	35 87       	std	Z+13, r19	; 0x0d
    1eae:	24 87       	std	Z+12, r18	; 0x0c
    cursor_y = y;
    1eb0:	89 81       	ldd	r24, Y+1	; 0x01
    1eb2:	9a 81       	ldd	r25, Y+2	; 0x02
    1eb4:	2d 81       	ldd	r18, Y+5	; 0x05
    1eb6:	3e 81       	ldd	r19, Y+6	; 0x06
    1eb8:	fc 01       	movw	r30, r24
    1eba:	37 87       	std	Z+15, r19	; 0x0f
    1ebc:	26 87       	std	Z+14, r18	; 0x0e
  }
    1ebe:	00 00       	nop
    1ec0:	26 96       	adiw	r28, 0x06	; 6
    1ec2:	0f b6       	in	r0, 0x3f	; 63
    1ec4:	f8 94       	cli
    1ec6:	de bf       	out	0x3e, r29	; 62
    1ec8:	0f be       	out	0x3f, r0	; 63
    1eca:	cd bf       	out	0x3d, r28	; 61
    1ecc:	df 91       	pop	r29
    1ece:	cf 91       	pop	r28
    1ed0:	08 95       	ret

00001ed2 <_ZN12Adafruit_GFX12setTextColorEj>:
    @param   c   16-bit 5-6-5 Color to draw text with
    @note    For 'transparent' background, background and foreground
             are set to same color rather than using a separate flag.
  */
  /**********************************************************************/
  void setTextColor(uint16_t c) { textcolor = textbgcolor = c; }
    1ed2:	cf 93       	push	r28
    1ed4:	df 93       	push	r29
    1ed6:	00 d0       	rcall	.+0      	; 0x1ed8 <_ZN12Adafruit_GFX12setTextColorEj+0x6>
    1ed8:	1f 92       	push	r1
    1eda:	cd b7       	in	r28, 0x3d	; 61
    1edc:	de b7       	in	r29, 0x3e	; 62
    1ede:	9a 83       	std	Y+2, r25	; 0x02
    1ee0:	89 83       	std	Y+1, r24	; 0x01
    1ee2:	7c 83       	std	Y+4, r23	; 0x04
    1ee4:	6b 83       	std	Y+3, r22	; 0x03
    1ee6:	89 81       	ldd	r24, Y+1	; 0x01
    1ee8:	9a 81       	ldd	r25, Y+2	; 0x02
    1eea:	2b 81       	ldd	r18, Y+3	; 0x03
    1eec:	3c 81       	ldd	r19, Y+4	; 0x04
    1eee:	fc 01       	movw	r30, r24
    1ef0:	33 8b       	std	Z+19, r19	; 0x13
    1ef2:	22 8b       	std	Z+18, r18	; 0x12
    1ef4:	89 81       	ldd	r24, Y+1	; 0x01
    1ef6:	9a 81       	ldd	r25, Y+2	; 0x02
    1ef8:	fc 01       	movw	r30, r24
    1efa:	22 89       	ldd	r18, Z+18	; 0x12
    1efc:	33 89       	ldd	r19, Z+19	; 0x13
    1efe:	89 81       	ldd	r24, Y+1	; 0x01
    1f00:	9a 81       	ldd	r25, Y+2	; 0x02
    1f02:	fc 01       	movw	r30, r24
    1f04:	31 8b       	std	Z+17, r19	; 0x11
    1f06:	20 8b       	std	Z+16, r18	; 0x10
    1f08:	00 00       	nop
    1f0a:	0f 90       	pop	r0
    1f0c:	0f 90       	pop	r0
    1f0e:	0f 90       	pop	r0
    1f10:	0f 90       	pop	r0
    1f12:	df 91       	pop	r29
    1f14:	cf 91       	pop	r28
    1f16:	08 95       	ret

00001f18 <setup>:
// Declaration for an SSD1306 display connected to I2C (SDA, SCL pins)
#define OLED_RESET 4 // Reset pin # (or -1 if sharing Arduino reset pin)
Adafruit_SSD1306 display(SCREEN_WIDTH, SCREEN_HEIGHT, &Wire, OLED_RESET);

void setup()
{
    1f18:	0f 93       	push	r16
    1f1a:	cf 93       	push	r28
    1f1c:	df 93       	push	r29
    1f1e:	cd b7       	in	r28, 0x3d	; 61
    1f20:	de b7       	in	r29, 0x3e	; 62
	Serial.begin(9600);
    1f22:	40 e8       	ldi	r20, 0x80	; 128
    1f24:	55 e2       	ldi	r21, 0x25	; 37
    1f26:	60 e0       	ldi	r22, 0x00	; 0
    1f28:	70 e0       	ldi	r23, 0x00	; 0
    1f2a:	83 e5       	ldi	r24, 0x53	; 83
    1f2c:	94 e0       	ldi	r25, 0x04	; 4
    1f2e:	8b df       	rcall	.-234    	; 0x1e46 <_ZN14HardwareSerial5beginEm>

	// SSD1306_SWITCHCAPVCC = generate display voltage from 3.3V internally
	if(!display.begin(SSD1306_SWITCHCAPVCC, 0x3C))
    1f30:	01 e0       	ldi	r16, 0x01	; 1
    1f32:	21 e0       	ldi	r18, 0x01	; 1
    1f34:	4c e3       	ldi	r20, 0x3C	; 60
    1f36:	62 e0       	ldi	r22, 0x02	; 2
    1f38:	8a e7       	ldi	r24, 0x7A	; 122
    1f3a:	93 e0       	ldi	r25, 0x03	; 3
    1f3c:	0e 94 f1 20 	call	0x41e2	; 0x41e2 <_ZN16Adafruit_SSD13065beginEhhbb>
    1f40:	98 2f       	mov	r25, r24
    1f42:	81 e0       	ldi	r24, 0x01	; 1
    1f44:	89 27       	eor	r24, r25
    1f46:	88 23       	and	r24, r24
    1f48:	41 f0       	breq	.+16     	; 0x1f5a <setup+0x42>
	{ // Address for 128x64
		Serial.println(F("SSD1306 allocation failed"));
    1f4a:	8a ef       	ldi	r24, 0xFA	; 250
    1f4c:	92 e0       	ldi	r25, 0x02	; 2
    1f4e:	bc 01       	movw	r22, r24
    1f50:	83 e5       	ldi	r24, 0x53	; 83
    1f52:	94 e0       	ldi	r25, 0x04	; 4
    1f54:	0e 94 df 33 	call	0x67be	; 0x67be <_ZN5Print7printlnEPK19__FlashStringHelper>
		for(;;); // Don't proceed, loop forever
    1f58:	ff cf       	rjmp	.-2      	; 0x1f58 <setup+0x40>
	}
}
    1f5a:	00 00       	nop
    1f5c:	df 91       	pop	r29
    1f5e:	cf 91       	pop	r28
    1f60:	0f 91       	pop	r16
    1f62:	08 95       	ret

00001f64 <loop>:

void loop()
{
    1f64:	cf 93       	push	r28
    1f66:	df 93       	push	r29
    1f68:	cd b7       	in	r28, 0x3d	; 61
    1f6a:	de b7       	in	r29, 0x3e	; 62
	display.clearDisplay();
    1f6c:	8a e7       	ldi	r24, 0x7A	; 122
    1f6e:	93 e0       	ldi	r25, 0x03	; 3
    1f70:	0e 94 41 26 	call	0x4c82	; 0x4c82 <_ZN16Adafruit_SSD130612clearDisplayEv>

	display.setTextSize(1); // Normal 1:1 pixel scale
    1f74:	61 e0       	ldi	r22, 0x01	; 1
    1f76:	8a e7       	ldi	r24, 0x7A	; 122
    1f78:	93 e0       	ldi	r25, 0x03	; 3
    1f7a:	0e 94 d0 1c 	call	0x39a0	; 0x39a0 <_ZN12Adafruit_GFX11setTextSizeEh>
	display.setTextColor(WHITE); // Draw white text
    1f7e:	61 e0       	ldi	r22, 0x01	; 1
    1f80:	70 e0       	ldi	r23, 0x00	; 0
    1f82:	8a e7       	ldi	r24, 0x7A	; 122
    1f84:	93 e0       	ldi	r25, 0x03	; 3
    1f86:	a5 df       	rcall	.-182    	; 0x1ed2 <_ZN12Adafruit_GFX12setTextColorEj>
	display.setCursor(0,0); // Start at top-left corner
    1f88:	40 e0       	ldi	r20, 0x00	; 0
    1f8a:	50 e0       	ldi	r21, 0x00	; 0
    1f8c:	60 e0       	ldi	r22, 0x00	; 0
    1f8e:	70 e0       	ldi	r23, 0x00	; 0
    1f90:	8a e7       	ldi	r24, 0x7A	; 122
    1f92:	93 e0       	ldi	r25, 0x03	; 3
    1f94:	7a df       	rcall	.-268    	; 0x1e8a <_ZN12Adafruit_GFX9setCursorEii>
	display.println(F("Paa en markedsplads hvor jeg var faerdig med at spille, stod jeg trt og kold bag scenen og slapped' af"));
    1f96:	84 e1       	ldi	r24, 0x14	; 20
    1f98:	93 e0       	ldi	r25, 0x03	; 3
    1f9a:	bc 01       	movw	r22, r24
    1f9c:	8a e7       	ldi	r24, 0x7A	; 122
    1f9e:	93 e0       	ldi	r25, 0x03	; 3
    1fa0:	0e 94 df 33 	call	0x67be	; 0x67be <_ZN5Print7printlnEPK19__FlashStringHelper>

	display.display();
    1fa4:	8a e7       	ldi	r24, 0x7A	; 122
    1fa6:	93 e0       	ldi	r25, 0x03	; 3
    1fa8:	0e 94 9f 2a 	call	0x553e	; 0x553e <_ZN16Adafruit_SSD13067displayEv>
	delay(2000);
    1fac:	60 ed       	ldi	r22, 0xD0	; 208
    1fae:	77 e0       	ldi	r23, 0x07	; 7
    1fb0:	80 e0       	ldi	r24, 0x00	; 0
    1fb2:	90 e0       	ldi	r25, 0x00	; 0
    1fb4:	0e 94 5e 34 	call	0x68bc	; 0x68bc <delay>
    1fb8:	00 00       	nop
    1fba:	df 91       	pop	r29
    1fbc:	cf 91       	pop	r28
    1fbe:	08 95       	ret

00001fc0 <_Z41__static_initialization_and_destruction_0ii>:
    1fc0:	8f 92       	push	r8
    1fc2:	9f 92       	push	r9
    1fc4:	af 92       	push	r10
    1fc6:	bf 92       	push	r11
    1fc8:	cf 92       	push	r12
    1fca:	df 92       	push	r13
    1fcc:	ef 92       	push	r14
    1fce:	ff 92       	push	r15
    1fd0:	0f 93       	push	r16
    1fd2:	cf 93       	push	r28
    1fd4:	df 93       	push	r29
    1fd6:	00 d0       	rcall	.+0      	; 0x1fd8 <_Z41__static_initialization_and_destruction_0ii+0x18>
    1fd8:	1f 92       	push	r1
    1fda:	cd b7       	in	r28, 0x3d	; 61
    1fdc:	de b7       	in	r29, 0x3e	; 62
    1fde:	9a 83       	std	Y+2, r25	; 0x02
    1fe0:	89 83       	std	Y+1, r24	; 0x01
    1fe2:	7c 83       	std	Y+4, r23	; 0x04
    1fe4:	6b 83       	std	Y+3, r22	; 0x03
    1fe6:	89 81       	ldd	r24, Y+1	; 0x01
    1fe8:	9a 81       	ldd	r25, Y+2	; 0x02
    1fea:	01 97       	sbiw	r24, 0x01	; 1
    1fec:	f9 f4       	brne	.+62     	; 0x202c <__DATA_REGION_LENGTH__+0x2c>
    1fee:	8b 81       	ldd	r24, Y+3	; 0x03
    1ff0:	9c 81       	ldd	r25, Y+4	; 0x04
    1ff2:	01 96       	adiw	r24, 0x01	; 1
    1ff4:	d9 f4       	brne	.+54     	; 0x202c <__DATA_REGION_LENGTH__+0x2c>
#define SCREEN_WIDTH 128 // OLED display width, in pixels
#define SCREEN_HEIGHT 64 // OLED display height, in pixels

// Declaration for an SSD1306 display connected to I2C (SDA, SCL pins)
#define OLED_RESET 4 // Reset pin # (or -1 if sharing Arduino reset pin)
Adafruit_SSD1306 display(SCREEN_WIDTH, SCREEN_HEIGHT, &Wire, OLED_RESET);
    1ff6:	0f 2e       	mov	r0, r31
    1ff8:	f0 ea       	ldi	r31, 0xA0	; 160
    1ffa:	8f 2e       	mov	r8, r31
    1ffc:	f6 e8       	ldi	r31, 0x86	; 134
    1ffe:	9f 2e       	mov	r9, r31
    2000:	aa 24       	eor	r10, r10
    2002:	a3 94       	inc	r10
    2004:	b1 2c       	mov	r11, r1
    2006:	f0 2d       	mov	r31, r0
    2008:	0f 2e       	mov	r0, r31
    200a:	f0 e8       	ldi	r31, 0x80	; 128
    200c:	cf 2e       	mov	r12, r31
    200e:	fa e1       	ldi	r31, 0x1A	; 26
    2010:	df 2e       	mov	r13, r31
    2012:	f6 e0       	ldi	r31, 0x06	; 6
    2014:	ef 2e       	mov	r14, r31
    2016:	f1 2c       	mov	r15, r1
    2018:	f0 2d       	mov	r31, r0
    201a:	04 e0       	ldi	r16, 0x04	; 4
    201c:	2e e6       	ldi	r18, 0x6E	; 110
    201e:	33 e0       	ldi	r19, 0x03	; 3
    2020:	40 e4       	ldi	r20, 0x40	; 64
    2022:	60 e8       	ldi	r22, 0x80	; 128
    2024:	8a e7       	ldi	r24, 0x7A	; 122
    2026:	93 e0       	ldi	r25, 0x03	; 3
    2028:	0e 94 01 1e 	call	0x3c02	; 0x3c02 <_ZN16Adafruit_SSD1306C1EhhP7TwoWireamm>
    202c:	89 81       	ldd	r24, Y+1	; 0x01
    202e:	9a 81       	ldd	r25, Y+2	; 0x02
    2030:	89 2b       	or	r24, r25
    2032:	41 f4       	brne	.+16     	; 0x2044 <__DATA_REGION_LENGTH__+0x44>
    2034:	8b 81       	ldd	r24, Y+3	; 0x03
    2036:	9c 81       	ldd	r25, Y+4	; 0x04
    2038:	01 96       	adiw	r24, 0x01	; 1
    203a:	21 f4       	brne	.+8      	; 0x2044 <__DATA_REGION_LENGTH__+0x44>
    203c:	8a e7       	ldi	r24, 0x7A	; 122
    203e:	93 e0       	ldi	r25, 0x03	; 3
    2040:	0e 94 93 1e 	call	0x3d26	; 0x3d26 <_ZN16Adafruit_SSD1306D1Ev>
	display.setCursor(0,0); // Start at top-left corner
	display.println(F("Paa en markedsplads hvor jeg var faerdig med at spille, stod jeg trt og kold bag scenen og slapped' af"));

	display.display();
	delay(2000);
    2044:	00 00       	nop
    2046:	0f 90       	pop	r0
    2048:	0f 90       	pop	r0
    204a:	0f 90       	pop	r0
    204c:	0f 90       	pop	r0
    204e:	df 91       	pop	r29
    2050:	cf 91       	pop	r28
    2052:	0f 91       	pop	r16
    2054:	ff 90       	pop	r15
    2056:	ef 90       	pop	r14
    2058:	df 90       	pop	r13
    205a:	cf 90       	pop	r12
    205c:	bf 90       	pop	r11
    205e:	af 90       	pop	r10
    2060:	9f 90       	pop	r9
    2062:	8f 90       	pop	r8
    2064:	08 95       	ret

00002066 <_GLOBAL__sub_I_display>:
    2066:	cf 93       	push	r28
    2068:	df 93       	push	r29
    206a:	cd b7       	in	r28, 0x3d	; 61
    206c:	de b7       	in	r29, 0x3e	; 62
    206e:	6f ef       	ldi	r22, 0xFF	; 255
    2070:	7f ef       	ldi	r23, 0xFF	; 255
    2072:	81 e0       	ldi	r24, 0x01	; 1
    2074:	90 e0       	ldi	r25, 0x00	; 0
    2076:	a4 df       	rcall	.-184    	; 0x1fc0 <_Z41__static_initialization_and_destruction_0ii>
    2078:	df 91       	pop	r29
    207a:	cf 91       	pop	r28
    207c:	08 95       	ret

0000207e <_GLOBAL__sub_D_display>:
    207e:	cf 93       	push	r28
    2080:	df 93       	push	r29
    2082:	cd b7       	in	r28, 0x3d	; 61
    2084:	de b7       	in	r29, 0x3e	; 62
    2086:	6f ef       	ldi	r22, 0xFF	; 255
    2088:	7f ef       	ldi	r23, 0xFF	; 255
    208a:	80 e0       	ldi	r24, 0x00	; 0
    208c:	90 e0       	ldi	r25, 0x00	; 0
    208e:	98 df       	rcall	.-208    	; 0x1fc0 <_Z41__static_initialization_and_destruction_0ii>
    2090:	df 91       	pop	r29
    2092:	cf 91       	pop	r28
    2094:	08 95       	ret

00002096 <_ZN8SPIClass16beginTransactionE11SPISettings>:
  // https://github.com/arduino/Arduino/pull/2449

  // Before using SPI.transfer() or asserting chip select pins,
  // this function is used to gain exclusive access to the SPI bus
  // and configure the correct settings.
  inline static void beginTransaction(SPISettings settings) {
    2096:	cf 93       	push	r28
    2098:	df 93       	push	r29
    209a:	00 d0       	rcall	.+0      	; 0x209c <_ZN8SPIClass16beginTransactionE11SPISettings+0x6>
    209c:	cd b7       	in	r28, 0x3d	; 61
    209e:	de b7       	in	r29, 0x3e	; 62
    20a0:	9b 83       	std	Y+3, r25	; 0x03
    20a2:	8a 83       	std	Y+2, r24	; 0x02
    if (interruptMode > 0) {
    20a4:	80 91 bb 03 	lds	r24, 0x03BB	; 0x8003bb <_ZN8SPIClass13interruptModeE>
    20a8:	88 23       	and	r24, r24
    20aa:	31 f1       	breq	.+76     	; 0x20f8 <_ZN8SPIClass16beginTransactionE11SPISettings+0x62>
      uint8_t sreg = SREG;
    20ac:	8f e5       	ldi	r24, 0x5F	; 95
    20ae:	90 e0       	ldi	r25, 0x00	; 0
    20b0:	fc 01       	movw	r30, r24
    20b2:	80 81       	ld	r24, Z
    20b4:	89 83       	std	Y+1, r24	; 0x01
      noInterrupts();
    20b6:	f8 94       	cli

      #ifdef SPI_AVR_EIMSK
      if (interruptMode == 1) {
    20b8:	80 91 bb 03 	lds	r24, 0x03BB	; 0x8003bb <_ZN8SPIClass13interruptModeE>
    20bc:	81 30       	cpi	r24, 0x01	; 1
    20be:	c9 f4       	brne	.+50     	; 0x20f2 <_ZN8SPIClass16beginTransactionE11SPISettings+0x5c>
        interruptSave = SPI_AVR_EIMSK;
    20c0:	8d e3       	ldi	r24, 0x3D	; 61
    20c2:	90 e0       	ldi	r25, 0x00	; 0
    20c4:	fc 01       	movw	r30, r24
    20c6:	80 81       	ld	r24, Z
    20c8:	80 93 bd 03 	sts	0x03BD, r24	; 0x8003bd <_ZN8SPIClass13interruptSaveE>
        SPI_AVR_EIMSK &= ~interruptMask;
    20cc:	8d e3       	ldi	r24, 0x3D	; 61
    20ce:	90 e0       	ldi	r25, 0x00	; 0
    20d0:	2d e3       	ldi	r18, 0x3D	; 61
    20d2:	30 e0       	ldi	r19, 0x00	; 0
    20d4:	f9 01       	movw	r30, r18
    20d6:	20 81       	ld	r18, Z
    20d8:	32 2f       	mov	r19, r18
    20da:	20 91 bc 03 	lds	r18, 0x03BC	; 0x8003bc <_ZN8SPIClass13interruptMaskE>
    20de:	20 95       	com	r18
    20e0:	23 23       	and	r18, r19
    20e2:	fc 01       	movw	r30, r24
    20e4:	20 83       	st	Z, r18
        SREG = sreg;
    20e6:	8f e5       	ldi	r24, 0x5F	; 95
    20e8:	90 e0       	ldi	r25, 0x00	; 0
    20ea:	29 81       	ldd	r18, Y+1	; 0x01
    20ec:	fc 01       	movw	r30, r24
    20ee:	20 83       	st	Z, r18
    20f0:	03 c0       	rjmp	.+6      	; 0x20f8 <_ZN8SPIClass16beginTransactionE11SPISettings+0x62>
      } else
      #endif
      {
        interruptSave = sreg;
    20f2:	89 81       	ldd	r24, Y+1	; 0x01
    20f4:	80 93 bd 03 	sts	0x03BD, r24	; 0x8003bd <_ZN8SPIClass13interruptSaveE>
      digitalWrite(SPI_TRANSACTION_MISMATCH_LED, HIGH);
    }
    inTransactionFlag = 1;
    #endif

    SPCR = settings.spcr;
    20f8:	8c e4       	ldi	r24, 0x4C	; 76
    20fa:	90 e0       	ldi	r25, 0x00	; 0
    20fc:	2a 81       	ldd	r18, Y+2	; 0x02
    20fe:	fc 01       	movw	r30, r24
    2100:	20 83       	st	Z, r18
    SPSR = settings.spsr;
    2102:	8d e4       	ldi	r24, 0x4D	; 77
    2104:	90 e0       	ldi	r25, 0x00	; 0
    2106:	2b 81       	ldd	r18, Y+3	; 0x03
    2108:	fc 01       	movw	r30, r24
    210a:	20 83       	st	Z, r18
  }
    210c:	00 00       	nop
    210e:	0f 90       	pop	r0
    2110:	0f 90       	pop	r0
    2112:	0f 90       	pop	r0
    2114:	df 91       	pop	r29
    2116:	cf 91       	pop	r28
    2118:	08 95       	ret

0000211a <_ZN8SPIClass14endTransactionEv>:
    while (!(SPSR & _BV(SPIF))) ;
    *p = SPDR;
  }
  // After performing a group of transfers and releasing the chip select
  // signal, this function allows others to access the SPI bus
  inline static void endTransaction(void) {
    211a:	cf 93       	push	r28
    211c:	df 93       	push	r29
    211e:	1f 92       	push	r1
    2120:	cd b7       	in	r28, 0x3d	; 61
    2122:	de b7       	in	r29, 0x3e	; 62
      digitalWrite(SPI_TRANSACTION_MISMATCH_LED, HIGH);
    }
    inTransactionFlag = 0;
    #endif

    if (interruptMode > 0) {
    2124:	80 91 bb 03 	lds	r24, 0x03BB	; 0x8003bb <_ZN8SPIClass13interruptModeE>
    2128:	88 23       	and	r24, r24
    212a:	e1 f0       	breq	.+56     	; 0x2164 <_ZN8SPIClass14endTransactionEv+0x4a>
      #ifdef SPI_AVR_EIMSK
      uint8_t sreg = SREG;
    212c:	8f e5       	ldi	r24, 0x5F	; 95
    212e:	90 e0       	ldi	r25, 0x00	; 0
    2130:	fc 01       	movw	r30, r24
    2132:	80 81       	ld	r24, Z
    2134:	89 83       	std	Y+1, r24	; 0x01
      #endif
      noInterrupts();
    2136:	f8 94       	cli
      #ifdef SPI_AVR_EIMSK
      if (interruptMode == 1) {
    2138:	80 91 bb 03 	lds	r24, 0x03BB	; 0x8003bb <_ZN8SPIClass13interruptModeE>
    213c:	81 30       	cpi	r24, 0x01	; 1
    213e:	61 f4       	brne	.+24     	; 0x2158 <_ZN8SPIClass14endTransactionEv+0x3e>
        SPI_AVR_EIMSK = interruptSave;
    2140:	8d e3       	ldi	r24, 0x3D	; 61
    2142:	90 e0       	ldi	r25, 0x00	; 0
    2144:	20 91 bd 03 	lds	r18, 0x03BD	; 0x8003bd <_ZN8SPIClass13interruptSaveE>
    2148:	fc 01       	movw	r30, r24
    214a:	20 83       	st	Z, r18
        SREG = sreg;
    214c:	8f e5       	ldi	r24, 0x5F	; 95
    214e:	90 e0       	ldi	r25, 0x00	; 0
    2150:	29 81       	ldd	r18, Y+1	; 0x01
    2152:	fc 01       	movw	r30, r24
    2154:	20 83       	st	Z, r18
      #endif
      {
        SREG = interruptSave;
      }
    }
  }
    2156:	06 c0       	rjmp	.+12     	; 0x2164 <_ZN8SPIClass14endTransactionEv+0x4a>
        SPI_AVR_EIMSK = interruptSave;
        SREG = sreg;
      } else
      #endif
      {
        SREG = interruptSave;
    2158:	8f e5       	ldi	r24, 0x5F	; 95
    215a:	90 e0       	ldi	r25, 0x00	; 0
    215c:	20 91 bd 03 	lds	r18, 0x03BD	; 0x8003bd <_ZN8SPIClass13interruptSaveE>
    2160:	fc 01       	movw	r30, r24
    2162:	20 83       	st	Z, r18
      }
    }
  }
    2164:	00 00       	nop
    2166:	0f 90       	pop	r0
    2168:	df 91       	pop	r29
    216a:	cf 91       	pop	r28
    216c:	08 95       	ret

0000216e <_ZNK12Adafruit_GFX5widthEv>:
  }
  if (maxy >= miny) {
    *y1 = miny;
    *h = maxy - miny + 1;
  }
}
    216e:	cf 93       	push	r28
    2170:	df 93       	push	r29
    2172:	1f 92       	push	r1
    2174:	1f 92       	push	r1
    2176:	cd b7       	in	r28, 0x3d	; 61
    2178:	de b7       	in	r29, 0x3e	; 62
    217a:	9a 83       	std	Y+2, r25	; 0x02
    217c:	89 83       	std	Y+1, r24	; 0x01
    217e:	89 81       	ldd	r24, Y+1	; 0x01
    2180:	9a 81       	ldd	r25, Y+2	; 0x02
    2182:	fc 01       	movw	r30, r24
    2184:	80 85       	ldd	r24, Z+8	; 0x08
    2186:	91 85       	ldd	r25, Z+9	; 0x09
    2188:	0f 90       	pop	r0
    218a:	0f 90       	pop	r0
    218c:	df 91       	pop	r29
    218e:	cf 91       	pop	r28
    2190:	08 95       	ret

00002192 <_ZNK12Adafruit_GFX6heightEv>:
    2192:	cf 93       	push	r28
    2194:	df 93       	push	r29
    2196:	1f 92       	push	r1
    2198:	1f 92       	push	r1
    219a:	cd b7       	in	r28, 0x3d	; 61
    219c:	de b7       	in	r29, 0x3e	; 62
    219e:	9a 83       	std	Y+2, r25	; 0x02
    21a0:	89 83       	std	Y+1, r24	; 0x01
    21a2:	89 81       	ldd	r24, Y+1	; 0x01
    21a4:	9a 81       	ldd	r25, Y+2	; 0x02
    21a6:	fc 01       	movw	r30, r24
    21a8:	82 85       	ldd	r24, Z+10	; 0x0a
    21aa:	93 85       	ldd	r25, Z+11	; 0x0b
    21ac:	0f 90       	pop	r0
    21ae:	0f 90       	pop	r0
    21b0:	df 91       	pop	r29
    21b2:	cf 91       	pop	r28
    21b4:	08 95       	ret

000021b6 <_ZNK12Adafruit_GFX11getRotationEv>:
    21b6:	cf 93       	push	r28
    21b8:	df 93       	push	r29
    21ba:	1f 92       	push	r1
    21bc:	1f 92       	push	r1
    21be:	cd b7       	in	r28, 0x3d	; 61
    21c0:	de b7       	in	r29, 0x3e	; 62
    21c2:	9a 83       	std	Y+2, r25	; 0x02
    21c4:	89 83       	std	Y+1, r24	; 0x01
    21c6:	89 81       	ldd	r24, Y+1	; 0x01
    21c8:	9a 81       	ldd	r25, Y+2	; 0x02
    21ca:	fc 01       	movw	r30, r24
    21cc:	86 89       	ldd	r24, Z+22	; 0x16
    21ce:	0f 90       	pop	r0
    21d0:	0f 90       	pop	r0
    21d2:	df 91       	pop	r29
    21d4:	cf 91       	pop	r28
    21d6:	08 95       	ret

000021d8 <_Z18pgm_read_glyph_ptrPK7GFXfonth>:
    21d8:	cf 93       	push	r28
    21da:	df 93       	push	r29
    21dc:	cd b7       	in	r28, 0x3d	; 61
    21de:	de b7       	in	r29, 0x3e	; 62
    21e0:	27 97       	sbiw	r28, 0x07	; 7
    21e2:	0f b6       	in	r0, 0x3f	; 63
    21e4:	f8 94       	cli
    21e6:	de bf       	out	0x3e, r29	; 62
    21e8:	0f be       	out	0x3f, r0	; 63
    21ea:	cd bf       	out	0x3d, r28	; 61
    21ec:	9e 83       	std	Y+6, r25	; 0x06
    21ee:	8d 83       	std	Y+5, r24	; 0x05
    21f0:	6f 83       	std	Y+7, r22	; 0x07
    21f2:	8f 81       	ldd	r24, Y+7	; 0x07
    21f4:	28 2f       	mov	r18, r24
    21f6:	30 e0       	ldi	r19, 0x00	; 0
    21f8:	c9 01       	movw	r24, r18
    21fa:	88 0f       	add	r24, r24
    21fc:	99 1f       	adc	r25, r25
    21fe:	88 0f       	add	r24, r24
    2200:	99 1f       	adc	r25, r25
    2202:	88 0f       	add	r24, r24
    2204:	99 1f       	adc	r25, r25
    2206:	ac 01       	movw	r20, r24
    2208:	42 1b       	sub	r20, r18
    220a:	53 0b       	sbc	r21, r19
    220c:	9a 01       	movw	r18, r20
    220e:	8d 81       	ldd	r24, Y+5	; 0x05
    2210:	9e 81       	ldd	r25, Y+6	; 0x06
    2212:	02 96       	adiw	r24, 0x02	; 2
    2214:	9a 83       	std	Y+2, r25	; 0x02
    2216:	89 83       	std	Y+1, r24	; 0x01
    2218:	89 81       	ldd	r24, Y+1	; 0x01
    221a:	9a 81       	ldd	r25, Y+2	; 0x02
    221c:	fc 01       	movw	r30, r24
    221e:	45 91       	lpm	r20, Z+
    2220:	54 91       	lpm	r21, Z
    2222:	cf 01       	movw	r24, r30
    2224:	5c 83       	std	Y+4, r21	; 0x04
    2226:	4b 83       	std	Y+3, r20	; 0x03
    2228:	9a 83       	std	Y+2, r25	; 0x02
    222a:	89 83       	std	Y+1, r24	; 0x01
    222c:	8b 81       	ldd	r24, Y+3	; 0x03
    222e:	9c 81       	ldd	r25, Y+4	; 0x04
    2230:	82 0f       	add	r24, r18
    2232:	93 1f       	adc	r25, r19
    2234:	27 96       	adiw	r28, 0x07	; 7
    2236:	0f b6       	in	r0, 0x3f	; 63
    2238:	f8 94       	cli
    223a:	de bf       	out	0x3e, r29	; 62
    223c:	0f be       	out	0x3f, r0	; 63
    223e:	cd bf       	out	0x3d, r28	; 61
    2240:	df 91       	pop	r29
    2242:	cf 91       	pop	r28
    2244:	08 95       	ret

00002246 <_Z19pgm_read_bitmap_ptrPK7GFXfont>:
    2246:	cf 93       	push	r28
    2248:	df 93       	push	r29
    224a:	00 d0       	rcall	.+0      	; 0x224c <_Z19pgm_read_bitmap_ptrPK7GFXfont+0x6>
    224c:	00 d0       	rcall	.+0      	; 0x224e <_Z19pgm_read_bitmap_ptrPK7GFXfont+0x8>
    224e:	cd b7       	in	r28, 0x3d	; 61
    2250:	de b7       	in	r29, 0x3e	; 62
    2252:	9e 83       	std	Y+6, r25	; 0x06
    2254:	8d 83       	std	Y+5, r24	; 0x05
    2256:	8d 81       	ldd	r24, Y+5	; 0x05
    2258:	9e 81       	ldd	r25, Y+6	; 0x06
    225a:	9a 83       	std	Y+2, r25	; 0x02
    225c:	89 83       	std	Y+1, r24	; 0x01
    225e:	89 81       	ldd	r24, Y+1	; 0x01
    2260:	9a 81       	ldd	r25, Y+2	; 0x02
    2262:	fc 01       	movw	r30, r24
    2264:	25 91       	lpm	r18, Z+
    2266:	34 91       	lpm	r19, Z
    2268:	cf 01       	movw	r24, r30
    226a:	3c 83       	std	Y+4, r19	; 0x04
    226c:	2b 83       	std	Y+3, r18	; 0x03
    226e:	9a 83       	std	Y+2, r25	; 0x02
    2270:	89 83       	std	Y+1, r24	; 0x01
    2272:	8b 81       	ldd	r24, Y+3	; 0x03
    2274:	9c 81       	ldd	r25, Y+4	; 0x04
    2276:	26 96       	adiw	r28, 0x06	; 6
    2278:	0f b6       	in	r0, 0x3f	; 63
    227a:	f8 94       	cli
    227c:	de bf       	out	0x3e, r29	; 62
    227e:	0f be       	out	0x3f, r0	; 63
    2280:	cd bf       	out	0x3d, r28	; 61
    2282:	df 91       	pop	r29
    2284:	cf 91       	pop	r28
    2286:	08 95       	ret

00002288 <_ZN12Adafruit_GFXC1Eii>:
    2288:	cf 93       	push	r28
    228a:	df 93       	push	r29
    228c:	00 d0       	rcall	.+0      	; 0x228e <_ZN12Adafruit_GFXC1Eii+0x6>
    228e:	00 d0       	rcall	.+0      	; 0x2290 <_ZN12Adafruit_GFXC1Eii+0x8>
    2290:	cd b7       	in	r28, 0x3d	; 61
    2292:	de b7       	in	r29, 0x3e	; 62
    2294:	9a 83       	std	Y+2, r25	; 0x02
    2296:	89 83       	std	Y+1, r24	; 0x01
    2298:	7c 83       	std	Y+4, r23	; 0x04
    229a:	6b 83       	std	Y+3, r22	; 0x03
    229c:	5e 83       	std	Y+6, r21	; 0x06
    229e:	4d 83       	std	Y+5, r20	; 0x05
    22a0:	89 81       	ldd	r24, Y+1	; 0x01
    22a2:	9a 81       	ldd	r25, Y+2	; 0x02
    22a4:	37 db       	rcall	.-2450   	; 0x1914 <_ZN5PrintC1Ev>
    22a6:	2e e2       	ldi	r18, 0x2E	; 46
    22a8:	32 e0       	ldi	r19, 0x02	; 2
    22aa:	89 81       	ldd	r24, Y+1	; 0x01
    22ac:	9a 81       	ldd	r25, Y+2	; 0x02
    22ae:	fc 01       	movw	r30, r24
    22b0:	31 83       	std	Z+1, r19	; 0x01
    22b2:	20 83       	st	Z, r18
    22b4:	89 81       	ldd	r24, Y+1	; 0x01
    22b6:	9a 81       	ldd	r25, Y+2	; 0x02
    22b8:	2b 81       	ldd	r18, Y+3	; 0x03
    22ba:	3c 81       	ldd	r19, Y+4	; 0x04
    22bc:	fc 01       	movw	r30, r24
    22be:	35 83       	std	Z+5, r19	; 0x05
    22c0:	24 83       	std	Z+4, r18	; 0x04
    22c2:	89 81       	ldd	r24, Y+1	; 0x01
    22c4:	9a 81       	ldd	r25, Y+2	; 0x02
    22c6:	2d 81       	ldd	r18, Y+5	; 0x05
    22c8:	3e 81       	ldd	r19, Y+6	; 0x06
    22ca:	fc 01       	movw	r30, r24
    22cc:	37 83       	std	Z+7, r19	; 0x07
    22ce:	26 83       	std	Z+6, r18	; 0x06
    22d0:	89 81       	ldd	r24, Y+1	; 0x01
    22d2:	9a 81       	ldd	r25, Y+2	; 0x02
    22d4:	fc 01       	movw	r30, r24
    22d6:	24 81       	ldd	r18, Z+4	; 0x04
    22d8:	35 81       	ldd	r19, Z+5	; 0x05
    22da:	89 81       	ldd	r24, Y+1	; 0x01
    22dc:	9a 81       	ldd	r25, Y+2	; 0x02
    22de:	fc 01       	movw	r30, r24
    22e0:	31 87       	std	Z+9, r19	; 0x09
    22e2:	20 87       	std	Z+8, r18	; 0x08
    22e4:	89 81       	ldd	r24, Y+1	; 0x01
    22e6:	9a 81       	ldd	r25, Y+2	; 0x02
    22e8:	fc 01       	movw	r30, r24
    22ea:	26 81       	ldd	r18, Z+6	; 0x06
    22ec:	37 81       	ldd	r19, Z+7	; 0x07
    22ee:	89 81       	ldd	r24, Y+1	; 0x01
    22f0:	9a 81       	ldd	r25, Y+2	; 0x02
    22f2:	fc 01       	movw	r30, r24
    22f4:	33 87       	std	Z+11, r19	; 0x0b
    22f6:	22 87       	std	Z+10, r18	; 0x0a
    22f8:	89 81       	ldd	r24, Y+1	; 0x01
    22fa:	9a 81       	ldd	r25, Y+2	; 0x02
    22fc:	fc 01       	movw	r30, r24
    22fe:	16 8a       	std	Z+22, r1	; 0x16
    2300:	89 81       	ldd	r24, Y+1	; 0x01
    2302:	9a 81       	ldd	r25, Y+2	; 0x02
    2304:	fc 01       	movw	r30, r24
    2306:	15 86       	std	Z+13, r1	; 0x0d
    2308:	14 86       	std	Z+12, r1	; 0x0c
    230a:	89 81       	ldd	r24, Y+1	; 0x01
    230c:	9a 81       	ldd	r25, Y+2	; 0x02
    230e:	fc 01       	movw	r30, r24
    2310:	24 85       	ldd	r18, Z+12	; 0x0c
    2312:	35 85       	ldd	r19, Z+13	; 0x0d
    2314:	89 81       	ldd	r24, Y+1	; 0x01
    2316:	9a 81       	ldd	r25, Y+2	; 0x02
    2318:	fc 01       	movw	r30, r24
    231a:	37 87       	std	Z+15, r19	; 0x0f
    231c:	26 87       	std	Z+14, r18	; 0x0e
    231e:	89 81       	ldd	r24, Y+1	; 0x01
    2320:	9a 81       	ldd	r25, Y+2	; 0x02
    2322:	21 e0       	ldi	r18, 0x01	; 1
    2324:	fc 01       	movw	r30, r24
    2326:	25 8b       	std	Z+21, r18	; 0x15
    2328:	89 81       	ldd	r24, Y+1	; 0x01
    232a:	9a 81       	ldd	r25, Y+2	; 0x02
    232c:	fc 01       	movw	r30, r24
    232e:	25 89       	ldd	r18, Z+21	; 0x15
    2330:	89 81       	ldd	r24, Y+1	; 0x01
    2332:	9a 81       	ldd	r25, Y+2	; 0x02
    2334:	fc 01       	movw	r30, r24
    2336:	24 8b       	std	Z+20, r18	; 0x14
    2338:	89 81       	ldd	r24, Y+1	; 0x01
    233a:	9a 81       	ldd	r25, Y+2	; 0x02
    233c:	2f ef       	ldi	r18, 0xFF	; 255
    233e:	3f ef       	ldi	r19, 0xFF	; 255
    2340:	fc 01       	movw	r30, r24
    2342:	33 8b       	std	Z+19, r19	; 0x13
    2344:	22 8b       	std	Z+18, r18	; 0x12
    2346:	89 81       	ldd	r24, Y+1	; 0x01
    2348:	9a 81       	ldd	r25, Y+2	; 0x02
    234a:	fc 01       	movw	r30, r24
    234c:	22 89       	ldd	r18, Z+18	; 0x12
    234e:	33 89       	ldd	r19, Z+19	; 0x13
    2350:	89 81       	ldd	r24, Y+1	; 0x01
    2352:	9a 81       	ldd	r25, Y+2	; 0x02
    2354:	fc 01       	movw	r30, r24
    2356:	31 8b       	std	Z+17, r19	; 0x11
    2358:	20 8b       	std	Z+16, r18	; 0x10
    235a:	89 81       	ldd	r24, Y+1	; 0x01
    235c:	9a 81       	ldd	r25, Y+2	; 0x02
    235e:	21 e0       	ldi	r18, 0x01	; 1
    2360:	fc 01       	movw	r30, r24
    2362:	27 8b       	std	Z+23, r18	; 0x17
    2364:	89 81       	ldd	r24, Y+1	; 0x01
    2366:	9a 81       	ldd	r25, Y+2	; 0x02
    2368:	fc 01       	movw	r30, r24
    236a:	10 8e       	std	Z+24, r1	; 0x18
    236c:	89 81       	ldd	r24, Y+1	; 0x01
    236e:	9a 81       	ldd	r25, Y+2	; 0x02
    2370:	fc 01       	movw	r30, r24
    2372:	12 8e       	std	Z+26, r1	; 0x1a
    2374:	11 8e       	std	Z+25, r1	; 0x19
    2376:	00 00       	nop
    2378:	26 96       	adiw	r28, 0x06	; 6
    237a:	0f b6       	in	r0, 0x3f	; 63
    237c:	f8 94       	cli
    237e:	de bf       	out	0x3e, r29	; 62
    2380:	0f be       	out	0x3f, r0	; 63
    2382:	cd bf       	out	0x3d, r28	; 61
    2384:	df 91       	pop	r29
    2386:	cf 91       	pop	r28
    2388:	08 95       	ret

0000238a <_ZN12Adafruit_GFX9writeLineEiiiij>:
    238a:	ef 92       	push	r14
    238c:	ff 92       	push	r15
    238e:	0f 93       	push	r16
    2390:	1f 93       	push	r17
    2392:	cf 93       	push	r28
    2394:	df 93       	push	r29
    2396:	cd b7       	in	r28, 0x3d	; 61
    2398:	de b7       	in	r29, 0x3e	; 62
    239a:	6e 97       	sbiw	r28, 0x1e	; 30
    239c:	0f b6       	in	r0, 0x3f	; 63
    239e:	f8 94       	cli
    23a0:	de bf       	out	0x3e, r29	; 62
    23a2:	0f be       	out	0x3f, r0	; 63
    23a4:	cd bf       	out	0x3d, r28	; 61
    23a6:	9c 8b       	std	Y+20, r25	; 0x14
    23a8:	8b 8b       	std	Y+19, r24	; 0x13
    23aa:	7e 8b       	std	Y+22, r23	; 0x16
    23ac:	6d 8b       	std	Y+21, r22	; 0x15
    23ae:	58 8f       	std	Y+24, r21	; 0x18
    23b0:	4f 8b       	std	Y+23, r20	; 0x17
    23b2:	3a 8f       	std	Y+26, r19	; 0x1a
    23b4:	29 8f       	std	Y+25, r18	; 0x19
    23b6:	1c 8f       	std	Y+28, r17	; 0x1c
    23b8:	0b 8f       	std	Y+27, r16	; 0x1b
    23ba:	fe 8e       	std	Y+30, r15	; 0x1e
    23bc:	ed 8e       	std	Y+29, r14	; 0x1d
    23be:	2b 8d       	ldd	r18, Y+27	; 0x1b
    23c0:	3c 8d       	ldd	r19, Y+28	; 0x1c
    23c2:	8f 89       	ldd	r24, Y+23	; 0x17
    23c4:	98 8d       	ldd	r25, Y+24	; 0x18
    23c6:	a9 01       	movw	r20, r18
    23c8:	48 1b       	sub	r20, r24
    23ca:	59 0b       	sbc	r21, r25
    23cc:	ca 01       	movw	r24, r20
    23ce:	99 23       	and	r25, r25
    23d0:	1c f4       	brge	.+6      	; 0x23d8 <_ZN12Adafruit_GFX9writeLineEiiiij+0x4e>
    23d2:	91 95       	neg	r25
    23d4:	81 95       	neg	r24
    23d6:	91 09       	sbc	r25, r1
    23d8:	ac 01       	movw	r20, r24
    23da:	29 8d       	ldd	r18, Y+25	; 0x19
    23dc:	3a 8d       	ldd	r19, Y+26	; 0x1a
    23de:	8d 89       	ldd	r24, Y+21	; 0x15
    23e0:	9e 89       	ldd	r25, Y+22	; 0x16
    23e2:	b9 01       	movw	r22, r18
    23e4:	68 1b       	sub	r22, r24
    23e6:	79 0b       	sbc	r23, r25
    23e8:	cb 01       	movw	r24, r22
    23ea:	99 23       	and	r25, r25
    23ec:	1c f4       	brge	.+6      	; 0x23f4 <_ZN12Adafruit_GFX9writeLineEiiiij+0x6a>
    23ee:	91 95       	neg	r25
    23f0:	81 95       	neg	r24
    23f2:	91 09       	sbc	r25, r1
    23f4:	21 e0       	ldi	r18, 0x01	; 1
    23f6:	84 17       	cp	r24, r20
    23f8:	95 07       	cpc	r25, r21
    23fa:	0c f0       	brlt	.+2      	; 0x23fe <_ZN12Adafruit_GFX9writeLineEiiiij+0x74>
    23fc:	20 e0       	ldi	r18, 0x00	; 0
    23fe:	82 2f       	mov	r24, r18
    2400:	90 e0       	ldi	r25, 0x00	; 0
    2402:	9e 83       	std	Y+6, r25	; 0x06
    2404:	8d 83       	std	Y+5, r24	; 0x05
    2406:	8d 81       	ldd	r24, Y+5	; 0x05
    2408:	9e 81       	ldd	r25, Y+6	; 0x06
    240a:	89 2b       	or	r24, r25
    240c:	c1 f0       	breq	.+48     	; 0x243e <_ZN12Adafruit_GFX9writeLineEiiiij+0xb4>
    240e:	8d 89       	ldd	r24, Y+21	; 0x15
    2410:	9e 89       	ldd	r25, Y+22	; 0x16
    2412:	98 87       	std	Y+8, r25	; 0x08
    2414:	8f 83       	std	Y+7, r24	; 0x07
    2416:	8f 89       	ldd	r24, Y+23	; 0x17
    2418:	98 8d       	ldd	r25, Y+24	; 0x18
    241a:	9e 8b       	std	Y+22, r25	; 0x16
    241c:	8d 8b       	std	Y+21, r24	; 0x15
    241e:	8f 81       	ldd	r24, Y+7	; 0x07
    2420:	98 85       	ldd	r25, Y+8	; 0x08
    2422:	98 8f       	std	Y+24, r25	; 0x18
    2424:	8f 8b       	std	Y+23, r24	; 0x17
    2426:	89 8d       	ldd	r24, Y+25	; 0x19
    2428:	9a 8d       	ldd	r25, Y+26	; 0x1a
    242a:	9a 87       	std	Y+10, r25	; 0x0a
    242c:	89 87       	std	Y+9, r24	; 0x09
    242e:	8b 8d       	ldd	r24, Y+27	; 0x1b
    2430:	9c 8d       	ldd	r25, Y+28	; 0x1c
    2432:	9a 8f       	std	Y+26, r25	; 0x1a
    2434:	89 8f       	std	Y+25, r24	; 0x19
    2436:	89 85       	ldd	r24, Y+9	; 0x09
    2438:	9a 85       	ldd	r25, Y+10	; 0x0a
    243a:	9c 8f       	std	Y+28, r25	; 0x1c
    243c:	8b 8f       	std	Y+27, r24	; 0x1b
    243e:	2d 89       	ldd	r18, Y+21	; 0x15
    2440:	3e 89       	ldd	r19, Y+22	; 0x16
    2442:	89 8d       	ldd	r24, Y+25	; 0x19
    2444:	9a 8d       	ldd	r25, Y+26	; 0x1a
    2446:	82 17       	cp	r24, r18
    2448:	93 07       	cpc	r25, r19
    244a:	c4 f4       	brge	.+48     	; 0x247c <_ZN12Adafruit_GFX9writeLineEiiiij+0xf2>
    244c:	8d 89       	ldd	r24, Y+21	; 0x15
    244e:	9e 89       	ldd	r25, Y+22	; 0x16
    2450:	9c 87       	std	Y+12, r25	; 0x0c
    2452:	8b 87       	std	Y+11, r24	; 0x0b
    2454:	89 8d       	ldd	r24, Y+25	; 0x19
    2456:	9a 8d       	ldd	r25, Y+26	; 0x1a
    2458:	9e 8b       	std	Y+22, r25	; 0x16
    245a:	8d 8b       	std	Y+21, r24	; 0x15
    245c:	8b 85       	ldd	r24, Y+11	; 0x0b
    245e:	9c 85       	ldd	r25, Y+12	; 0x0c
    2460:	9a 8f       	std	Y+26, r25	; 0x1a
    2462:	89 8f       	std	Y+25, r24	; 0x19
    2464:	8f 89       	ldd	r24, Y+23	; 0x17
    2466:	98 8d       	ldd	r25, Y+24	; 0x18
    2468:	9e 87       	std	Y+14, r25	; 0x0e
    246a:	8d 87       	std	Y+13, r24	; 0x0d
    246c:	8b 8d       	ldd	r24, Y+27	; 0x1b
    246e:	9c 8d       	ldd	r25, Y+28	; 0x1c
    2470:	98 8f       	std	Y+24, r25	; 0x18
    2472:	8f 8b       	std	Y+23, r24	; 0x17
    2474:	8d 85       	ldd	r24, Y+13	; 0x0d
    2476:	9e 85       	ldd	r25, Y+14	; 0x0e
    2478:	9c 8f       	std	Y+28, r25	; 0x1c
    247a:	8b 8f       	std	Y+27, r24	; 0x1b
    247c:	29 8d       	ldd	r18, Y+25	; 0x19
    247e:	3a 8d       	ldd	r19, Y+26	; 0x1a
    2480:	8d 89       	ldd	r24, Y+21	; 0x15
    2482:	9e 89       	ldd	r25, Y+22	; 0x16
    2484:	d9 01       	movw	r26, r18
    2486:	a8 1b       	sub	r26, r24
    2488:	b9 0b       	sbc	r27, r25
    248a:	cd 01       	movw	r24, r26
    248c:	98 8b       	std	Y+16, r25	; 0x10
    248e:	8f 87       	std	Y+15, r24	; 0x0f
    2490:	2b 8d       	ldd	r18, Y+27	; 0x1b
    2492:	3c 8d       	ldd	r19, Y+28	; 0x1c
    2494:	8f 89       	ldd	r24, Y+23	; 0x17
    2496:	98 8d       	ldd	r25, Y+24	; 0x18
    2498:	f9 01       	movw	r30, r18
    249a:	e8 1b       	sub	r30, r24
    249c:	f9 0b       	sbc	r31, r25
    249e:	cf 01       	movw	r24, r30
    24a0:	99 23       	and	r25, r25
    24a2:	1c f4       	brge	.+6      	; 0x24aa <_ZN12Adafruit_GFX9writeLineEiiiij+0x120>
    24a4:	91 95       	neg	r25
    24a6:	81 95       	neg	r24
    24a8:	91 09       	sbc	r25, r1
    24aa:	9a 8b       	std	Y+18, r25	; 0x12
    24ac:	89 8b       	std	Y+17, r24	; 0x11
    24ae:	8f 85       	ldd	r24, Y+15	; 0x0f
    24b0:	98 89       	ldd	r25, Y+16	; 0x10
    24b2:	99 23       	and	r25, r25
    24b4:	0c f4       	brge	.+2      	; 0x24b8 <_ZN12Adafruit_GFX9writeLineEiiiij+0x12e>
    24b6:	01 96       	adiw	r24, 0x01	; 1
    24b8:	95 95       	asr	r25
    24ba:	87 95       	ror	r24
    24bc:	9a 83       	std	Y+2, r25	; 0x02
    24be:	89 83       	std	Y+1, r24	; 0x01
    24c0:	2f 89       	ldd	r18, Y+23	; 0x17
    24c2:	38 8d       	ldd	r19, Y+24	; 0x18
    24c4:	8b 8d       	ldd	r24, Y+27	; 0x1b
    24c6:	9c 8d       	ldd	r25, Y+28	; 0x1c
    24c8:	28 17       	cp	r18, r24
    24ca:	39 07       	cpc	r19, r25
    24cc:	2c f4       	brge	.+10     	; 0x24d8 <_ZN12Adafruit_GFX9writeLineEiiiij+0x14e>
    24ce:	81 e0       	ldi	r24, 0x01	; 1
    24d0:	90 e0       	ldi	r25, 0x00	; 0
    24d2:	9c 83       	std	Y+4, r25	; 0x04
    24d4:	8b 83       	std	Y+3, r24	; 0x03
    24d6:	04 c0       	rjmp	.+8      	; 0x24e0 <_ZN12Adafruit_GFX9writeLineEiiiij+0x156>
    24d8:	8f ef       	ldi	r24, 0xFF	; 255
    24da:	9f ef       	ldi	r25, 0xFF	; 255
    24dc:	9c 83       	std	Y+4, r25	; 0x04
    24de:	8b 83       	std	Y+3, r24	; 0x03
    24e0:	2d 89       	ldd	r18, Y+21	; 0x15
    24e2:	3e 89       	ldd	r19, Y+22	; 0x16
    24e4:	89 8d       	ldd	r24, Y+25	; 0x19
    24e6:	9a 8d       	ldd	r25, Y+26	; 0x1a
    24e8:	82 17       	cp	r24, r18
    24ea:	93 07       	cpc	r25, r19
    24ec:	0c f4       	brge	.+2      	; 0x24f0 <_ZN12Adafruit_GFX9writeLineEiiiij+0x166>
    24ee:	4d c0       	rjmp	.+154    	; 0x258a <_ZN12Adafruit_GFX9writeLineEiiiij+0x200>
    24f0:	8d 81       	ldd	r24, Y+5	; 0x05
    24f2:	9e 81       	ldd	r25, Y+6	; 0x06
    24f4:	89 2b       	or	r24, r25
    24f6:	99 f0       	breq	.+38     	; 0x251e <_ZN12Adafruit_GFX9writeLineEiiiij+0x194>
    24f8:	8b 89       	ldd	r24, Y+19	; 0x13
    24fa:	9c 89       	ldd	r25, Y+20	; 0x14
    24fc:	dc 01       	movw	r26, r24
    24fe:	8d 91       	ld	r24, X+
    2500:	9c 91       	ld	r25, X
    2502:	0c 96       	adiw	r24, 0x0c	; 12
    2504:	dc 01       	movw	r26, r24
    2506:	ed 91       	ld	r30, X+
    2508:	fc 91       	ld	r31, X
    250a:	2d 8d       	ldd	r18, Y+29	; 0x1d
    250c:	3e 8d       	ldd	r19, Y+30	; 0x1e
    250e:	4d 89       	ldd	r20, Y+21	; 0x15
    2510:	5e 89       	ldd	r21, Y+22	; 0x16
    2512:	6f 89       	ldd	r22, Y+23	; 0x17
    2514:	78 8d       	ldd	r23, Y+24	; 0x18
    2516:	8b 89       	ldd	r24, Y+19	; 0x13
    2518:	9c 89       	ldd	r25, Y+20	; 0x14
    251a:	19 95       	eicall
    251c:	12 c0       	rjmp	.+36     	; 0x2542 <_ZN12Adafruit_GFX9writeLineEiiiij+0x1b8>
    251e:	8b 89       	ldd	r24, Y+19	; 0x13
    2520:	9c 89       	ldd	r25, Y+20	; 0x14
    2522:	fc 01       	movw	r30, r24
    2524:	80 81       	ld	r24, Z
    2526:	91 81       	ldd	r25, Z+1	; 0x01
    2528:	0c 96       	adiw	r24, 0x0c	; 12
    252a:	dc 01       	movw	r26, r24
    252c:	ed 91       	ld	r30, X+
    252e:	fc 91       	ld	r31, X
    2530:	2d 8d       	ldd	r18, Y+29	; 0x1d
    2532:	3e 8d       	ldd	r19, Y+30	; 0x1e
    2534:	4f 89       	ldd	r20, Y+23	; 0x17
    2536:	58 8d       	ldd	r21, Y+24	; 0x18
    2538:	6d 89       	ldd	r22, Y+21	; 0x15
    253a:	7e 89       	ldd	r23, Y+22	; 0x16
    253c:	8b 89       	ldd	r24, Y+19	; 0x13
    253e:	9c 89       	ldd	r25, Y+20	; 0x14
    2540:	19 95       	eicall
    2542:	29 81       	ldd	r18, Y+1	; 0x01
    2544:	3a 81       	ldd	r19, Y+2	; 0x02
    2546:	89 89       	ldd	r24, Y+17	; 0x11
    2548:	9a 89       	ldd	r25, Y+18	; 0x12
    254a:	f9 01       	movw	r30, r18
    254c:	e8 1b       	sub	r30, r24
    254e:	f9 0b       	sbc	r31, r25
    2550:	cf 01       	movw	r24, r30
    2552:	9a 83       	std	Y+2, r25	; 0x02
    2554:	89 83       	std	Y+1, r24	; 0x01
    2556:	89 81       	ldd	r24, Y+1	; 0x01
    2558:	9a 81       	ldd	r25, Y+2	; 0x02
    255a:	99 23       	and	r25, r25
    255c:	84 f4       	brge	.+32     	; 0x257e <_ZN12Adafruit_GFX9writeLineEiiiij+0x1f4>
    255e:	2f 89       	ldd	r18, Y+23	; 0x17
    2560:	38 8d       	ldd	r19, Y+24	; 0x18
    2562:	8b 81       	ldd	r24, Y+3	; 0x03
    2564:	9c 81       	ldd	r25, Y+4	; 0x04
    2566:	82 0f       	add	r24, r18
    2568:	93 1f       	adc	r25, r19
    256a:	98 8f       	std	Y+24, r25	; 0x18
    256c:	8f 8b       	std	Y+23, r24	; 0x17
    256e:	29 81       	ldd	r18, Y+1	; 0x01
    2570:	3a 81       	ldd	r19, Y+2	; 0x02
    2572:	8f 85       	ldd	r24, Y+15	; 0x0f
    2574:	98 89       	ldd	r25, Y+16	; 0x10
    2576:	82 0f       	add	r24, r18
    2578:	93 1f       	adc	r25, r19
    257a:	9a 83       	std	Y+2, r25	; 0x02
    257c:	89 83       	std	Y+1, r24	; 0x01
    257e:	8d 89       	ldd	r24, Y+21	; 0x15
    2580:	9e 89       	ldd	r25, Y+22	; 0x16
    2582:	01 96       	adiw	r24, 0x01	; 1
    2584:	9e 8b       	std	Y+22, r25	; 0x16
    2586:	8d 8b       	std	Y+21, r24	; 0x15
    2588:	ab cf       	rjmp	.-170    	; 0x24e0 <_ZN12Adafruit_GFX9writeLineEiiiij+0x156>
    258a:	00 00       	nop
    258c:	6e 96       	adiw	r28, 0x1e	; 30
    258e:	0f b6       	in	r0, 0x3f	; 63
    2590:	f8 94       	cli
    2592:	de bf       	out	0x3e, r29	; 62
    2594:	0f be       	out	0x3f, r0	; 63
    2596:	cd bf       	out	0x3d, r28	; 61
    2598:	df 91       	pop	r29
    259a:	cf 91       	pop	r28
    259c:	1f 91       	pop	r17
    259e:	0f 91       	pop	r16
    25a0:	ff 90       	pop	r15
    25a2:	ef 90       	pop	r14
    25a4:	08 95       	ret

000025a6 <_ZN12Adafruit_GFX10startWriteEv>:
    25a6:	cf 93       	push	r28
    25a8:	df 93       	push	r29
    25aa:	1f 92       	push	r1
    25ac:	1f 92       	push	r1
    25ae:	cd b7       	in	r28, 0x3d	; 61
    25b0:	de b7       	in	r29, 0x3e	; 62
    25b2:	9a 83       	std	Y+2, r25	; 0x02
    25b4:	89 83       	std	Y+1, r24	; 0x01
    25b6:	00 00       	nop
    25b8:	0f 90       	pop	r0
    25ba:	0f 90       	pop	r0
    25bc:	df 91       	pop	r29
    25be:	cf 91       	pop	r28
    25c0:	08 95       	ret

000025c2 <_ZN12Adafruit_GFX10writePixelEiij>:
    25c2:	cf 93       	push	r28
    25c4:	df 93       	push	r29
    25c6:	cd b7       	in	r28, 0x3d	; 61
    25c8:	de b7       	in	r29, 0x3e	; 62
    25ca:	28 97       	sbiw	r28, 0x08	; 8
    25cc:	0f b6       	in	r0, 0x3f	; 63
    25ce:	f8 94       	cli
    25d0:	de bf       	out	0x3e, r29	; 62
    25d2:	0f be       	out	0x3f, r0	; 63
    25d4:	cd bf       	out	0x3d, r28	; 61
    25d6:	9a 83       	std	Y+2, r25	; 0x02
    25d8:	89 83       	std	Y+1, r24	; 0x01
    25da:	7c 83       	std	Y+4, r23	; 0x04
    25dc:	6b 83       	std	Y+3, r22	; 0x03
    25de:	5e 83       	std	Y+6, r21	; 0x06
    25e0:	4d 83       	std	Y+5, r20	; 0x05
    25e2:	38 87       	std	Y+8, r19	; 0x08
    25e4:	2f 83       	std	Y+7, r18	; 0x07
    25e6:	89 81       	ldd	r24, Y+1	; 0x01
    25e8:	9a 81       	ldd	r25, Y+2	; 0x02
    25ea:	dc 01       	movw	r26, r24
    25ec:	8d 91       	ld	r24, X+
    25ee:	9c 91       	ld	r25, X
    25f0:	08 96       	adiw	r24, 0x08	; 8
    25f2:	dc 01       	movw	r26, r24
    25f4:	ed 91       	ld	r30, X+
    25f6:	fc 91       	ld	r31, X
    25f8:	2f 81       	ldd	r18, Y+7	; 0x07
    25fa:	38 85       	ldd	r19, Y+8	; 0x08
    25fc:	4d 81       	ldd	r20, Y+5	; 0x05
    25fe:	5e 81       	ldd	r21, Y+6	; 0x06
    2600:	6b 81       	ldd	r22, Y+3	; 0x03
    2602:	7c 81       	ldd	r23, Y+4	; 0x04
    2604:	89 81       	ldd	r24, Y+1	; 0x01
    2606:	9a 81       	ldd	r25, Y+2	; 0x02
    2608:	19 95       	eicall
    260a:	00 00       	nop
    260c:	28 96       	adiw	r28, 0x08	; 8
    260e:	0f b6       	in	r0, 0x3f	; 63
    2610:	f8 94       	cli
    2612:	de bf       	out	0x3e, r29	; 62
    2614:	0f be       	out	0x3f, r0	; 63
    2616:	cd bf       	out	0x3d, r28	; 61
    2618:	df 91       	pop	r29
    261a:	cf 91       	pop	r28
    261c:	08 95       	ret

0000261e <_ZN12Adafruit_GFX14writeFastVLineEiiij>:
    261e:	0f 93       	push	r16
    2620:	1f 93       	push	r17
    2622:	cf 93       	push	r28
    2624:	df 93       	push	r29
    2626:	cd b7       	in	r28, 0x3d	; 61
    2628:	de b7       	in	r29, 0x3e	; 62
    262a:	2a 97       	sbiw	r28, 0x0a	; 10
    262c:	0f b6       	in	r0, 0x3f	; 63
    262e:	f8 94       	cli
    2630:	de bf       	out	0x3e, r29	; 62
    2632:	0f be       	out	0x3f, r0	; 63
    2634:	cd bf       	out	0x3d, r28	; 61
    2636:	9a 83       	std	Y+2, r25	; 0x02
    2638:	89 83       	std	Y+1, r24	; 0x01
    263a:	7c 83       	std	Y+4, r23	; 0x04
    263c:	6b 83       	std	Y+3, r22	; 0x03
    263e:	5e 83       	std	Y+6, r21	; 0x06
    2640:	4d 83       	std	Y+5, r20	; 0x05
    2642:	38 87       	std	Y+8, r19	; 0x08
    2644:	2f 83       	std	Y+7, r18	; 0x07
    2646:	1a 87       	std	Y+10, r17	; 0x0a
    2648:	09 87       	std	Y+9, r16	; 0x09
    264a:	89 81       	ldd	r24, Y+1	; 0x01
    264c:	9a 81       	ldd	r25, Y+2	; 0x02
    264e:	dc 01       	movw	r26, r24
    2650:	8d 91       	ld	r24, X+
    2652:	9c 91       	ld	r25, X
    2654:	4c 96       	adiw	r24, 0x1c	; 28
    2656:	dc 01       	movw	r26, r24
    2658:	ed 91       	ld	r30, X+
    265a:	fc 91       	ld	r31, X
    265c:	a9 85       	ldd	r26, Y+9	; 0x09
    265e:	ba 85       	ldd	r27, Y+10	; 0x0a
    2660:	2f 81       	ldd	r18, Y+7	; 0x07
    2662:	38 85       	ldd	r19, Y+8	; 0x08
    2664:	4d 81       	ldd	r20, Y+5	; 0x05
    2666:	5e 81       	ldd	r21, Y+6	; 0x06
    2668:	6b 81       	ldd	r22, Y+3	; 0x03
    266a:	7c 81       	ldd	r23, Y+4	; 0x04
    266c:	89 81       	ldd	r24, Y+1	; 0x01
    266e:	9a 81       	ldd	r25, Y+2	; 0x02
    2670:	8d 01       	movw	r16, r26
    2672:	19 95       	eicall
    2674:	00 00       	nop
    2676:	2a 96       	adiw	r28, 0x0a	; 10
    2678:	0f b6       	in	r0, 0x3f	; 63
    267a:	f8 94       	cli
    267c:	de bf       	out	0x3e, r29	; 62
    267e:	0f be       	out	0x3f, r0	; 63
    2680:	cd bf       	out	0x3d, r28	; 61
    2682:	df 91       	pop	r29
    2684:	cf 91       	pop	r28
    2686:	1f 91       	pop	r17
    2688:	0f 91       	pop	r16
    268a:	08 95       	ret

0000268c <_ZN12Adafruit_GFX14writeFastHLineEiiij>:
    268c:	0f 93       	push	r16
    268e:	1f 93       	push	r17
    2690:	cf 93       	push	r28
    2692:	df 93       	push	r29
    2694:	cd b7       	in	r28, 0x3d	; 61
    2696:	de b7       	in	r29, 0x3e	; 62
    2698:	2a 97       	sbiw	r28, 0x0a	; 10
    269a:	0f b6       	in	r0, 0x3f	; 63
    269c:	f8 94       	cli
    269e:	de bf       	out	0x3e, r29	; 62
    26a0:	0f be       	out	0x3f, r0	; 63
    26a2:	cd bf       	out	0x3d, r28	; 61
    26a4:	9a 83       	std	Y+2, r25	; 0x02
    26a6:	89 83       	std	Y+1, r24	; 0x01
    26a8:	7c 83       	std	Y+4, r23	; 0x04
    26aa:	6b 83       	std	Y+3, r22	; 0x03
    26ac:	5e 83       	std	Y+6, r21	; 0x06
    26ae:	4d 83       	std	Y+5, r20	; 0x05
    26b0:	38 87       	std	Y+8, r19	; 0x08
    26b2:	2f 83       	std	Y+7, r18	; 0x07
    26b4:	1a 87       	std	Y+10, r17	; 0x0a
    26b6:	09 87       	std	Y+9, r16	; 0x09
    26b8:	89 81       	ldd	r24, Y+1	; 0x01
    26ba:	9a 81       	ldd	r25, Y+2	; 0x02
    26bc:	dc 01       	movw	r26, r24
    26be:	8d 91       	ld	r24, X+
    26c0:	9c 91       	ld	r25, X
    26c2:	4e 96       	adiw	r24, 0x1e	; 30
    26c4:	dc 01       	movw	r26, r24
    26c6:	ed 91       	ld	r30, X+
    26c8:	fc 91       	ld	r31, X
    26ca:	a9 85       	ldd	r26, Y+9	; 0x09
    26cc:	ba 85       	ldd	r27, Y+10	; 0x0a
    26ce:	2f 81       	ldd	r18, Y+7	; 0x07
    26d0:	38 85       	ldd	r19, Y+8	; 0x08
    26d2:	4d 81       	ldd	r20, Y+5	; 0x05
    26d4:	5e 81       	ldd	r21, Y+6	; 0x06
    26d6:	6b 81       	ldd	r22, Y+3	; 0x03
    26d8:	7c 81       	ldd	r23, Y+4	; 0x04
    26da:	89 81       	ldd	r24, Y+1	; 0x01
    26dc:	9a 81       	ldd	r25, Y+2	; 0x02
    26de:	8d 01       	movw	r16, r26
    26e0:	19 95       	eicall
    26e2:	00 00       	nop
    26e4:	2a 96       	adiw	r28, 0x0a	; 10
    26e6:	0f b6       	in	r0, 0x3f	; 63
    26e8:	f8 94       	cli
    26ea:	de bf       	out	0x3e, r29	; 62
    26ec:	0f be       	out	0x3f, r0	; 63
    26ee:	cd bf       	out	0x3d, r28	; 61
    26f0:	df 91       	pop	r29
    26f2:	cf 91       	pop	r28
    26f4:	1f 91       	pop	r17
    26f6:	0f 91       	pop	r16
    26f8:	08 95       	ret

000026fa <_ZN12Adafruit_GFX13writeFillRectEiiiij>:
    26fa:	ef 92       	push	r14
    26fc:	ff 92       	push	r15
    26fe:	0f 93       	push	r16
    2700:	1f 93       	push	r17
    2702:	cf 93       	push	r28
    2704:	df 93       	push	r29
    2706:	cd b7       	in	r28, 0x3d	; 61
    2708:	de b7       	in	r29, 0x3e	; 62
    270a:	2c 97       	sbiw	r28, 0x0c	; 12
    270c:	0f b6       	in	r0, 0x3f	; 63
    270e:	f8 94       	cli
    2710:	de bf       	out	0x3e, r29	; 62
    2712:	0f be       	out	0x3f, r0	; 63
    2714:	cd bf       	out	0x3d, r28	; 61
    2716:	9a 83       	std	Y+2, r25	; 0x02
    2718:	89 83       	std	Y+1, r24	; 0x01
    271a:	7c 83       	std	Y+4, r23	; 0x04
    271c:	6b 83       	std	Y+3, r22	; 0x03
    271e:	5e 83       	std	Y+6, r21	; 0x06
    2720:	4d 83       	std	Y+5, r20	; 0x05
    2722:	38 87       	std	Y+8, r19	; 0x08
    2724:	2f 83       	std	Y+7, r18	; 0x07
    2726:	1a 87       	std	Y+10, r17	; 0x0a
    2728:	09 87       	std	Y+9, r16	; 0x09
    272a:	fc 86       	std	Y+12, r15	; 0x0c
    272c:	eb 86       	std	Y+11, r14	; 0x0b
    272e:	89 81       	ldd	r24, Y+1	; 0x01
    2730:	9a 81       	ldd	r25, Y+2	; 0x02
    2732:	dc 01       	movw	r26, r24
    2734:	8d 91       	ld	r24, X+
    2736:	9c 91       	ld	r25, X
    2738:	80 96       	adiw	r24, 0x20	; 32
    273a:	dc 01       	movw	r26, r24
    273c:	ed 91       	ld	r30, X+
    273e:	fc 91       	ld	r31, X
    2740:	0b 85       	ldd	r16, Y+11	; 0x0b
    2742:	1c 85       	ldd	r17, Y+12	; 0x0c
    2744:	a9 85       	ldd	r26, Y+9	; 0x09
    2746:	ba 85       	ldd	r27, Y+10	; 0x0a
    2748:	2f 81       	ldd	r18, Y+7	; 0x07
    274a:	38 85       	ldd	r19, Y+8	; 0x08
    274c:	4d 81       	ldd	r20, Y+5	; 0x05
    274e:	5e 81       	ldd	r21, Y+6	; 0x06
    2750:	6b 81       	ldd	r22, Y+3	; 0x03
    2752:	7c 81       	ldd	r23, Y+4	; 0x04
    2754:	89 81       	ldd	r24, Y+1	; 0x01
    2756:	9a 81       	ldd	r25, Y+2	; 0x02
    2758:	78 01       	movw	r14, r16
    275a:	8d 01       	movw	r16, r26
    275c:	19 95       	eicall
    275e:	00 00       	nop
    2760:	2c 96       	adiw	r28, 0x0c	; 12
    2762:	0f b6       	in	r0, 0x3f	; 63
    2764:	f8 94       	cli
    2766:	de bf       	out	0x3e, r29	; 62
    2768:	0f be       	out	0x3f, r0	; 63
    276a:	cd bf       	out	0x3d, r28	; 61
    276c:	df 91       	pop	r29
    276e:	cf 91       	pop	r28
    2770:	1f 91       	pop	r17
    2772:	0f 91       	pop	r16
    2774:	ff 90       	pop	r15
    2776:	ef 90       	pop	r14
    2778:	08 95       	ret

0000277a <_ZN12Adafruit_GFX8endWriteEv>:
    277a:	cf 93       	push	r28
    277c:	df 93       	push	r29
    277e:	1f 92       	push	r1
    2780:	1f 92       	push	r1
    2782:	cd b7       	in	r28, 0x3d	; 61
    2784:	de b7       	in	r29, 0x3e	; 62
    2786:	9a 83       	std	Y+2, r25	; 0x02
    2788:	89 83       	std	Y+1, r24	; 0x01
    278a:	00 00       	nop
    278c:	0f 90       	pop	r0
    278e:	0f 90       	pop	r0
    2790:	df 91       	pop	r29
    2792:	cf 91       	pop	r28
    2794:	08 95       	ret

00002796 <_ZN12Adafruit_GFX13drawFastVLineEiiij>:
    2796:	ef 92       	push	r14
    2798:	ff 92       	push	r15
    279a:	0f 93       	push	r16
    279c:	1f 93       	push	r17
    279e:	cf 93       	push	r28
    27a0:	df 93       	push	r29
    27a2:	cd b7       	in	r28, 0x3d	; 61
    27a4:	de b7       	in	r29, 0x3e	; 62
    27a6:	2a 97       	sbiw	r28, 0x0a	; 10
    27a8:	0f b6       	in	r0, 0x3f	; 63
    27aa:	f8 94       	cli
    27ac:	de bf       	out	0x3e, r29	; 62
    27ae:	0f be       	out	0x3f, r0	; 63
    27b0:	cd bf       	out	0x3d, r28	; 61
    27b2:	9a 83       	std	Y+2, r25	; 0x02
    27b4:	89 83       	std	Y+1, r24	; 0x01
    27b6:	7c 83       	std	Y+4, r23	; 0x04
    27b8:	6b 83       	std	Y+3, r22	; 0x03
    27ba:	5e 83       	std	Y+6, r21	; 0x06
    27bc:	4d 83       	std	Y+5, r20	; 0x05
    27be:	38 87       	std	Y+8, r19	; 0x08
    27c0:	2f 83       	std	Y+7, r18	; 0x07
    27c2:	1a 87       	std	Y+10, r17	; 0x0a
    27c4:	09 87       	std	Y+9, r16	; 0x09
    27c6:	89 81       	ldd	r24, Y+1	; 0x01
    27c8:	9a 81       	ldd	r25, Y+2	; 0x02
    27ca:	dc 01       	movw	r26, r24
    27cc:	8d 91       	ld	r24, X+
    27ce:	9c 91       	ld	r25, X
    27d0:	0a 96       	adiw	r24, 0x0a	; 10
    27d2:	fc 01       	movw	r30, r24
    27d4:	20 81       	ld	r18, Z
    27d6:	31 81       	ldd	r19, Z+1	; 0x01
    27d8:	89 81       	ldd	r24, Y+1	; 0x01
    27da:	9a 81       	ldd	r25, Y+2	; 0x02
    27dc:	f9 01       	movw	r30, r18
    27de:	19 95       	eicall
    27e0:	89 81       	ldd	r24, Y+1	; 0x01
    27e2:	9a 81       	ldd	r25, Y+2	; 0x02
    27e4:	dc 01       	movw	r26, r24
    27e6:	8d 91       	ld	r24, X+
    27e8:	9c 91       	ld	r25, X
    27ea:	44 96       	adiw	r24, 0x14	; 20
    27ec:	dc 01       	movw	r26, r24
    27ee:	ed 91       	ld	r30, X+
    27f0:	fc 91       	ld	r31, X
    27f2:	2d 81       	ldd	r18, Y+5	; 0x05
    27f4:	3e 81       	ldd	r19, Y+6	; 0x06
    27f6:	8f 81       	ldd	r24, Y+7	; 0x07
    27f8:	98 85       	ldd	r25, Y+8	; 0x08
    27fa:	82 0f       	add	r24, r18
    27fc:	93 1f       	adc	r25, r19
    27fe:	dc 01       	movw	r26, r24
    2800:	11 97       	sbiw	r26, 0x01	; 1
    2802:	09 85       	ldd	r16, Y+9	; 0x09
    2804:	1a 85       	ldd	r17, Y+10	; 0x0a
    2806:	2b 81       	ldd	r18, Y+3	; 0x03
    2808:	3c 81       	ldd	r19, Y+4	; 0x04
    280a:	4d 81       	ldd	r20, Y+5	; 0x05
    280c:	5e 81       	ldd	r21, Y+6	; 0x06
    280e:	6b 81       	ldd	r22, Y+3	; 0x03
    2810:	7c 81       	ldd	r23, Y+4	; 0x04
    2812:	89 81       	ldd	r24, Y+1	; 0x01
    2814:	9a 81       	ldd	r25, Y+2	; 0x02
    2816:	78 01       	movw	r14, r16
    2818:	8d 01       	movw	r16, r26
    281a:	19 95       	eicall
    281c:	89 81       	ldd	r24, Y+1	; 0x01
    281e:	9a 81       	ldd	r25, Y+2	; 0x02
    2820:	fc 01       	movw	r30, r24
    2822:	80 81       	ld	r24, Z
    2824:	91 81       	ldd	r25, Z+1	; 0x01
    2826:	46 96       	adiw	r24, 0x16	; 22
    2828:	dc 01       	movw	r26, r24
    282a:	2d 91       	ld	r18, X+
    282c:	3c 91       	ld	r19, X
    282e:	89 81       	ldd	r24, Y+1	; 0x01
    2830:	9a 81       	ldd	r25, Y+2	; 0x02
    2832:	f9 01       	movw	r30, r18
    2834:	19 95       	eicall
    2836:	00 00       	nop
    2838:	2a 96       	adiw	r28, 0x0a	; 10
    283a:	0f b6       	in	r0, 0x3f	; 63
    283c:	f8 94       	cli
    283e:	de bf       	out	0x3e, r29	; 62
    2840:	0f be       	out	0x3f, r0	; 63
    2842:	cd bf       	out	0x3d, r28	; 61
    2844:	df 91       	pop	r29
    2846:	cf 91       	pop	r28
    2848:	1f 91       	pop	r17
    284a:	0f 91       	pop	r16
    284c:	ff 90       	pop	r15
    284e:	ef 90       	pop	r14
    2850:	08 95       	ret

00002852 <_ZN12Adafruit_GFX13drawFastHLineEiiij>:
    2852:	ef 92       	push	r14
    2854:	ff 92       	push	r15
    2856:	0f 93       	push	r16
    2858:	1f 93       	push	r17
    285a:	cf 93       	push	r28
    285c:	df 93       	push	r29
    285e:	cd b7       	in	r28, 0x3d	; 61
    2860:	de b7       	in	r29, 0x3e	; 62
    2862:	2a 97       	sbiw	r28, 0x0a	; 10
    2864:	0f b6       	in	r0, 0x3f	; 63
    2866:	f8 94       	cli
    2868:	de bf       	out	0x3e, r29	; 62
    286a:	0f be       	out	0x3f, r0	; 63
    286c:	cd bf       	out	0x3d, r28	; 61
    286e:	9a 83       	std	Y+2, r25	; 0x02
    2870:	89 83       	std	Y+1, r24	; 0x01
    2872:	7c 83       	std	Y+4, r23	; 0x04
    2874:	6b 83       	std	Y+3, r22	; 0x03
    2876:	5e 83       	std	Y+6, r21	; 0x06
    2878:	4d 83       	std	Y+5, r20	; 0x05
    287a:	38 87       	std	Y+8, r19	; 0x08
    287c:	2f 83       	std	Y+7, r18	; 0x07
    287e:	1a 87       	std	Y+10, r17	; 0x0a
    2880:	09 87       	std	Y+9, r16	; 0x09
    2882:	89 81       	ldd	r24, Y+1	; 0x01
    2884:	9a 81       	ldd	r25, Y+2	; 0x02
    2886:	dc 01       	movw	r26, r24
    2888:	8d 91       	ld	r24, X+
    288a:	9c 91       	ld	r25, X
    288c:	0a 96       	adiw	r24, 0x0a	; 10
    288e:	fc 01       	movw	r30, r24
    2890:	20 81       	ld	r18, Z
    2892:	31 81       	ldd	r19, Z+1	; 0x01
    2894:	89 81       	ldd	r24, Y+1	; 0x01
    2896:	9a 81       	ldd	r25, Y+2	; 0x02
    2898:	f9 01       	movw	r30, r18
    289a:	19 95       	eicall
    289c:	89 81       	ldd	r24, Y+1	; 0x01
    289e:	9a 81       	ldd	r25, Y+2	; 0x02
    28a0:	dc 01       	movw	r26, r24
    28a2:	8d 91       	ld	r24, X+
    28a4:	9c 91       	ld	r25, X
    28a6:	44 96       	adiw	r24, 0x14	; 20
    28a8:	dc 01       	movw	r26, r24
    28aa:	ed 91       	ld	r30, X+
    28ac:	fc 91       	ld	r31, X
    28ae:	2b 81       	ldd	r18, Y+3	; 0x03
    28b0:	3c 81       	ldd	r19, Y+4	; 0x04
    28b2:	8f 81       	ldd	r24, Y+7	; 0x07
    28b4:	98 85       	ldd	r25, Y+8	; 0x08
    28b6:	82 0f       	add	r24, r18
    28b8:	93 1f       	adc	r25, r19
    28ba:	9c 01       	movw	r18, r24
    28bc:	21 50       	subi	r18, 0x01	; 1
    28be:	31 09       	sbc	r19, r1
    28c0:	09 85       	ldd	r16, Y+9	; 0x09
    28c2:	1a 85       	ldd	r17, Y+10	; 0x0a
    28c4:	ad 81       	ldd	r26, Y+5	; 0x05
    28c6:	be 81       	ldd	r27, Y+6	; 0x06
    28c8:	4d 81       	ldd	r20, Y+5	; 0x05
    28ca:	5e 81       	ldd	r21, Y+6	; 0x06
    28cc:	6b 81       	ldd	r22, Y+3	; 0x03
    28ce:	7c 81       	ldd	r23, Y+4	; 0x04
    28d0:	89 81       	ldd	r24, Y+1	; 0x01
    28d2:	9a 81       	ldd	r25, Y+2	; 0x02
    28d4:	78 01       	movw	r14, r16
    28d6:	8d 01       	movw	r16, r26
    28d8:	19 95       	eicall
    28da:	89 81       	ldd	r24, Y+1	; 0x01
    28dc:	9a 81       	ldd	r25, Y+2	; 0x02
    28de:	fc 01       	movw	r30, r24
    28e0:	80 81       	ld	r24, Z
    28e2:	91 81       	ldd	r25, Z+1	; 0x01
    28e4:	46 96       	adiw	r24, 0x16	; 22
    28e6:	dc 01       	movw	r26, r24
    28e8:	2d 91       	ld	r18, X+
    28ea:	3c 91       	ld	r19, X
    28ec:	89 81       	ldd	r24, Y+1	; 0x01
    28ee:	9a 81       	ldd	r25, Y+2	; 0x02
    28f0:	f9 01       	movw	r30, r18
    28f2:	19 95       	eicall
    28f4:	00 00       	nop
    28f6:	2a 96       	adiw	r28, 0x0a	; 10
    28f8:	0f b6       	in	r0, 0x3f	; 63
    28fa:	f8 94       	cli
    28fc:	de bf       	out	0x3e, r29	; 62
    28fe:	0f be       	out	0x3f, r0	; 63
    2900:	cd bf       	out	0x3d, r28	; 61
    2902:	df 91       	pop	r29
    2904:	cf 91       	pop	r28
    2906:	1f 91       	pop	r17
    2908:	0f 91       	pop	r16
    290a:	ff 90       	pop	r15
    290c:	ef 90       	pop	r14
    290e:	08 95       	ret

00002910 <_ZN12Adafruit_GFX8fillRectEiiiij>:
    2910:	ef 92       	push	r14
    2912:	ff 92       	push	r15
    2914:	0f 93       	push	r16
    2916:	1f 93       	push	r17
    2918:	cf 93       	push	r28
    291a:	df 93       	push	r29
    291c:	cd b7       	in	r28, 0x3d	; 61
    291e:	de b7       	in	r29, 0x3e	; 62
    2920:	2e 97       	sbiw	r28, 0x0e	; 14
    2922:	0f b6       	in	r0, 0x3f	; 63
    2924:	f8 94       	cli
    2926:	de bf       	out	0x3e, r29	; 62
    2928:	0f be       	out	0x3f, r0	; 63
    292a:	cd bf       	out	0x3d, r28	; 61
    292c:	9c 83       	std	Y+4, r25	; 0x04
    292e:	8b 83       	std	Y+3, r24	; 0x03
    2930:	7e 83       	std	Y+6, r23	; 0x06
    2932:	6d 83       	std	Y+5, r22	; 0x05
    2934:	58 87       	std	Y+8, r21	; 0x08
    2936:	4f 83       	std	Y+7, r20	; 0x07
    2938:	3a 87       	std	Y+10, r19	; 0x0a
    293a:	29 87       	std	Y+9, r18	; 0x09
    293c:	1c 87       	std	Y+12, r17	; 0x0c
    293e:	0b 87       	std	Y+11, r16	; 0x0b
    2940:	fe 86       	std	Y+14, r15	; 0x0e
    2942:	ed 86       	std	Y+13, r14	; 0x0d
    2944:	8b 81       	ldd	r24, Y+3	; 0x03
    2946:	9c 81       	ldd	r25, Y+4	; 0x04
    2948:	dc 01       	movw	r26, r24
    294a:	8d 91       	ld	r24, X+
    294c:	9c 91       	ld	r25, X
    294e:	0a 96       	adiw	r24, 0x0a	; 10
    2950:	fc 01       	movw	r30, r24
    2952:	20 81       	ld	r18, Z
    2954:	31 81       	ldd	r19, Z+1	; 0x01
    2956:	8b 81       	ldd	r24, Y+3	; 0x03
    2958:	9c 81       	ldd	r25, Y+4	; 0x04
    295a:	f9 01       	movw	r30, r18
    295c:	19 95       	eicall
    295e:	8d 81       	ldd	r24, Y+5	; 0x05
    2960:	9e 81       	ldd	r25, Y+6	; 0x06
    2962:	9a 83       	std	Y+2, r25	; 0x02
    2964:	89 83       	std	Y+1, r24	; 0x01
    2966:	2d 81       	ldd	r18, Y+5	; 0x05
    2968:	3e 81       	ldd	r19, Y+6	; 0x06
    296a:	89 85       	ldd	r24, Y+9	; 0x09
    296c:	9a 85       	ldd	r25, Y+10	; 0x0a
    296e:	28 0f       	add	r18, r24
    2970:	39 1f       	adc	r19, r25
    2972:	89 81       	ldd	r24, Y+1	; 0x01
    2974:	9a 81       	ldd	r25, Y+2	; 0x02
    2976:	82 17       	cp	r24, r18
    2978:	93 07       	cpc	r25, r19
    297a:	dc f4       	brge	.+54     	; 0x29b2 <_ZN12Adafruit_GFX8fillRectEiiiij+0xa2>
    297c:	8b 81       	ldd	r24, Y+3	; 0x03
    297e:	9c 81       	ldd	r25, Y+4	; 0x04
    2980:	dc 01       	movw	r26, r24
    2982:	8d 91       	ld	r24, X+
    2984:	9c 91       	ld	r25, X
    2986:	40 96       	adiw	r24, 0x10	; 16
    2988:	dc 01       	movw	r26, r24
    298a:	ed 91       	ld	r30, X+
    298c:	fc 91       	ld	r31, X
    298e:	ad 85       	ldd	r26, Y+13	; 0x0d
    2990:	be 85       	ldd	r27, Y+14	; 0x0e
    2992:	2b 85       	ldd	r18, Y+11	; 0x0b
    2994:	3c 85       	ldd	r19, Y+12	; 0x0c
    2996:	4f 81       	ldd	r20, Y+7	; 0x07
    2998:	58 85       	ldd	r21, Y+8	; 0x08
    299a:	69 81       	ldd	r22, Y+1	; 0x01
    299c:	7a 81       	ldd	r23, Y+2	; 0x02
    299e:	8b 81       	ldd	r24, Y+3	; 0x03
    29a0:	9c 81       	ldd	r25, Y+4	; 0x04
    29a2:	8d 01       	movw	r16, r26
    29a4:	19 95       	eicall
    29a6:	89 81       	ldd	r24, Y+1	; 0x01
    29a8:	9a 81       	ldd	r25, Y+2	; 0x02
    29aa:	01 96       	adiw	r24, 0x01	; 1
    29ac:	9a 83       	std	Y+2, r25	; 0x02
    29ae:	89 83       	std	Y+1, r24	; 0x01
    29b0:	da cf       	rjmp	.-76     	; 0x2966 <_ZN12Adafruit_GFX8fillRectEiiiij+0x56>
    29b2:	8b 81       	ldd	r24, Y+3	; 0x03
    29b4:	9c 81       	ldd	r25, Y+4	; 0x04
    29b6:	fc 01       	movw	r30, r24
    29b8:	80 81       	ld	r24, Z
    29ba:	91 81       	ldd	r25, Z+1	; 0x01
    29bc:	46 96       	adiw	r24, 0x16	; 22
    29be:	dc 01       	movw	r26, r24
    29c0:	2d 91       	ld	r18, X+
    29c2:	3c 91       	ld	r19, X
    29c4:	8b 81       	ldd	r24, Y+3	; 0x03
    29c6:	9c 81       	ldd	r25, Y+4	; 0x04
    29c8:	f9 01       	movw	r30, r18
    29ca:	19 95       	eicall
    29cc:	00 00       	nop
    29ce:	2e 96       	adiw	r28, 0x0e	; 14
    29d0:	0f b6       	in	r0, 0x3f	; 63
    29d2:	f8 94       	cli
    29d4:	de bf       	out	0x3e, r29	; 62
    29d6:	0f be       	out	0x3f, r0	; 63
    29d8:	cd bf       	out	0x3d, r28	; 61
    29da:	df 91       	pop	r29
    29dc:	cf 91       	pop	r28
    29de:	1f 91       	pop	r17
    29e0:	0f 91       	pop	r16
    29e2:	ff 90       	pop	r15
    29e4:	ef 90       	pop	r14
    29e6:	08 95       	ret

000029e8 <_ZN12Adafruit_GFX10fillScreenEj>:
    29e8:	ef 92       	push	r14
    29ea:	ff 92       	push	r15
    29ec:	0f 93       	push	r16
    29ee:	1f 93       	push	r17
    29f0:	cf 93       	push	r28
    29f2:	df 93       	push	r29
    29f4:	00 d0       	rcall	.+0      	; 0x29f6 <_ZN12Adafruit_GFX10fillScreenEj+0xe>
    29f6:	1f 92       	push	r1
    29f8:	cd b7       	in	r28, 0x3d	; 61
    29fa:	de b7       	in	r29, 0x3e	; 62
    29fc:	9a 83       	std	Y+2, r25	; 0x02
    29fe:	89 83       	std	Y+1, r24	; 0x01
    2a00:	7c 83       	std	Y+4, r23	; 0x04
    2a02:	6b 83       	std	Y+3, r22	; 0x03
    2a04:	89 81       	ldd	r24, Y+1	; 0x01
    2a06:	9a 81       	ldd	r25, Y+2	; 0x02
    2a08:	dc 01       	movw	r26, r24
    2a0a:	8d 91       	ld	r24, X+
    2a0c:	9c 91       	ld	r25, X
    2a0e:	80 96       	adiw	r24, 0x20	; 32
    2a10:	dc 01       	movw	r26, r24
    2a12:	ed 91       	ld	r30, X+
    2a14:	fc 91       	ld	r31, X
    2a16:	89 81       	ldd	r24, Y+1	; 0x01
    2a18:	9a 81       	ldd	r25, Y+2	; 0x02
    2a1a:	dc 01       	movw	r26, r24
    2a1c:	1a 96       	adiw	r26, 0x0a	; 10
    2a1e:	4d 91       	ld	r20, X+
    2a20:	5c 91       	ld	r21, X
    2a22:	1b 97       	sbiw	r26, 0x0b	; 11
    2a24:	89 81       	ldd	r24, Y+1	; 0x01
    2a26:	9a 81       	ldd	r25, Y+2	; 0x02
    2a28:	dc 01       	movw	r26, r24
    2a2a:	18 96       	adiw	r26, 0x08	; 8
    2a2c:	2d 91       	ld	r18, X+
    2a2e:	3c 91       	ld	r19, X
    2a30:	19 97       	sbiw	r26, 0x09	; 9
    2a32:	6b 81       	ldd	r22, Y+3	; 0x03
    2a34:	7c 81       	ldd	r23, Y+4	; 0x04
    2a36:	89 81       	ldd	r24, Y+1	; 0x01
    2a38:	9a 81       	ldd	r25, Y+2	; 0x02
    2a3a:	7b 01       	movw	r14, r22
    2a3c:	8a 01       	movw	r16, r20
    2a3e:	40 e0       	ldi	r20, 0x00	; 0
    2a40:	50 e0       	ldi	r21, 0x00	; 0
    2a42:	60 e0       	ldi	r22, 0x00	; 0
    2a44:	70 e0       	ldi	r23, 0x00	; 0
    2a46:	19 95       	eicall
    2a48:	00 00       	nop
    2a4a:	0f 90       	pop	r0
    2a4c:	0f 90       	pop	r0
    2a4e:	0f 90       	pop	r0
    2a50:	0f 90       	pop	r0
    2a52:	df 91       	pop	r29
    2a54:	cf 91       	pop	r28
    2a56:	1f 91       	pop	r17
    2a58:	0f 91       	pop	r16
    2a5a:	ff 90       	pop	r15
    2a5c:	ef 90       	pop	r14
    2a5e:	08 95       	ret

00002a60 <_ZN12Adafruit_GFX8drawLineEiiiij>:
    2a60:	ef 92       	push	r14
    2a62:	ff 92       	push	r15
    2a64:	0f 93       	push	r16
    2a66:	1f 93       	push	r17
    2a68:	cf 93       	push	r28
    2a6a:	df 93       	push	r29
    2a6c:	cd b7       	in	r28, 0x3d	; 61
    2a6e:	de b7       	in	r29, 0x3e	; 62
    2a70:	60 97       	sbiw	r28, 0x10	; 16
    2a72:	0f b6       	in	r0, 0x3f	; 63
    2a74:	f8 94       	cli
    2a76:	de bf       	out	0x3e, r29	; 62
    2a78:	0f be       	out	0x3f, r0	; 63
    2a7a:	cd bf       	out	0x3d, r28	; 61
    2a7c:	9e 83       	std	Y+6, r25	; 0x06
    2a7e:	8d 83       	std	Y+5, r24	; 0x05
    2a80:	78 87       	std	Y+8, r23	; 0x08
    2a82:	6f 83       	std	Y+7, r22	; 0x07
    2a84:	5a 87       	std	Y+10, r21	; 0x0a
    2a86:	49 87       	std	Y+9, r20	; 0x09
    2a88:	3c 87       	std	Y+12, r19	; 0x0c
    2a8a:	2b 87       	std	Y+11, r18	; 0x0b
    2a8c:	1e 87       	std	Y+14, r17	; 0x0e
    2a8e:	0d 87       	std	Y+13, r16	; 0x0d
    2a90:	f8 8a       	std	Y+16, r15	; 0x10
    2a92:	ef 86       	std	Y+15, r14	; 0x0f
    2a94:	2f 81       	ldd	r18, Y+7	; 0x07
    2a96:	38 85       	ldd	r19, Y+8	; 0x08
    2a98:	8b 85       	ldd	r24, Y+11	; 0x0b
    2a9a:	9c 85       	ldd	r25, Y+12	; 0x0c
    2a9c:	28 17       	cp	r18, r24
    2a9e:	39 07       	cpc	r19, r25
    2aa0:	91 f5       	brne	.+100    	; 0x2b06 <_ZN12Adafruit_GFX8drawLineEiiiij+0xa6>
    2aa2:	29 85       	ldd	r18, Y+9	; 0x09
    2aa4:	3a 85       	ldd	r19, Y+10	; 0x0a
    2aa6:	8d 85       	ldd	r24, Y+13	; 0x0d
    2aa8:	9e 85       	ldd	r25, Y+14	; 0x0e
    2aaa:	82 17       	cp	r24, r18
    2aac:	93 07       	cpc	r25, r19
    2aae:	64 f4       	brge	.+24     	; 0x2ac8 <_ZN12Adafruit_GFX8drawLineEiiiij+0x68>
    2ab0:	89 85       	ldd	r24, Y+9	; 0x09
    2ab2:	9a 85       	ldd	r25, Y+10	; 0x0a
    2ab4:	9a 83       	std	Y+2, r25	; 0x02
    2ab6:	89 83       	std	Y+1, r24	; 0x01
    2ab8:	8d 85       	ldd	r24, Y+13	; 0x0d
    2aba:	9e 85       	ldd	r25, Y+14	; 0x0e
    2abc:	9a 87       	std	Y+10, r25	; 0x0a
    2abe:	89 87       	std	Y+9, r24	; 0x09
    2ac0:	89 81       	ldd	r24, Y+1	; 0x01
    2ac2:	9a 81       	ldd	r25, Y+2	; 0x02
    2ac4:	9e 87       	std	Y+14, r25	; 0x0e
    2ac6:	8d 87       	std	Y+13, r24	; 0x0d
    2ac8:	8d 81       	ldd	r24, Y+5	; 0x05
    2aca:	9e 81       	ldd	r25, Y+6	; 0x06
    2acc:	dc 01       	movw	r26, r24
    2ace:	8d 91       	ld	r24, X+
    2ad0:	9c 91       	ld	r25, X
    2ad2:	4c 96       	adiw	r24, 0x1c	; 28
    2ad4:	dc 01       	movw	r26, r24
    2ad6:	ed 91       	ld	r30, X+
    2ad8:	fc 91       	ld	r31, X
    2ada:	2d 85       	ldd	r18, Y+13	; 0x0d
    2adc:	3e 85       	ldd	r19, Y+14	; 0x0e
    2ade:	89 85       	ldd	r24, Y+9	; 0x09
    2ae0:	9a 85       	ldd	r25, Y+10	; 0x0a
    2ae2:	a9 01       	movw	r20, r18
    2ae4:	48 1b       	sub	r20, r24
    2ae6:	59 0b       	sbc	r21, r25
    2ae8:	ca 01       	movw	r24, r20
    2aea:	9c 01       	movw	r18, r24
    2aec:	2f 5f       	subi	r18, 0xFF	; 255
    2aee:	3f 4f       	sbci	r19, 0xFF	; 255
    2af0:	af 85       	ldd	r26, Y+15	; 0x0f
    2af2:	b8 89       	ldd	r27, Y+16	; 0x10
    2af4:	49 85       	ldd	r20, Y+9	; 0x09
    2af6:	5a 85       	ldd	r21, Y+10	; 0x0a
    2af8:	6f 81       	ldd	r22, Y+7	; 0x07
    2afa:	78 85       	ldd	r23, Y+8	; 0x08
    2afc:	8d 81       	ldd	r24, Y+5	; 0x05
    2afe:	9e 81       	ldd	r25, Y+6	; 0x06
    2b00:	8d 01       	movw	r16, r26
    2b02:	19 95       	eicall
    2b04:	6b c0       	rjmp	.+214    	; 0x2bdc <_ZN12Adafruit_GFX8drawLineEiiiij+0x17c>
    2b06:	29 85       	ldd	r18, Y+9	; 0x09
    2b08:	3a 85       	ldd	r19, Y+10	; 0x0a
    2b0a:	8d 85       	ldd	r24, Y+13	; 0x0d
    2b0c:	9e 85       	ldd	r25, Y+14	; 0x0e
    2b0e:	28 17       	cp	r18, r24
    2b10:	39 07       	cpc	r19, r25
    2b12:	91 f5       	brne	.+100    	; 0x2b78 <_ZN12Adafruit_GFX8drawLineEiiiij+0x118>
    2b14:	2f 81       	ldd	r18, Y+7	; 0x07
    2b16:	38 85       	ldd	r19, Y+8	; 0x08
    2b18:	8b 85       	ldd	r24, Y+11	; 0x0b
    2b1a:	9c 85       	ldd	r25, Y+12	; 0x0c
    2b1c:	82 17       	cp	r24, r18
    2b1e:	93 07       	cpc	r25, r19
    2b20:	64 f4       	brge	.+24     	; 0x2b3a <_ZN12Adafruit_GFX8drawLineEiiiij+0xda>
    2b22:	8f 81       	ldd	r24, Y+7	; 0x07
    2b24:	98 85       	ldd	r25, Y+8	; 0x08
    2b26:	9c 83       	std	Y+4, r25	; 0x04
    2b28:	8b 83       	std	Y+3, r24	; 0x03
    2b2a:	8b 85       	ldd	r24, Y+11	; 0x0b
    2b2c:	9c 85       	ldd	r25, Y+12	; 0x0c
    2b2e:	98 87       	std	Y+8, r25	; 0x08
    2b30:	8f 83       	std	Y+7, r24	; 0x07
    2b32:	8b 81       	ldd	r24, Y+3	; 0x03
    2b34:	9c 81       	ldd	r25, Y+4	; 0x04
    2b36:	9c 87       	std	Y+12, r25	; 0x0c
    2b38:	8b 87       	std	Y+11, r24	; 0x0b
    2b3a:	8d 81       	ldd	r24, Y+5	; 0x05
    2b3c:	9e 81       	ldd	r25, Y+6	; 0x06
    2b3e:	dc 01       	movw	r26, r24
    2b40:	8d 91       	ld	r24, X+
    2b42:	9c 91       	ld	r25, X
    2b44:	4e 96       	adiw	r24, 0x1e	; 30
    2b46:	dc 01       	movw	r26, r24
    2b48:	ed 91       	ld	r30, X+
    2b4a:	fc 91       	ld	r31, X
    2b4c:	2b 85       	ldd	r18, Y+11	; 0x0b
    2b4e:	3c 85       	ldd	r19, Y+12	; 0x0c
    2b50:	8f 81       	ldd	r24, Y+7	; 0x07
    2b52:	98 85       	ldd	r25, Y+8	; 0x08
    2b54:	a9 01       	movw	r20, r18
    2b56:	48 1b       	sub	r20, r24
    2b58:	59 0b       	sbc	r21, r25
    2b5a:	ca 01       	movw	r24, r20
    2b5c:	9c 01       	movw	r18, r24
    2b5e:	2f 5f       	subi	r18, 0xFF	; 255
    2b60:	3f 4f       	sbci	r19, 0xFF	; 255
    2b62:	af 85       	ldd	r26, Y+15	; 0x0f
    2b64:	b8 89       	ldd	r27, Y+16	; 0x10
    2b66:	49 85       	ldd	r20, Y+9	; 0x09
    2b68:	5a 85       	ldd	r21, Y+10	; 0x0a
    2b6a:	6f 81       	ldd	r22, Y+7	; 0x07
    2b6c:	78 85       	ldd	r23, Y+8	; 0x08
    2b6e:	8d 81       	ldd	r24, Y+5	; 0x05
    2b70:	9e 81       	ldd	r25, Y+6	; 0x06
    2b72:	8d 01       	movw	r16, r26
    2b74:	19 95       	eicall
    2b76:	32 c0       	rjmp	.+100    	; 0x2bdc <_ZN12Adafruit_GFX8drawLineEiiiij+0x17c>
    2b78:	8d 81       	ldd	r24, Y+5	; 0x05
    2b7a:	9e 81       	ldd	r25, Y+6	; 0x06
    2b7c:	dc 01       	movw	r26, r24
    2b7e:	8d 91       	ld	r24, X+
    2b80:	9c 91       	ld	r25, X
    2b82:	0a 96       	adiw	r24, 0x0a	; 10
    2b84:	fc 01       	movw	r30, r24
    2b86:	20 81       	ld	r18, Z
    2b88:	31 81       	ldd	r19, Z+1	; 0x01
    2b8a:	8d 81       	ldd	r24, Y+5	; 0x05
    2b8c:	9e 81       	ldd	r25, Y+6	; 0x06
    2b8e:	f9 01       	movw	r30, r18
    2b90:	19 95       	eicall
    2b92:	8d 81       	ldd	r24, Y+5	; 0x05
    2b94:	9e 81       	ldd	r25, Y+6	; 0x06
    2b96:	dc 01       	movw	r26, r24
    2b98:	8d 91       	ld	r24, X+
    2b9a:	9c 91       	ld	r25, X
    2b9c:	44 96       	adiw	r24, 0x14	; 20
    2b9e:	dc 01       	movw	r26, r24
    2ba0:	ed 91       	ld	r30, X+
    2ba2:	fc 91       	ld	r31, X
    2ba4:	0f 85       	ldd	r16, Y+15	; 0x0f
    2ba6:	18 89       	ldd	r17, Y+16	; 0x10
    2ba8:	ad 85       	ldd	r26, Y+13	; 0x0d
    2baa:	be 85       	ldd	r27, Y+14	; 0x0e
    2bac:	2b 85       	ldd	r18, Y+11	; 0x0b
    2bae:	3c 85       	ldd	r19, Y+12	; 0x0c
    2bb0:	49 85       	ldd	r20, Y+9	; 0x09
    2bb2:	5a 85       	ldd	r21, Y+10	; 0x0a
    2bb4:	6f 81       	ldd	r22, Y+7	; 0x07
    2bb6:	78 85       	ldd	r23, Y+8	; 0x08
    2bb8:	8d 81       	ldd	r24, Y+5	; 0x05
    2bba:	9e 81       	ldd	r25, Y+6	; 0x06
    2bbc:	78 01       	movw	r14, r16
    2bbe:	8d 01       	movw	r16, r26
    2bc0:	19 95       	eicall
    2bc2:	8d 81       	ldd	r24, Y+5	; 0x05
    2bc4:	9e 81       	ldd	r25, Y+6	; 0x06
    2bc6:	fc 01       	movw	r30, r24
    2bc8:	80 81       	ld	r24, Z
    2bca:	91 81       	ldd	r25, Z+1	; 0x01
    2bcc:	46 96       	adiw	r24, 0x16	; 22
    2bce:	dc 01       	movw	r26, r24
    2bd0:	2d 91       	ld	r18, X+
    2bd2:	3c 91       	ld	r19, X
    2bd4:	8d 81       	ldd	r24, Y+5	; 0x05
    2bd6:	9e 81       	ldd	r25, Y+6	; 0x06
    2bd8:	f9 01       	movw	r30, r18
    2bda:	19 95       	eicall
    2bdc:	00 00       	nop
    2bde:	60 96       	adiw	r28, 0x10	; 16
    2be0:	0f b6       	in	r0, 0x3f	; 63
    2be2:	f8 94       	cli
    2be4:	de bf       	out	0x3e, r29	; 62
    2be6:	0f be       	out	0x3f, r0	; 63
    2be8:	cd bf       	out	0x3d, r28	; 61
    2bea:	df 91       	pop	r29
    2bec:	cf 91       	pop	r28
    2bee:	1f 91       	pop	r17
    2bf0:	0f 91       	pop	r16
    2bf2:	ff 90       	pop	r15
    2bf4:	ef 90       	pop	r14
    2bf6:	08 95       	ret

00002bf8 <_ZN12Adafruit_GFX8drawRectEiiiij>:
    2bf8:	ef 92       	push	r14
    2bfa:	ff 92       	push	r15
    2bfc:	0f 93       	push	r16
    2bfe:	1f 93       	push	r17
    2c00:	cf 93       	push	r28
    2c02:	df 93       	push	r29
    2c04:	cd b7       	in	r28, 0x3d	; 61
    2c06:	de b7       	in	r29, 0x3e	; 62
    2c08:	2c 97       	sbiw	r28, 0x0c	; 12
    2c0a:	0f b6       	in	r0, 0x3f	; 63
    2c0c:	f8 94       	cli
    2c0e:	de bf       	out	0x3e, r29	; 62
    2c10:	0f be       	out	0x3f, r0	; 63
    2c12:	cd bf       	out	0x3d, r28	; 61
    2c14:	9a 83       	std	Y+2, r25	; 0x02
    2c16:	89 83       	std	Y+1, r24	; 0x01
    2c18:	7c 83       	std	Y+4, r23	; 0x04
    2c1a:	6b 83       	std	Y+3, r22	; 0x03
    2c1c:	5e 83       	std	Y+6, r21	; 0x06
    2c1e:	4d 83       	std	Y+5, r20	; 0x05
    2c20:	38 87       	std	Y+8, r19	; 0x08
    2c22:	2f 83       	std	Y+7, r18	; 0x07
    2c24:	1a 87       	std	Y+10, r17	; 0x0a
    2c26:	09 87       	std	Y+9, r16	; 0x09
    2c28:	fc 86       	std	Y+12, r15	; 0x0c
    2c2a:	eb 86       	std	Y+11, r14	; 0x0b
    2c2c:	89 81       	ldd	r24, Y+1	; 0x01
    2c2e:	9a 81       	ldd	r25, Y+2	; 0x02
    2c30:	dc 01       	movw	r26, r24
    2c32:	8d 91       	ld	r24, X+
    2c34:	9c 91       	ld	r25, X
    2c36:	0a 96       	adiw	r24, 0x0a	; 10
    2c38:	fc 01       	movw	r30, r24
    2c3a:	20 81       	ld	r18, Z
    2c3c:	31 81       	ldd	r19, Z+1	; 0x01
    2c3e:	89 81       	ldd	r24, Y+1	; 0x01
    2c40:	9a 81       	ldd	r25, Y+2	; 0x02
    2c42:	f9 01       	movw	r30, r18
    2c44:	19 95       	eicall
    2c46:	89 81       	ldd	r24, Y+1	; 0x01
    2c48:	9a 81       	ldd	r25, Y+2	; 0x02
    2c4a:	dc 01       	movw	r26, r24
    2c4c:	8d 91       	ld	r24, X+
    2c4e:	9c 91       	ld	r25, X
    2c50:	42 96       	adiw	r24, 0x12	; 18
    2c52:	dc 01       	movw	r26, r24
    2c54:	ed 91       	ld	r30, X+
    2c56:	fc 91       	ld	r31, X
    2c58:	ab 85       	ldd	r26, Y+11	; 0x0b
    2c5a:	bc 85       	ldd	r27, Y+12	; 0x0c
    2c5c:	2f 81       	ldd	r18, Y+7	; 0x07
    2c5e:	38 85       	ldd	r19, Y+8	; 0x08
    2c60:	4d 81       	ldd	r20, Y+5	; 0x05
    2c62:	5e 81       	ldd	r21, Y+6	; 0x06
    2c64:	6b 81       	ldd	r22, Y+3	; 0x03
    2c66:	7c 81       	ldd	r23, Y+4	; 0x04
    2c68:	89 81       	ldd	r24, Y+1	; 0x01
    2c6a:	9a 81       	ldd	r25, Y+2	; 0x02
    2c6c:	8d 01       	movw	r16, r26
    2c6e:	19 95       	eicall
    2c70:	89 81       	ldd	r24, Y+1	; 0x01
    2c72:	9a 81       	ldd	r25, Y+2	; 0x02
    2c74:	fc 01       	movw	r30, r24
    2c76:	80 81       	ld	r24, Z
    2c78:	91 81       	ldd	r25, Z+1	; 0x01
    2c7a:	42 96       	adiw	r24, 0x12	; 18
    2c7c:	dc 01       	movw	r26, r24
    2c7e:	ed 91       	ld	r30, X+
    2c80:	fc 91       	ld	r31, X
    2c82:	2d 81       	ldd	r18, Y+5	; 0x05
    2c84:	3e 81       	ldd	r19, Y+6	; 0x06
    2c86:	89 85       	ldd	r24, Y+9	; 0x09
    2c88:	9a 85       	ldd	r25, Y+10	; 0x0a
    2c8a:	82 0f       	add	r24, r18
    2c8c:	93 1f       	adc	r25, r19
    2c8e:	ac 01       	movw	r20, r24
    2c90:	41 50       	subi	r20, 0x01	; 1
    2c92:	51 09       	sbc	r21, r1
    2c94:	ab 85       	ldd	r26, Y+11	; 0x0b
    2c96:	bc 85       	ldd	r27, Y+12	; 0x0c
    2c98:	2f 81       	ldd	r18, Y+7	; 0x07
    2c9a:	38 85       	ldd	r19, Y+8	; 0x08
    2c9c:	6b 81       	ldd	r22, Y+3	; 0x03
    2c9e:	7c 81       	ldd	r23, Y+4	; 0x04
    2ca0:	89 81       	ldd	r24, Y+1	; 0x01
    2ca2:	9a 81       	ldd	r25, Y+2	; 0x02
    2ca4:	8d 01       	movw	r16, r26
    2ca6:	19 95       	eicall
    2ca8:	89 81       	ldd	r24, Y+1	; 0x01
    2caa:	9a 81       	ldd	r25, Y+2	; 0x02
    2cac:	fc 01       	movw	r30, r24
    2cae:	80 81       	ld	r24, Z
    2cb0:	91 81       	ldd	r25, Z+1	; 0x01
    2cb2:	40 96       	adiw	r24, 0x10	; 16
    2cb4:	dc 01       	movw	r26, r24
    2cb6:	ed 91       	ld	r30, X+
    2cb8:	fc 91       	ld	r31, X
    2cba:	ab 85       	ldd	r26, Y+11	; 0x0b
    2cbc:	bc 85       	ldd	r27, Y+12	; 0x0c
    2cbe:	29 85       	ldd	r18, Y+9	; 0x09
    2cc0:	3a 85       	ldd	r19, Y+10	; 0x0a
    2cc2:	4d 81       	ldd	r20, Y+5	; 0x05
    2cc4:	5e 81       	ldd	r21, Y+6	; 0x06
    2cc6:	6b 81       	ldd	r22, Y+3	; 0x03
    2cc8:	7c 81       	ldd	r23, Y+4	; 0x04
    2cca:	89 81       	ldd	r24, Y+1	; 0x01
    2ccc:	9a 81       	ldd	r25, Y+2	; 0x02
    2cce:	8d 01       	movw	r16, r26
    2cd0:	19 95       	eicall
    2cd2:	89 81       	ldd	r24, Y+1	; 0x01
    2cd4:	9a 81       	ldd	r25, Y+2	; 0x02
    2cd6:	fc 01       	movw	r30, r24
    2cd8:	80 81       	ld	r24, Z
    2cda:	91 81       	ldd	r25, Z+1	; 0x01
    2cdc:	40 96       	adiw	r24, 0x10	; 16
    2cde:	dc 01       	movw	r26, r24
    2ce0:	ed 91       	ld	r30, X+
    2ce2:	fc 91       	ld	r31, X
    2ce4:	2b 81       	ldd	r18, Y+3	; 0x03
    2ce6:	3c 81       	ldd	r19, Y+4	; 0x04
    2ce8:	8f 81       	ldd	r24, Y+7	; 0x07
    2cea:	98 85       	ldd	r25, Y+8	; 0x08
    2cec:	82 0f       	add	r24, r18
    2cee:	93 1f       	adc	r25, r19
    2cf0:	bc 01       	movw	r22, r24
    2cf2:	61 50       	subi	r22, 0x01	; 1
    2cf4:	71 09       	sbc	r23, r1
    2cf6:	ab 85       	ldd	r26, Y+11	; 0x0b
    2cf8:	bc 85       	ldd	r27, Y+12	; 0x0c
    2cfa:	29 85       	ldd	r18, Y+9	; 0x09
    2cfc:	3a 85       	ldd	r19, Y+10	; 0x0a
    2cfe:	4d 81       	ldd	r20, Y+5	; 0x05
    2d00:	5e 81       	ldd	r21, Y+6	; 0x06
    2d02:	89 81       	ldd	r24, Y+1	; 0x01
    2d04:	9a 81       	ldd	r25, Y+2	; 0x02
    2d06:	8d 01       	movw	r16, r26
    2d08:	19 95       	eicall
    2d0a:	89 81       	ldd	r24, Y+1	; 0x01
    2d0c:	9a 81       	ldd	r25, Y+2	; 0x02
    2d0e:	fc 01       	movw	r30, r24
    2d10:	80 81       	ld	r24, Z
    2d12:	91 81       	ldd	r25, Z+1	; 0x01
    2d14:	46 96       	adiw	r24, 0x16	; 22
    2d16:	dc 01       	movw	r26, r24
    2d18:	2d 91       	ld	r18, X+
    2d1a:	3c 91       	ld	r19, X
    2d1c:	89 81       	ldd	r24, Y+1	; 0x01
    2d1e:	9a 81       	ldd	r25, Y+2	; 0x02
    2d20:	f9 01       	movw	r30, r18
    2d22:	19 95       	eicall
    2d24:	00 00       	nop
    2d26:	2c 96       	adiw	r28, 0x0c	; 12
    2d28:	0f b6       	in	r0, 0x3f	; 63
    2d2a:	f8 94       	cli
    2d2c:	de bf       	out	0x3e, r29	; 62
    2d2e:	0f be       	out	0x3f, r0	; 63
    2d30:	cd bf       	out	0x3d, r28	; 61
    2d32:	df 91       	pop	r29
    2d34:	cf 91       	pop	r28
    2d36:	1f 91       	pop	r17
    2d38:	0f 91       	pop	r16
    2d3a:	ff 90       	pop	r15
    2d3c:	ef 90       	pop	r14
    2d3e:	08 95       	ret

00002d40 <_ZN12Adafruit_GFX10drawBitmapEiiPKhiij>:
    2d40:	cf 92       	push	r12
    2d42:	df 92       	push	r13
    2d44:	ef 92       	push	r14
    2d46:	ff 92       	push	r15
    2d48:	0f 93       	push	r16
    2d4a:	1f 93       	push	r17
    2d4c:	cf 93       	push	r28
    2d4e:	df 93       	push	r29
    2d50:	cd b7       	in	r28, 0x3d	; 61
    2d52:	de b7       	in	r29, 0x3e	; 62
    2d54:	68 97       	sbiw	r28, 0x18	; 24
    2d56:	0f b6       	in	r0, 0x3f	; 63
    2d58:	f8 94       	cli
    2d5a:	de bf       	out	0x3e, r29	; 62
    2d5c:	0f be       	out	0x3f, r0	; 63
    2d5e:	cd bf       	out	0x3d, r28	; 61
    2d60:	9c 87       	std	Y+12, r25	; 0x0c
    2d62:	8b 87       	std	Y+11, r24	; 0x0b
    2d64:	7e 87       	std	Y+14, r23	; 0x0e
    2d66:	6d 87       	std	Y+13, r22	; 0x0d
    2d68:	58 8b       	std	Y+16, r21	; 0x10
    2d6a:	4f 87       	std	Y+15, r20	; 0x0f
    2d6c:	3a 8b       	std	Y+18, r19	; 0x12
    2d6e:	29 8b       	std	Y+17, r18	; 0x11
    2d70:	1c 8b       	std	Y+20, r17	; 0x14
    2d72:	0b 8b       	std	Y+19, r16	; 0x13
    2d74:	fe 8a       	std	Y+22, r15	; 0x16
    2d76:	ed 8a       	std	Y+21, r14	; 0x15
    2d78:	d8 8e       	std	Y+24, r13	; 0x18
    2d7a:	cf 8a       	std	Y+23, r12	; 0x17
    2d7c:	8b 89       	ldd	r24, Y+19	; 0x13
    2d7e:	9c 89       	ldd	r25, Y+20	; 0x14
    2d80:	07 96       	adiw	r24, 0x07	; 7
    2d82:	99 23       	and	r25, r25
    2d84:	0c f4       	brge	.+2      	; 0x2d88 <_ZN12Adafruit_GFX10drawBitmapEiiPKhiij+0x48>
    2d86:	07 96       	adiw	r24, 0x07	; 7
    2d88:	95 95       	asr	r25
    2d8a:	87 95       	ror	r24
    2d8c:	95 95       	asr	r25
    2d8e:	87 95       	ror	r24
    2d90:	95 95       	asr	r25
    2d92:	87 95       	ror	r24
    2d94:	9f 83       	std	Y+7, r25	; 0x07
    2d96:	8e 83       	std	Y+6, r24	; 0x06
    2d98:	19 82       	std	Y+1, r1	; 0x01
    2d9a:	8b 85       	ldd	r24, Y+11	; 0x0b
    2d9c:	9c 85       	ldd	r25, Y+12	; 0x0c
    2d9e:	dc 01       	movw	r26, r24
    2da0:	8d 91       	ld	r24, X+
    2da2:	9c 91       	ld	r25, X
    2da4:	0a 96       	adiw	r24, 0x0a	; 10
    2da6:	fc 01       	movw	r30, r24
    2da8:	20 81       	ld	r18, Z
    2daa:	31 81       	ldd	r19, Z+1	; 0x01
    2dac:	8b 85       	ldd	r24, Y+11	; 0x0b
    2dae:	9c 85       	ldd	r25, Y+12	; 0x0c
    2db0:	f9 01       	movw	r30, r18
    2db2:	19 95       	eicall
    2db4:	1b 82       	std	Y+3, r1	; 0x03
    2db6:	1a 82       	std	Y+2, r1	; 0x02
    2db8:	2a 81       	ldd	r18, Y+2	; 0x02
    2dba:	3b 81       	ldd	r19, Y+3	; 0x03
    2dbc:	8d 89       	ldd	r24, Y+21	; 0x15
    2dbe:	9e 89       	ldd	r25, Y+22	; 0x16
    2dc0:	28 17       	cp	r18, r24
    2dc2:	39 07       	cpc	r19, r25
    2dc4:	0c f0       	brlt	.+2      	; 0x2dc8 <_ZN12Adafruit_GFX10drawBitmapEiiPKhiij+0x88>
    2dc6:	65 c0       	rjmp	.+202    	; 0x2e92 <_ZN12Adafruit_GFX10drawBitmapEiiPKhiij+0x152>
    2dc8:	1d 82       	std	Y+5, r1	; 0x05
    2dca:	1c 82       	std	Y+4, r1	; 0x04
    2dcc:	2c 81       	ldd	r18, Y+4	; 0x04
    2dce:	3d 81       	ldd	r19, Y+5	; 0x05
    2dd0:	8b 89       	ldd	r24, Y+19	; 0x13
    2dd2:	9c 89       	ldd	r25, Y+20	; 0x14
    2dd4:	28 17       	cp	r18, r24
    2dd6:	39 07       	cpc	r19, r25
    2dd8:	0c f0       	brlt	.+2      	; 0x2ddc <_ZN12Adafruit_GFX10drawBitmapEiiPKhiij+0x9c>
    2dda:	50 c0       	rjmp	.+160    	; 0x2e7c <_ZN12Adafruit_GFX10drawBitmapEiiPKhiij+0x13c>
    2ddc:	8c 81       	ldd	r24, Y+4	; 0x04
    2dde:	9d 81       	ldd	r25, Y+5	; 0x05
    2de0:	87 70       	andi	r24, 0x07	; 7
    2de2:	99 27       	eor	r25, r25
    2de4:	89 2b       	or	r24, r25
    2de6:	21 f0       	breq	.+8      	; 0x2df0 <_ZN12Adafruit_GFX10drawBitmapEiiPKhiij+0xb0>
    2de8:	89 81       	ldd	r24, Y+1	; 0x01
    2dea:	88 0f       	add	r24, r24
    2dec:	89 83       	std	Y+1, r24	; 0x01
    2dee:	26 c0       	rjmp	.+76     	; 0x2e3c <_ZN12Adafruit_GFX10drawBitmapEiiPKhiij+0xfc>
    2df0:	4a 81       	ldd	r20, Y+2	; 0x02
    2df2:	5b 81       	ldd	r21, Y+3	; 0x03
    2df4:	8e 81       	ldd	r24, Y+6	; 0x06
    2df6:	9f 81       	ldd	r25, Y+7	; 0x07
    2df8:	48 9f       	mul	r20, r24
    2dfa:	90 01       	movw	r18, r0
    2dfc:	49 9f       	mul	r20, r25
    2dfe:	30 0d       	add	r19, r0
    2e00:	58 9f       	mul	r21, r24
    2e02:	30 0d       	add	r19, r0
    2e04:	11 24       	eor	r1, r1
    2e06:	8c 81       	ldd	r24, Y+4	; 0x04
    2e08:	9d 81       	ldd	r25, Y+5	; 0x05
    2e0a:	99 23       	and	r25, r25
    2e0c:	0c f4       	brge	.+2      	; 0x2e10 <_ZN12Adafruit_GFX10drawBitmapEiiPKhiij+0xd0>
    2e0e:	07 96       	adiw	r24, 0x07	; 7
    2e10:	95 95       	asr	r25
    2e12:	87 95       	ror	r24
    2e14:	95 95       	asr	r25
    2e16:	87 95       	ror	r24
    2e18:	95 95       	asr	r25
    2e1a:	87 95       	ror	r24
    2e1c:	82 0f       	add	r24, r18
    2e1e:	93 1f       	adc	r25, r19
    2e20:	9c 01       	movw	r18, r24
    2e22:	89 89       	ldd	r24, Y+17	; 0x11
    2e24:	9a 89       	ldd	r25, Y+18	; 0x12
    2e26:	82 0f       	add	r24, r18
    2e28:	93 1f       	adc	r25, r19
    2e2a:	99 87       	std	Y+9, r25	; 0x09
    2e2c:	88 87       	std	Y+8, r24	; 0x08
    2e2e:	88 85       	ldd	r24, Y+8	; 0x08
    2e30:	99 85       	ldd	r25, Y+9	; 0x09
    2e32:	fc 01       	movw	r30, r24
    2e34:	84 91       	lpm	r24, Z
    2e36:	8a 87       	std	Y+10, r24	; 0x0a
    2e38:	8a 85       	ldd	r24, Y+10	; 0x0a
    2e3a:	89 83       	std	Y+1, r24	; 0x01
    2e3c:	89 81       	ldd	r24, Y+1	; 0x01
    2e3e:	88 23       	and	r24, r24
    2e40:	bc f4       	brge	.+46     	; 0x2e70 <_ZN12Adafruit_GFX10drawBitmapEiiPKhiij+0x130>
    2e42:	8b 85       	ldd	r24, Y+11	; 0x0b
    2e44:	9c 85       	ldd	r25, Y+12	; 0x0c
    2e46:	dc 01       	movw	r26, r24
    2e48:	8d 91       	ld	r24, X+
    2e4a:	9c 91       	ld	r25, X
    2e4c:	0c 96       	adiw	r24, 0x0c	; 12
    2e4e:	dc 01       	movw	r26, r24
    2e50:	ed 91       	ld	r30, X+
    2e52:	fc 91       	ld	r31, X
    2e54:	2d 85       	ldd	r18, Y+13	; 0x0d
    2e56:	3e 85       	ldd	r19, Y+14	; 0x0e
    2e58:	8c 81       	ldd	r24, Y+4	; 0x04
    2e5a:	9d 81       	ldd	r25, Y+5	; 0x05
    2e5c:	b9 01       	movw	r22, r18
    2e5e:	68 0f       	add	r22, r24
    2e60:	79 1f       	adc	r23, r25
    2e62:	2f 89       	ldd	r18, Y+23	; 0x17
    2e64:	38 8d       	ldd	r19, Y+24	; 0x18
    2e66:	4f 85       	ldd	r20, Y+15	; 0x0f
    2e68:	58 89       	ldd	r21, Y+16	; 0x10
    2e6a:	8b 85       	ldd	r24, Y+11	; 0x0b
    2e6c:	9c 85       	ldd	r25, Y+12	; 0x0c
    2e6e:	19 95       	eicall
    2e70:	8c 81       	ldd	r24, Y+4	; 0x04
    2e72:	9d 81       	ldd	r25, Y+5	; 0x05
    2e74:	01 96       	adiw	r24, 0x01	; 1
    2e76:	9d 83       	std	Y+5, r25	; 0x05
    2e78:	8c 83       	std	Y+4, r24	; 0x04
    2e7a:	a8 cf       	rjmp	.-176    	; 0x2dcc <_ZN12Adafruit_GFX10drawBitmapEiiPKhiij+0x8c>
    2e7c:	8a 81       	ldd	r24, Y+2	; 0x02
    2e7e:	9b 81       	ldd	r25, Y+3	; 0x03
    2e80:	01 96       	adiw	r24, 0x01	; 1
    2e82:	9b 83       	std	Y+3, r25	; 0x03
    2e84:	8a 83       	std	Y+2, r24	; 0x02
    2e86:	8f 85       	ldd	r24, Y+15	; 0x0f
    2e88:	98 89       	ldd	r25, Y+16	; 0x10
    2e8a:	01 96       	adiw	r24, 0x01	; 1
    2e8c:	98 8b       	std	Y+16, r25	; 0x10
    2e8e:	8f 87       	std	Y+15, r24	; 0x0f
    2e90:	93 cf       	rjmp	.-218    	; 0x2db8 <_ZN12Adafruit_GFX10drawBitmapEiiPKhiij+0x78>
    2e92:	8b 85       	ldd	r24, Y+11	; 0x0b
    2e94:	9c 85       	ldd	r25, Y+12	; 0x0c
    2e96:	fc 01       	movw	r30, r24
    2e98:	80 81       	ld	r24, Z
    2e9a:	91 81       	ldd	r25, Z+1	; 0x01
    2e9c:	46 96       	adiw	r24, 0x16	; 22
    2e9e:	dc 01       	movw	r26, r24
    2ea0:	2d 91       	ld	r18, X+
    2ea2:	3c 91       	ld	r19, X
    2ea4:	8b 85       	ldd	r24, Y+11	; 0x0b
    2ea6:	9c 85       	ldd	r25, Y+12	; 0x0c
    2ea8:	f9 01       	movw	r30, r18
    2eaa:	19 95       	eicall
    2eac:	00 00       	nop
    2eae:	68 96       	adiw	r28, 0x18	; 24
    2eb0:	0f b6       	in	r0, 0x3f	; 63
    2eb2:	f8 94       	cli
    2eb4:	de bf       	out	0x3e, r29	; 62
    2eb6:	0f be       	out	0x3f, r0	; 63
    2eb8:	cd bf       	out	0x3d, r28	; 61
    2eba:	df 91       	pop	r29
    2ebc:	cf 91       	pop	r28
    2ebe:	1f 91       	pop	r17
    2ec0:	0f 91       	pop	r16
    2ec2:	ff 90       	pop	r15
    2ec4:	ef 90       	pop	r14
    2ec6:	df 90       	pop	r13
    2ec8:	cf 90       	pop	r12
    2eca:	08 95       	ret

00002ecc <_ZN12Adafruit_GFX8drawCharEiihjjhh>:
    2ecc:	af 92       	push	r10
    2ece:	cf 92       	push	r12
    2ed0:	df 92       	push	r13
    2ed2:	ef 92       	push	r14
    2ed4:	ff 92       	push	r15
    2ed6:	0f 93       	push	r16
    2ed8:	1f 93       	push	r17
    2eda:	cf 93       	push	r28
    2edc:	df 93       	push	r29
    2ede:	cd b7       	in	r28, 0x3d	; 61
    2ee0:	de b7       	in	r29, 0x3e	; 62
    2ee2:	eb 97       	sbiw	r28, 0x3b	; 59
    2ee4:	0f b6       	in	r0, 0x3f	; 63
    2ee6:	f8 94       	cli
    2ee8:	de bf       	out	0x3e, r29	; 62
    2eea:	0f be       	out	0x3f, r0	; 63
    2eec:	cd bf       	out	0x3d, r28	; 61
    2eee:	98 ab       	std	Y+48, r25	; 0x30
    2ef0:	8f a7       	std	Y+47, r24	; 0x2f
    2ef2:	7a ab       	std	Y+50, r23	; 0x32
    2ef4:	69 ab       	std	Y+49, r22	; 0x31
    2ef6:	5c ab       	std	Y+52, r21	; 0x34
    2ef8:	4b ab       	std	Y+51, r20	; 0x33
    2efa:	2d ab       	std	Y+53, r18	; 0x35
    2efc:	1f ab       	std	Y+55, r17	; 0x37
    2efe:	0e ab       	std	Y+54, r16	; 0x36
    2f00:	f9 ae       	std	Y+57, r15	; 0x39
    2f02:	e8 ae       	std	Y+56, r14	; 0x38
    2f04:	ca ae       	std	Y+58, r12	; 0x3a
    2f06:	ab ae       	std	Y+59, r10	; 0x3b
    2f08:	8f a5       	ldd	r24, Y+47	; 0x2f
    2f0a:	98 a9       	ldd	r25, Y+48	; 0x30
    2f0c:	dc 01       	movw	r26, r24
    2f0e:	59 96       	adiw	r26, 0x19	; 25
    2f10:	8d 91       	ld	r24, X+
    2f12:	9c 91       	ld	r25, X
    2f14:	5a 97       	sbiw	r26, 0x1a	; 26
    2f16:	89 2b       	or	r24, r25
    2f18:	09 f0       	breq	.+2      	; 0x2f1c <_ZN12Adafruit_GFX8drawCharEiihjjhh+0x50>
    2f1a:	c7 c1       	rjmp	.+910    	; 0x32aa <_ZN12Adafruit_GFX8drawCharEiihjjhh+0x3de>
    2f1c:	8f a5       	ldd	r24, Y+47	; 0x2f
    2f1e:	98 a9       	ldd	r25, Y+48	; 0x30
    2f20:	fc 01       	movw	r30, r24
    2f22:	20 85       	ldd	r18, Z+8	; 0x08
    2f24:	31 85       	ldd	r19, Z+9	; 0x09
    2f26:	89 a9       	ldd	r24, Y+49	; 0x31
    2f28:	9a a9       	ldd	r25, Y+50	; 0x32
    2f2a:	82 17       	cp	r24, r18
    2f2c:	93 07       	cpc	r25, r19
    2f2e:	0c f0       	brlt	.+2      	; 0x2f32 <_ZN12Adafruit_GFX8drawCharEiihjjhh+0x66>
    2f30:	0e c3       	rjmp	.+1564   	; 0x354e <_ZN12Adafruit_GFX8drawCharEiihjjhh+0x682>
    2f32:	8f a5       	ldd	r24, Y+47	; 0x2f
    2f34:	98 a9       	ldd	r25, Y+48	; 0x30
    2f36:	dc 01       	movw	r26, r24
    2f38:	1a 96       	adiw	r26, 0x0a	; 10
    2f3a:	2d 91       	ld	r18, X+
    2f3c:	3c 91       	ld	r19, X
    2f3e:	1b 97       	sbiw	r26, 0x0b	; 11
    2f40:	8b a9       	ldd	r24, Y+51	; 0x33
    2f42:	9c a9       	ldd	r25, Y+52	; 0x34
    2f44:	82 17       	cp	r24, r18
    2f46:	93 07       	cpc	r25, r19
    2f48:	0c f0       	brlt	.+2      	; 0x2f4c <_ZN12Adafruit_GFX8drawCharEiihjjhh+0x80>
    2f4a:	01 c3       	rjmp	.+1538   	; 0x354e <_ZN12Adafruit_GFX8drawCharEiihjjhh+0x682>
    2f4c:	8a ad       	ldd	r24, Y+58	; 0x3a
    2f4e:	28 2f       	mov	r18, r24
    2f50:	30 e0       	ldi	r19, 0x00	; 0
    2f52:	c9 01       	movw	r24, r18
    2f54:	88 0f       	add	r24, r24
    2f56:	99 1f       	adc	r25, r25
    2f58:	82 0f       	add	r24, r18
    2f5a:	93 1f       	adc	r25, r19
    2f5c:	88 0f       	add	r24, r24
    2f5e:	99 1f       	adc	r25, r25
    2f60:	9c 01       	movw	r18, r24
    2f62:	89 a9       	ldd	r24, Y+49	; 0x31
    2f64:	9a a9       	ldd	r25, Y+50	; 0x32
    2f66:	82 0f       	add	r24, r18
    2f68:	93 1f       	adc	r25, r19
    2f6a:	01 97       	sbiw	r24, 0x01	; 1
    2f6c:	99 23       	and	r25, r25
    2f6e:	0c f4       	brge	.+2      	; 0x2f72 <_ZN12Adafruit_GFX8drawCharEiihjjhh+0xa6>
    2f70:	ee c2       	rjmp	.+1500   	; 0x354e <_ZN12Adafruit_GFX8drawCharEiihjjhh+0x682>
    2f72:	8b ad       	ldd	r24, Y+59	; 0x3b
    2f74:	88 2f       	mov	r24, r24
    2f76:	90 e0       	ldi	r25, 0x00	; 0
    2f78:	9c 01       	movw	r18, r24
    2f7a:	22 0f       	add	r18, r18
    2f7c:	33 1f       	adc	r19, r19
    2f7e:	22 0f       	add	r18, r18
    2f80:	33 1f       	adc	r19, r19
    2f82:	22 0f       	add	r18, r18
    2f84:	33 1f       	adc	r19, r19
    2f86:	8b a9       	ldd	r24, Y+51	; 0x33
    2f88:	9c a9       	ldd	r25, Y+52	; 0x34
    2f8a:	82 0f       	add	r24, r18
    2f8c:	93 1f       	adc	r25, r19
    2f8e:	01 97       	sbiw	r24, 0x01	; 1
    2f90:	99 23       	and	r25, r25
    2f92:	0c f4       	brge	.+2      	; 0x2f96 <_ZN12Adafruit_GFX8drawCharEiihjjhh+0xca>
    2f94:	dc c2       	rjmp	.+1464   	; 0x354e <_ZN12Adafruit_GFX8drawCharEiihjjhh+0x682>
    2f96:	8f a5       	ldd	r24, Y+47	; 0x2f
    2f98:	98 a9       	ldd	r25, Y+48	; 0x30
    2f9a:	fc 01       	movw	r30, r24
    2f9c:	90 8d       	ldd	r25, Z+24	; 0x18
    2f9e:	81 e0       	ldi	r24, 0x01	; 1
    2fa0:	89 27       	eor	r24, r25
    2fa2:	88 23       	and	r24, r24
    2fa4:	31 f0       	breq	.+12     	; 0x2fb2 <_ZN12Adafruit_GFX8drawCharEiihjjhh+0xe6>
    2fa6:	8d a9       	ldd	r24, Y+53	; 0x35
    2fa8:	80 3b       	cpi	r24, 0xB0	; 176
    2faa:	18 f0       	brcs	.+6      	; 0x2fb2 <_ZN12Adafruit_GFX8drawCharEiihjjhh+0xe6>
    2fac:	8d a9       	ldd	r24, Y+53	; 0x35
    2fae:	8f 5f       	subi	r24, 0xFF	; 255
    2fb0:	8d ab       	std	Y+53, r24	; 0x35
    2fb2:	8f a5       	ldd	r24, Y+47	; 0x2f
    2fb4:	98 a9       	ldd	r25, Y+48	; 0x30
    2fb6:	dc 01       	movw	r26, r24
    2fb8:	8d 91       	ld	r24, X+
    2fba:	9c 91       	ld	r25, X
    2fbc:	0a 96       	adiw	r24, 0x0a	; 10
    2fbe:	fc 01       	movw	r30, r24
    2fc0:	20 81       	ld	r18, Z
    2fc2:	31 81       	ldd	r19, Z+1	; 0x01
    2fc4:	8f a5       	ldd	r24, Y+47	; 0x2f
    2fc6:	98 a9       	ldd	r25, Y+48	; 0x30
    2fc8:	f9 01       	movw	r30, r18
    2fca:	19 95       	eicall
    2fcc:	19 82       	std	Y+1, r1	; 0x01
    2fce:	89 81       	ldd	r24, Y+1	; 0x01
    2fd0:	85 30       	cpi	r24, 0x05	; 5
    2fd2:	0c f0       	brlt	.+2      	; 0x2fd6 <_ZN12Adafruit_GFX8drawCharEiihjjhh+0x10a>
    2fd4:	07 c1       	rjmp	.+526    	; 0x31e4 <_ZN12Adafruit_GFX8drawCharEiihjjhh+0x318>
    2fd6:	8d a9       	ldd	r24, Y+53	; 0x35
    2fd8:	28 2f       	mov	r18, r24
    2fda:	30 e0       	ldi	r19, 0x00	; 0
    2fdc:	c9 01       	movw	r24, r18
    2fde:	88 0f       	add	r24, r24
    2fe0:	99 1f       	adc	r25, r25
    2fe2:	88 0f       	add	r24, r24
    2fe4:	99 1f       	adc	r25, r25
    2fe6:	28 0f       	add	r18, r24
    2fe8:	39 1f       	adc	r19, r25
    2fea:	89 81       	ldd	r24, Y+1	; 0x01
    2fec:	08 2e       	mov	r0, r24
    2fee:	00 0c       	add	r0, r0
    2ff0:	99 0b       	sbc	r25, r25
    2ff2:	82 0f       	add	r24, r18
    2ff4:	93 1f       	adc	r25, r19
    2ff6:	84 58       	subi	r24, 0x84	; 132
    2ff8:	9c 4f       	sbci	r25, 0xFC	; 252
    2ffa:	9f 87       	std	Y+15, r25	; 0x0f
    2ffc:	8e 87       	std	Y+14, r24	; 0x0e
    2ffe:	8e 85       	ldd	r24, Y+14	; 0x0e
    3000:	9f 85       	ldd	r25, Y+15	; 0x0f
    3002:	fc 01       	movw	r30, r24
    3004:	84 91       	lpm	r24, Z
    3006:	88 8b       	std	Y+16, r24	; 0x10
    3008:	88 89       	ldd	r24, Y+16	; 0x10
    300a:	8a 83       	std	Y+2, r24	; 0x02
    300c:	1b 82       	std	Y+3, r1	; 0x03
    300e:	8b 81       	ldd	r24, Y+3	; 0x03
    3010:	88 30       	cpi	r24, 0x08	; 8
    3012:	0c f0       	brlt	.+2      	; 0x3016 <_ZN12Adafruit_GFX8drawCharEiihjjhh+0x14a>
    3014:	e3 c0       	rjmp	.+454    	; 0x31dc <_ZN12Adafruit_GFX8drawCharEiihjjhh+0x310>
    3016:	8a 81       	ldd	r24, Y+2	; 0x02
    3018:	88 2f       	mov	r24, r24
    301a:	90 e0       	ldi	r25, 0x00	; 0
    301c:	81 70       	andi	r24, 0x01	; 1
    301e:	99 27       	eor	r25, r25
    3020:	89 2b       	or	r24, r25
    3022:	09 f4       	brne	.+2      	; 0x3026 <_ZN12Adafruit_GFX8drawCharEiihjjhh+0x15a>
    3024:	65 c0       	rjmp	.+202    	; 0x30f0 <_ZN12Adafruit_GFX8drawCharEiihjjhh+0x224>
    3026:	8a ad       	ldd	r24, Y+58	; 0x3a
    3028:	81 30       	cpi	r24, 0x01	; 1
    302a:	21 f5       	brne	.+72     	; 0x3074 <_ZN12Adafruit_GFX8drawCharEiihjjhh+0x1a8>
    302c:	8b ad       	ldd	r24, Y+59	; 0x3b
    302e:	81 30       	cpi	r24, 0x01	; 1
    3030:	09 f5       	brne	.+66     	; 0x3074 <_ZN12Adafruit_GFX8drawCharEiihjjhh+0x1a8>
    3032:	8f a5       	ldd	r24, Y+47	; 0x2f
    3034:	98 a9       	ldd	r25, Y+48	; 0x30
    3036:	dc 01       	movw	r26, r24
    3038:	8d 91       	ld	r24, X+
    303a:	9c 91       	ld	r25, X
    303c:	0c 96       	adiw	r24, 0x0c	; 12
    303e:	dc 01       	movw	r26, r24
    3040:	ed 91       	ld	r30, X+
    3042:	fc 91       	ld	r31, X
    3044:	8b 81       	ldd	r24, Y+3	; 0x03
    3046:	28 2f       	mov	r18, r24
    3048:	88 0f       	add	r24, r24
    304a:	33 0b       	sbc	r19, r19
    304c:	8b a9       	ldd	r24, Y+51	; 0x33
    304e:	9c a9       	ldd	r25, Y+52	; 0x34
    3050:	a9 01       	movw	r20, r18
    3052:	48 0f       	add	r20, r24
    3054:	59 1f       	adc	r21, r25
    3056:	89 81       	ldd	r24, Y+1	; 0x01
    3058:	28 2f       	mov	r18, r24
    305a:	88 0f       	add	r24, r24
    305c:	33 0b       	sbc	r19, r19
    305e:	89 a9       	ldd	r24, Y+49	; 0x31
    3060:	9a a9       	ldd	r25, Y+50	; 0x32
    3062:	b9 01       	movw	r22, r18
    3064:	68 0f       	add	r22, r24
    3066:	79 1f       	adc	r23, r25
    3068:	2e a9       	ldd	r18, Y+54	; 0x36
    306a:	3f a9       	ldd	r19, Y+55	; 0x37
    306c:	8f a5       	ldd	r24, Y+47	; 0x2f
    306e:	98 a9       	ldd	r25, Y+48	; 0x30
    3070:	19 95       	eicall
    3072:	aa c0       	rjmp	.+340    	; 0x31c8 <_ZN12Adafruit_GFX8drawCharEiihjjhh+0x2fc>
    3074:	8f a5       	ldd	r24, Y+47	; 0x2f
    3076:	98 a9       	ldd	r25, Y+48	; 0x30
    3078:	fc 01       	movw	r30, r24
    307a:	80 81       	ld	r24, Z
    307c:	91 81       	ldd	r25, Z+1	; 0x01
    307e:	0e 96       	adiw	r24, 0x0e	; 14
    3080:	dc 01       	movw	r26, r24
    3082:	ed 91       	ld	r30, X+
    3084:	fc 91       	ld	r31, X
    3086:	8b ad       	ldd	r24, Y+59	; 0x3b
    3088:	08 2f       	mov	r16, r24
    308a:	10 e0       	ldi	r17, 0x00	; 0
    308c:	8a ad       	ldd	r24, Y+58	; 0x3a
    308e:	c8 2e       	mov	r12, r24
    3090:	d1 2c       	mov	r13, r1
    3092:	8b 81       	ldd	r24, Y+3	; 0x03
    3094:	48 2f       	mov	r20, r24
    3096:	88 0f       	add	r24, r24
    3098:	55 0b       	sbc	r21, r21
    309a:	8b ad       	ldd	r24, Y+59	; 0x3b
    309c:	88 2f       	mov	r24, r24
    309e:	90 e0       	ldi	r25, 0x00	; 0
    30a0:	48 9f       	mul	r20, r24
    30a2:	90 01       	movw	r18, r0
    30a4:	49 9f       	mul	r20, r25
    30a6:	30 0d       	add	r19, r0
    30a8:	58 9f       	mul	r21, r24
    30aa:	30 0d       	add	r19, r0
    30ac:	11 24       	eor	r1, r1
    30ae:	8b a9       	ldd	r24, Y+51	; 0x33
    30b0:	9c a9       	ldd	r25, Y+52	; 0x34
    30b2:	d9 01       	movw	r26, r18
    30b4:	a8 0f       	add	r26, r24
    30b6:	b9 1f       	adc	r27, r25
    30b8:	89 81       	ldd	r24, Y+1	; 0x01
    30ba:	48 2f       	mov	r20, r24
    30bc:	88 0f       	add	r24, r24
    30be:	55 0b       	sbc	r21, r21
    30c0:	8a ad       	ldd	r24, Y+58	; 0x3a
    30c2:	88 2f       	mov	r24, r24
    30c4:	90 e0       	ldi	r25, 0x00	; 0
    30c6:	48 9f       	mul	r20, r24
    30c8:	90 01       	movw	r18, r0
    30ca:	49 9f       	mul	r20, r25
    30cc:	30 0d       	add	r19, r0
    30ce:	58 9f       	mul	r21, r24
    30d0:	30 0d       	add	r19, r0
    30d2:	11 24       	eor	r1, r1
    30d4:	89 a9       	ldd	r24, Y+49	; 0x31
    30d6:	9a a9       	ldd	r25, Y+50	; 0x32
    30d8:	b9 01       	movw	r22, r18
    30da:	68 0f       	add	r22, r24
    30dc:	79 1f       	adc	r23, r25
    30de:	2e a9       	ldd	r18, Y+54	; 0x36
    30e0:	3f a9       	ldd	r19, Y+55	; 0x37
    30e2:	8f a5       	ldd	r24, Y+47	; 0x2f
    30e4:	98 a9       	ldd	r25, Y+48	; 0x30
    30e6:	79 01       	movw	r14, r18
    30e8:	96 01       	movw	r18, r12
    30ea:	ad 01       	movw	r20, r26
    30ec:	19 95       	eicall
    30ee:	6c c0       	rjmp	.+216    	; 0x31c8 <_ZN12Adafruit_GFX8drawCharEiihjjhh+0x2fc>
    30f0:	28 ad       	ldd	r18, Y+56	; 0x38
    30f2:	39 ad       	ldd	r19, Y+57	; 0x39
    30f4:	8e a9       	ldd	r24, Y+54	; 0x36
    30f6:	9f a9       	ldd	r25, Y+55	; 0x37
    30f8:	28 17       	cp	r18, r24
    30fa:	39 07       	cpc	r19, r25
    30fc:	09 f4       	brne	.+2      	; 0x3100 <_ZN12Adafruit_GFX8drawCharEiihjjhh+0x234>
    30fe:	64 c0       	rjmp	.+200    	; 0x31c8 <_ZN12Adafruit_GFX8drawCharEiihjjhh+0x2fc>
    3100:	8a ad       	ldd	r24, Y+58	; 0x3a
    3102:	81 30       	cpi	r24, 0x01	; 1
    3104:	21 f5       	brne	.+72     	; 0x314e <_ZN12Adafruit_GFX8drawCharEiihjjhh+0x282>
    3106:	8b ad       	ldd	r24, Y+59	; 0x3b
    3108:	81 30       	cpi	r24, 0x01	; 1
    310a:	09 f5       	brne	.+66     	; 0x314e <_ZN12Adafruit_GFX8drawCharEiihjjhh+0x282>
    310c:	8f a5       	ldd	r24, Y+47	; 0x2f
    310e:	98 a9       	ldd	r25, Y+48	; 0x30
    3110:	fc 01       	movw	r30, r24
    3112:	80 81       	ld	r24, Z
    3114:	91 81       	ldd	r25, Z+1	; 0x01
    3116:	0c 96       	adiw	r24, 0x0c	; 12
    3118:	dc 01       	movw	r26, r24
    311a:	ed 91       	ld	r30, X+
    311c:	fc 91       	ld	r31, X
    311e:	8b 81       	ldd	r24, Y+3	; 0x03
    3120:	28 2f       	mov	r18, r24
    3122:	88 0f       	add	r24, r24
    3124:	33 0b       	sbc	r19, r19
    3126:	8b a9       	ldd	r24, Y+51	; 0x33
    3128:	9c a9       	ldd	r25, Y+52	; 0x34
    312a:	a9 01       	movw	r20, r18
    312c:	48 0f       	add	r20, r24
    312e:	59 1f       	adc	r21, r25
    3130:	89 81       	ldd	r24, Y+1	; 0x01
    3132:	28 2f       	mov	r18, r24
    3134:	88 0f       	add	r24, r24
    3136:	33 0b       	sbc	r19, r19
    3138:	89 a9       	ldd	r24, Y+49	; 0x31
    313a:	9a a9       	ldd	r25, Y+50	; 0x32
    313c:	b9 01       	movw	r22, r18
    313e:	68 0f       	add	r22, r24
    3140:	79 1f       	adc	r23, r25
    3142:	28 ad       	ldd	r18, Y+56	; 0x38
    3144:	39 ad       	ldd	r19, Y+57	; 0x39
    3146:	8f a5       	ldd	r24, Y+47	; 0x2f
    3148:	98 a9       	ldd	r25, Y+48	; 0x30
    314a:	19 95       	eicall
    314c:	3d c0       	rjmp	.+122    	; 0x31c8 <_ZN12Adafruit_GFX8drawCharEiihjjhh+0x2fc>
    314e:	8f a5       	ldd	r24, Y+47	; 0x2f
    3150:	98 a9       	ldd	r25, Y+48	; 0x30
    3152:	fc 01       	movw	r30, r24
    3154:	80 81       	ld	r24, Z
    3156:	91 81       	ldd	r25, Z+1	; 0x01
    3158:	0e 96       	adiw	r24, 0x0e	; 14
    315a:	dc 01       	movw	r26, r24
    315c:	ed 91       	ld	r30, X+
    315e:	fc 91       	ld	r31, X
    3160:	8b ad       	ldd	r24, Y+59	; 0x3b
    3162:	08 2f       	mov	r16, r24
    3164:	10 e0       	ldi	r17, 0x00	; 0
    3166:	8a ad       	ldd	r24, Y+58	; 0x3a
    3168:	c8 2e       	mov	r12, r24
    316a:	d1 2c       	mov	r13, r1
    316c:	8b 81       	ldd	r24, Y+3	; 0x03
    316e:	48 2f       	mov	r20, r24
    3170:	88 0f       	add	r24, r24
    3172:	55 0b       	sbc	r21, r21
    3174:	8b ad       	ldd	r24, Y+59	; 0x3b
    3176:	88 2f       	mov	r24, r24
    3178:	90 e0       	ldi	r25, 0x00	; 0
    317a:	48 9f       	mul	r20, r24
    317c:	90 01       	movw	r18, r0
    317e:	49 9f       	mul	r20, r25
    3180:	30 0d       	add	r19, r0
    3182:	58 9f       	mul	r21, r24
    3184:	30 0d       	add	r19, r0
    3186:	11 24       	eor	r1, r1
    3188:	8b a9       	ldd	r24, Y+51	; 0x33
    318a:	9c a9       	ldd	r25, Y+52	; 0x34
    318c:	d9 01       	movw	r26, r18
    318e:	a8 0f       	add	r26, r24
    3190:	b9 1f       	adc	r27, r25
    3192:	89 81       	ldd	r24, Y+1	; 0x01
    3194:	48 2f       	mov	r20, r24
    3196:	88 0f       	add	r24, r24
    3198:	55 0b       	sbc	r21, r21
    319a:	8a ad       	ldd	r24, Y+58	; 0x3a
    319c:	88 2f       	mov	r24, r24
    319e:	90 e0       	ldi	r25, 0x00	; 0
    31a0:	48 9f       	mul	r20, r24
    31a2:	90 01       	movw	r18, r0
    31a4:	49 9f       	mul	r20, r25
    31a6:	30 0d       	add	r19, r0
    31a8:	58 9f       	mul	r21, r24
    31aa:	30 0d       	add	r19, r0
    31ac:	11 24       	eor	r1, r1
    31ae:	89 a9       	ldd	r24, Y+49	; 0x31
    31b0:	9a a9       	ldd	r25, Y+50	; 0x32
    31b2:	b9 01       	movw	r22, r18
    31b4:	68 0f       	add	r22, r24
    31b6:	79 1f       	adc	r23, r25
    31b8:	28 ad       	ldd	r18, Y+56	; 0x38
    31ba:	39 ad       	ldd	r19, Y+57	; 0x39
    31bc:	8f a5       	ldd	r24, Y+47	; 0x2f
    31be:	98 a9       	ldd	r25, Y+48	; 0x30
    31c0:	79 01       	movw	r14, r18
    31c2:	96 01       	movw	r18, r12
    31c4:	ad 01       	movw	r20, r26
    31c6:	19 95       	eicall
    31c8:	8b 81       	ldd	r24, Y+3	; 0x03
    31ca:	8f 5f       	subi	r24, 0xFF	; 255
    31cc:	8b 83       	std	Y+3, r24	; 0x03
    31ce:	8a 81       	ldd	r24, Y+2	; 0x02
    31d0:	88 2f       	mov	r24, r24
    31d2:	90 e0       	ldi	r25, 0x00	; 0
    31d4:	95 95       	asr	r25
    31d6:	87 95       	ror	r24
    31d8:	8a 83       	std	Y+2, r24	; 0x02
    31da:	19 cf       	rjmp	.-462    	; 0x300e <_ZN12Adafruit_GFX8drawCharEiihjjhh+0x142>
    31dc:	89 81       	ldd	r24, Y+1	; 0x01
    31de:	8f 5f       	subi	r24, 0xFF	; 255
    31e0:	89 83       	std	Y+1, r24	; 0x01
    31e2:	f5 ce       	rjmp	.-534    	; 0x2fce <_ZN12Adafruit_GFX8drawCharEiihjjhh+0x102>
    31e4:	28 ad       	ldd	r18, Y+56	; 0x38
    31e6:	39 ad       	ldd	r19, Y+57	; 0x39
    31e8:	8e a9       	ldd	r24, Y+54	; 0x36
    31ea:	9f a9       	ldd	r25, Y+55	; 0x37
    31ec:	28 17       	cp	r18, r24
    31ee:	39 07       	cpc	r19, r25
    31f0:	09 f4       	brne	.+2      	; 0x31f4 <_ZN12Adafruit_GFX8drawCharEiihjjhh+0x328>
    31f2:	4d c0       	rjmp	.+154    	; 0x328e <_ZN12Adafruit_GFX8drawCharEiihjjhh+0x3c2>
    31f4:	8a ad       	ldd	r24, Y+58	; 0x3a
    31f6:	81 30       	cpi	r24, 0x01	; 1
    31f8:	e1 f4       	brne	.+56     	; 0x3232 <_ZN12Adafruit_GFX8drawCharEiihjjhh+0x366>
    31fa:	8b ad       	ldd	r24, Y+59	; 0x3b
    31fc:	81 30       	cpi	r24, 0x01	; 1
    31fe:	c9 f4       	brne	.+50     	; 0x3232 <_ZN12Adafruit_GFX8drawCharEiihjjhh+0x366>
    3200:	8f a5       	ldd	r24, Y+47	; 0x2f
    3202:	98 a9       	ldd	r25, Y+48	; 0x30
    3204:	fc 01       	movw	r30, r24
    3206:	80 81       	ld	r24, Z
    3208:	91 81       	ldd	r25, Z+1	; 0x01
    320a:	40 96       	adiw	r24, 0x10	; 16
    320c:	dc 01       	movw	r26, r24
    320e:	ed 91       	ld	r30, X+
    3210:	fc 91       	ld	r31, X
    3212:	89 a9       	ldd	r24, Y+49	; 0x31
    3214:	9a a9       	ldd	r25, Y+50	; 0x32
    3216:	bc 01       	movw	r22, r24
    3218:	6b 5f       	subi	r22, 0xFB	; 251
    321a:	7f 4f       	sbci	r23, 0xFF	; 255
    321c:	28 ad       	ldd	r18, Y+56	; 0x38
    321e:	39 ad       	ldd	r19, Y+57	; 0x39
    3220:	4b a9       	ldd	r20, Y+51	; 0x33
    3222:	5c a9       	ldd	r21, Y+52	; 0x34
    3224:	8f a5       	ldd	r24, Y+47	; 0x2f
    3226:	98 a9       	ldd	r25, Y+48	; 0x30
    3228:	89 01       	movw	r16, r18
    322a:	28 e0       	ldi	r18, 0x08	; 8
    322c:	30 e0       	ldi	r19, 0x00	; 0
    322e:	19 95       	eicall
    3230:	2e c0       	rjmp	.+92     	; 0x328e <_ZN12Adafruit_GFX8drawCharEiihjjhh+0x3c2>
    3232:	8f a5       	ldd	r24, Y+47	; 0x2f
    3234:	98 a9       	ldd	r25, Y+48	; 0x30
    3236:	fc 01       	movw	r30, r24
    3238:	80 81       	ld	r24, Z
    323a:	91 81       	ldd	r25, Z+1	; 0x01
    323c:	0e 96       	adiw	r24, 0x0e	; 14
    323e:	dc 01       	movw	r26, r24
    3240:	ed 91       	ld	r30, X+
    3242:	fc 91       	ld	r31, X
    3244:	8b ad       	ldd	r24, Y+59	; 0x3b
    3246:	88 2f       	mov	r24, r24
    3248:	90 e0       	ldi	r25, 0x00	; 0
    324a:	8c 01       	movw	r16, r24
    324c:	00 0f       	add	r16, r16
    324e:	11 1f       	adc	r17, r17
    3250:	00 0f       	add	r16, r16
    3252:	11 1f       	adc	r17, r17
    3254:	00 0f       	add	r16, r16
    3256:	11 1f       	adc	r17, r17
    3258:	8a ad       	ldd	r24, Y+58	; 0x3a
    325a:	a8 2f       	mov	r26, r24
    325c:	b0 e0       	ldi	r27, 0x00	; 0
    325e:	8a ad       	ldd	r24, Y+58	; 0x3a
    3260:	28 2f       	mov	r18, r24
    3262:	30 e0       	ldi	r19, 0x00	; 0
    3264:	c9 01       	movw	r24, r18
    3266:	88 0f       	add	r24, r24
    3268:	99 1f       	adc	r25, r25
    326a:	88 0f       	add	r24, r24
    326c:	99 1f       	adc	r25, r25
    326e:	28 0f       	add	r18, r24
    3270:	39 1f       	adc	r19, r25
    3272:	89 a9       	ldd	r24, Y+49	; 0x31
    3274:	9a a9       	ldd	r25, Y+50	; 0x32
    3276:	b9 01       	movw	r22, r18
    3278:	68 0f       	add	r22, r24
    327a:	79 1f       	adc	r23, r25
    327c:	28 ad       	ldd	r18, Y+56	; 0x38
    327e:	39 ad       	ldd	r19, Y+57	; 0x39
    3280:	4b a9       	ldd	r20, Y+51	; 0x33
    3282:	5c a9       	ldd	r21, Y+52	; 0x34
    3284:	8f a5       	ldd	r24, Y+47	; 0x2f
    3286:	98 a9       	ldd	r25, Y+48	; 0x30
    3288:	79 01       	movw	r14, r18
    328a:	9d 01       	movw	r18, r26
    328c:	19 95       	eicall
    328e:	8f a5       	ldd	r24, Y+47	; 0x2f
    3290:	98 a9       	ldd	r25, Y+48	; 0x30
    3292:	fc 01       	movw	r30, r24
    3294:	80 81       	ld	r24, Z
    3296:	91 81       	ldd	r25, Z+1	; 0x01
    3298:	46 96       	adiw	r24, 0x16	; 22
    329a:	dc 01       	movw	r26, r24
    329c:	2d 91       	ld	r18, X+
    329e:	3c 91       	ld	r19, X
    32a0:	8f a5       	ldd	r24, Y+47	; 0x2f
    32a2:	98 a9       	ldd	r25, Y+48	; 0x30
    32a4:	f9 01       	movw	r30, r18
    32a6:	19 95       	eicall
    32a8:	53 c1       	rjmp	.+678    	; 0x3550 <_ZN12Adafruit_GFX8drawCharEiihjjhh+0x684>
    32aa:	8f a5       	ldd	r24, Y+47	; 0x2f
    32ac:	98 a9       	ldd	r25, Y+48	; 0x30
    32ae:	dc 01       	movw	r26, r24
    32b0:	59 96       	adiw	r26, 0x19	; 25
    32b2:	8d 91       	ld	r24, X+
    32b4:	9c 91       	ld	r25, X
    32b6:	5a 97       	sbiw	r26, 0x1a	; 26
    32b8:	04 96       	adiw	r24, 0x04	; 4
    32ba:	9a 8b       	std	Y+18, r25	; 0x12
    32bc:	89 8b       	std	Y+17, r24	; 0x11
    32be:	89 89       	ldd	r24, Y+17	; 0x11
    32c0:	9a 89       	ldd	r25, Y+18	; 0x12
    32c2:	fc 01       	movw	r30, r24
    32c4:	84 91       	lpm	r24, Z
    32c6:	8b 8b       	std	Y+19, r24	; 0x13
    32c8:	8b 89       	ldd	r24, Y+19	; 0x13
    32ca:	9d a9       	ldd	r25, Y+53	; 0x35
    32cc:	f9 2f       	mov	r31, r25
    32ce:	f8 1b       	sub	r31, r24
    32d0:	8f 2f       	mov	r24, r31
    32d2:	8d ab       	std	Y+53, r24	; 0x35
    32d4:	8f a5       	ldd	r24, Y+47	; 0x2f
    32d6:	98 a9       	ldd	r25, Y+48	; 0x30
    32d8:	dc 01       	movw	r26, r24
    32da:	59 96       	adiw	r26, 0x19	; 25
    32dc:	8d 91       	ld	r24, X+
    32de:	9c 91       	ld	r25, X
    32e0:	5a 97       	sbiw	r26, 0x1a	; 26
    32e2:	6d a9       	ldd	r22, Y+53	; 0x35
    32e4:	0e 94 ec 10 	call	0x21d8	; 0x21d8 <_Z18pgm_read_glyph_ptrPK7GFXfonth>
    32e8:	9d 8b       	std	Y+21, r25	; 0x15
    32ea:	8c 8b       	std	Y+20, r24	; 0x14
    32ec:	8f a5       	ldd	r24, Y+47	; 0x2f
    32ee:	98 a9       	ldd	r25, Y+48	; 0x30
    32f0:	fc 01       	movw	r30, r24
    32f2:	81 8d       	ldd	r24, Z+25	; 0x19
    32f4:	92 8d       	ldd	r25, Z+26	; 0x1a
    32f6:	0e 94 23 11 	call	0x2246	; 0x2246 <_Z19pgm_read_bitmap_ptrPK7GFXfont>
    32fa:	9f 8b       	std	Y+23, r25	; 0x17
    32fc:	8e 8b       	std	Y+22, r24	; 0x16
    32fe:	8c 89       	ldd	r24, Y+20	; 0x14
    3300:	9d 89       	ldd	r25, Y+21	; 0x15
    3302:	99 8f       	std	Y+25, r25	; 0x19
    3304:	88 8f       	std	Y+24, r24	; 0x18
    3306:	88 8d       	ldd	r24, Y+24	; 0x18
    3308:	99 8d       	ldd	r25, Y+25	; 0x19
    330a:	fc 01       	movw	r30, r24
    330c:	25 91       	lpm	r18, Z+
    330e:	34 91       	lpm	r19, Z
    3310:	cf 01       	movw	r24, r30
    3312:	3b 8f       	std	Y+27, r19	; 0x1b
    3314:	2a 8f       	std	Y+26, r18	; 0x1a
    3316:	99 8f       	std	Y+25, r25	; 0x19
    3318:	88 8f       	std	Y+24, r24	; 0x18
    331a:	8a 8d       	ldd	r24, Y+26	; 0x1a
    331c:	9b 8d       	ldd	r25, Y+27	; 0x1b
    331e:	9d 83       	std	Y+5, r25	; 0x05
    3320:	8c 83       	std	Y+4, r24	; 0x04
    3322:	8c 89       	ldd	r24, Y+20	; 0x14
    3324:	9d 89       	ldd	r25, Y+21	; 0x15
    3326:	02 96       	adiw	r24, 0x02	; 2
    3328:	9d 8f       	std	Y+29, r25	; 0x1d
    332a:	8c 8f       	std	Y+28, r24	; 0x1c
    332c:	8c 8d       	ldd	r24, Y+28	; 0x1c
    332e:	9d 8d       	ldd	r25, Y+29	; 0x1d
    3330:	fc 01       	movw	r30, r24
    3332:	84 91       	lpm	r24, Z
    3334:	8e 8f       	std	Y+30, r24	; 0x1e
    3336:	8e 8d       	ldd	r24, Y+30	; 0x1e
    3338:	8f 8f       	std	Y+31, r24	; 0x1f
    333a:	8c 89       	ldd	r24, Y+20	; 0x14
    333c:	9d 89       	ldd	r25, Y+21	; 0x15
    333e:	03 96       	adiw	r24, 0x03	; 3
    3340:	99 a3       	std	Y+33, r25	; 0x21
    3342:	88 a3       	std	Y+32, r24	; 0x20
    3344:	88 a1       	ldd	r24, Y+32	; 0x20
    3346:	99 a1       	ldd	r25, Y+33	; 0x21
    3348:	fc 01       	movw	r30, r24
    334a:	84 91       	lpm	r24, Z
    334c:	8a a3       	std	Y+34, r24	; 0x22
    334e:	8a a1       	ldd	r24, Y+34	; 0x22
    3350:	8b a3       	std	Y+35, r24	; 0x23
    3352:	8c 89       	ldd	r24, Y+20	; 0x14
    3354:	9d 89       	ldd	r25, Y+21	; 0x15
    3356:	05 96       	adiw	r24, 0x05	; 5
    3358:	9d a3       	std	Y+37, r25	; 0x25
    335a:	8c a3       	std	Y+36, r24	; 0x24
    335c:	8c a1       	ldd	r24, Y+36	; 0x24
    335e:	9d a1       	ldd	r25, Y+37	; 0x25
    3360:	fc 01       	movw	r30, r24
    3362:	84 91       	lpm	r24, Z
    3364:	8e a3       	std	Y+38, r24	; 0x26
    3366:	8e a1       	ldd	r24, Y+38	; 0x26
    3368:	8f a3       	std	Y+39, r24	; 0x27
    336a:	8c 89       	ldd	r24, Y+20	; 0x14
    336c:	9d 89       	ldd	r25, Y+21	; 0x15
    336e:	06 96       	adiw	r24, 0x06	; 6
    3370:	99 a7       	std	Y+41, r25	; 0x29
    3372:	88 a7       	std	Y+40, r24	; 0x28
    3374:	88 a5       	ldd	r24, Y+40	; 0x28
    3376:	99 a5       	ldd	r25, Y+41	; 0x29
    3378:	fc 01       	movw	r30, r24
    337a:	84 91       	lpm	r24, Z
    337c:	8a a7       	std	Y+42, r24	; 0x2a
    337e:	8a a5       	ldd	r24, Y+42	; 0x2a
    3380:	8b a7       	std	Y+43, r24	; 0x2b
    3382:	18 86       	std	Y+8, r1	; 0x08
    3384:	19 86       	std	Y+9, r1	; 0x09
    3386:	1b 86       	std	Y+11, r1	; 0x0b
    3388:	1a 86       	std	Y+10, r1	; 0x0a
    338a:	1d 86       	std	Y+13, r1	; 0x0d
    338c:	1c 86       	std	Y+12, r1	; 0x0c
    338e:	8a ad       	ldd	r24, Y+58	; 0x3a
    3390:	82 30       	cpi	r24, 0x02	; 2
    3392:	18 f4       	brcc	.+6      	; 0x339a <_ZN12Adafruit_GFX8drawCharEiihjjhh+0x4ce>
    3394:	8b ad       	ldd	r24, Y+59	; 0x3b
    3396:	82 30       	cpi	r24, 0x02	; 2
    3398:	60 f0       	brcs	.+24     	; 0x33b2 <_ZN12Adafruit_GFX8drawCharEiihjjhh+0x4e6>
    339a:	8f a1       	ldd	r24, Y+39	; 0x27
    339c:	08 2e       	mov	r0, r24
    339e:	00 0c       	add	r0, r0
    33a0:	99 0b       	sbc	r25, r25
    33a2:	9b 87       	std	Y+11, r25	; 0x0b
    33a4:	8a 87       	std	Y+10, r24	; 0x0a
    33a6:	8b a5       	ldd	r24, Y+43	; 0x2b
    33a8:	08 2e       	mov	r0, r24
    33aa:	00 0c       	add	r0, r0
    33ac:	99 0b       	sbc	r25, r25
    33ae:	9d 87       	std	Y+13, r25	; 0x0d
    33b0:	8c 87       	std	Y+12, r24	; 0x0c
    33b2:	8f a5       	ldd	r24, Y+47	; 0x2f
    33b4:	98 a9       	ldd	r25, Y+48	; 0x30
    33b6:	dc 01       	movw	r26, r24
    33b8:	8d 91       	ld	r24, X+
    33ba:	9c 91       	ld	r25, X
    33bc:	0a 96       	adiw	r24, 0x0a	; 10
    33be:	fc 01       	movw	r30, r24
    33c0:	20 81       	ld	r18, Z
    33c2:	31 81       	ldd	r19, Z+1	; 0x01
    33c4:	8f a5       	ldd	r24, Y+47	; 0x2f
    33c6:	98 a9       	ldd	r25, Y+48	; 0x30
    33c8:	f9 01       	movw	r30, r18
    33ca:	19 95       	eicall
    33cc:	1f 82       	std	Y+7, r1	; 0x07
    33ce:	9f 81       	ldd	r25, Y+7	; 0x07
    33d0:	8b a1       	ldd	r24, Y+35	; 0x23
    33d2:	98 17       	cp	r25, r24
    33d4:	08 f0       	brcs	.+2      	; 0x33d8 <_ZN12Adafruit_GFX8drawCharEiihjjhh+0x50c>
    33d6:	ad c0       	rjmp	.+346    	; 0x3532 <_ZN12Adafruit_GFX8drawCharEiihjjhh+0x666>
    33d8:	1e 82       	std	Y+6, r1	; 0x06
    33da:	9e 81       	ldd	r25, Y+6	; 0x06
    33dc:	8f 8d       	ldd	r24, Y+31	; 0x1f
    33de:	98 17       	cp	r25, r24
    33e0:	08 f0       	brcs	.+2      	; 0x33e4 <_ZN12Adafruit_GFX8drawCharEiihjjhh+0x518>
    33e2:	a3 c0       	rjmp	.+326    	; 0x352a <_ZN12Adafruit_GFX8drawCharEiihjjhh+0x65e>
    33e4:	89 85       	ldd	r24, Y+9	; 0x09
    33e6:	91 e0       	ldi	r25, 0x01	; 1
    33e8:	98 0f       	add	r25, r24
    33ea:	99 87       	std	Y+9, r25	; 0x09
    33ec:	88 2f       	mov	r24, r24
    33ee:	90 e0       	ldi	r25, 0x00	; 0
    33f0:	87 70       	andi	r24, 0x07	; 7
    33f2:	99 27       	eor	r25, r25
    33f4:	21 e0       	ldi	r18, 0x01	; 1
    33f6:	89 2b       	or	r24, r25
    33f8:	09 f0       	breq	.+2      	; 0x33fc <_ZN12Adafruit_GFX8drawCharEiihjjhh+0x530>
    33fa:	20 e0       	ldi	r18, 0x00	; 0
    33fc:	22 23       	and	r18, r18
    33fe:	a1 f0       	breq	.+40     	; 0x3428 <_ZN12Adafruit_GFX8drawCharEiihjjhh+0x55c>
    3400:	8c 81       	ldd	r24, Y+4	; 0x04
    3402:	9d 81       	ldd	r25, Y+5	; 0x05
    3404:	9c 01       	movw	r18, r24
    3406:	2f 5f       	subi	r18, 0xFF	; 255
    3408:	3f 4f       	sbci	r19, 0xFF	; 255
    340a:	3d 83       	std	Y+5, r19	; 0x05
    340c:	2c 83       	std	Y+4, r18	; 0x04
    340e:	2e 89       	ldd	r18, Y+22	; 0x16
    3410:	3f 89       	ldd	r19, Y+23	; 0x17
    3412:	82 0f       	add	r24, r18
    3414:	93 1f       	adc	r25, r19
    3416:	9d a7       	std	Y+45, r25	; 0x2d
    3418:	8c a7       	std	Y+44, r24	; 0x2c
    341a:	8c a5       	ldd	r24, Y+44	; 0x2c
    341c:	9d a5       	ldd	r25, Y+45	; 0x2d
    341e:	fc 01       	movw	r30, r24
    3420:	84 91       	lpm	r24, Z
    3422:	8e a7       	std	Y+46, r24	; 0x2e
    3424:	8e a5       	ldd	r24, Y+46	; 0x2e
    3426:	88 87       	std	Y+8, r24	; 0x08
    3428:	88 85       	ldd	r24, Y+8	; 0x08
    342a:	88 23       	and	r24, r24
    342c:	0c f0       	brlt	.+2      	; 0x3430 <_ZN12Adafruit_GFX8drawCharEiihjjhh+0x564>
    342e:	76 c0       	rjmp	.+236    	; 0x351c <_ZN12Adafruit_GFX8drawCharEiihjjhh+0x650>
    3430:	8a ad       	ldd	r24, Y+58	; 0x3a
    3432:	81 30       	cpi	r24, 0x01	; 1
    3434:	71 f5       	brne	.+92     	; 0x3492 <_ZN12Adafruit_GFX8drawCharEiihjjhh+0x5c6>
    3436:	8b ad       	ldd	r24, Y+59	; 0x3b
    3438:	81 30       	cpi	r24, 0x01	; 1
    343a:	59 f5       	brne	.+86     	; 0x3492 <_ZN12Adafruit_GFX8drawCharEiihjjhh+0x5c6>
    343c:	8f a5       	ldd	r24, Y+47	; 0x2f
    343e:	98 a9       	ldd	r25, Y+48	; 0x30
    3440:	dc 01       	movw	r26, r24
    3442:	8d 91       	ld	r24, X+
    3444:	9c 91       	ld	r25, X
    3446:	0c 96       	adiw	r24, 0x0c	; 12
    3448:	dc 01       	movw	r26, r24
    344a:	ed 91       	ld	r30, X+
    344c:	fc 91       	ld	r31, X
    344e:	8b a5       	ldd	r24, Y+43	; 0x2b
    3450:	28 2f       	mov	r18, r24
    3452:	88 0f       	add	r24, r24
    3454:	33 0b       	sbc	r19, r19
    3456:	8b a9       	ldd	r24, Y+51	; 0x33
    3458:	9c a9       	ldd	r25, Y+52	; 0x34
    345a:	28 0f       	add	r18, r24
    345c:	39 1f       	adc	r19, r25
    345e:	8f 81       	ldd	r24, Y+7	; 0x07
    3460:	88 2f       	mov	r24, r24
    3462:	90 e0       	ldi	r25, 0x00	; 0
    3464:	a9 01       	movw	r20, r18
    3466:	48 0f       	add	r20, r24
    3468:	59 1f       	adc	r21, r25
    346a:	8f a1       	ldd	r24, Y+39	; 0x27
    346c:	28 2f       	mov	r18, r24
    346e:	88 0f       	add	r24, r24
    3470:	33 0b       	sbc	r19, r19
    3472:	89 a9       	ldd	r24, Y+49	; 0x31
    3474:	9a a9       	ldd	r25, Y+50	; 0x32
    3476:	28 0f       	add	r18, r24
    3478:	39 1f       	adc	r19, r25
    347a:	8e 81       	ldd	r24, Y+6	; 0x06
    347c:	88 2f       	mov	r24, r24
    347e:	90 e0       	ldi	r25, 0x00	; 0
    3480:	b9 01       	movw	r22, r18
    3482:	68 0f       	add	r22, r24
    3484:	79 1f       	adc	r23, r25
    3486:	2e a9       	ldd	r18, Y+54	; 0x36
    3488:	3f a9       	ldd	r19, Y+55	; 0x37
    348a:	8f a5       	ldd	r24, Y+47	; 0x2f
    348c:	98 a9       	ldd	r25, Y+48	; 0x30
    348e:	19 95       	eicall
    3490:	45 c0       	rjmp	.+138    	; 0x351c <_ZN12Adafruit_GFX8drawCharEiihjjhh+0x650>
    3492:	8f a5       	ldd	r24, Y+47	; 0x2f
    3494:	98 a9       	ldd	r25, Y+48	; 0x30
    3496:	fc 01       	movw	r30, r24
    3498:	80 81       	ld	r24, Z
    349a:	91 81       	ldd	r25, Z+1	; 0x01
    349c:	0e 96       	adiw	r24, 0x0e	; 14
    349e:	dc 01       	movw	r26, r24
    34a0:	ed 91       	ld	r30, X+
    34a2:	fc 91       	ld	r31, X
    34a4:	8b ad       	ldd	r24, Y+59	; 0x3b
    34a6:	08 2f       	mov	r16, r24
    34a8:	10 e0       	ldi	r17, 0x00	; 0
    34aa:	8a ad       	ldd	r24, Y+58	; 0x3a
    34ac:	c8 2e       	mov	r12, r24
    34ae:	d1 2c       	mov	r13, r1
    34b0:	8f 81       	ldd	r24, Y+7	; 0x07
    34b2:	28 2f       	mov	r18, r24
    34b4:	30 e0       	ldi	r19, 0x00	; 0
    34b6:	8c 85       	ldd	r24, Y+12	; 0x0c
    34b8:	9d 85       	ldd	r25, Y+13	; 0x0d
    34ba:	a9 01       	movw	r20, r18
    34bc:	48 0f       	add	r20, r24
    34be:	59 1f       	adc	r21, r25
    34c0:	8b ad       	ldd	r24, Y+59	; 0x3b
    34c2:	88 2f       	mov	r24, r24
    34c4:	90 e0       	ldi	r25, 0x00	; 0
    34c6:	48 9f       	mul	r20, r24
    34c8:	90 01       	movw	r18, r0
    34ca:	49 9f       	mul	r20, r25
    34cc:	30 0d       	add	r19, r0
    34ce:	58 9f       	mul	r21, r24
    34d0:	30 0d       	add	r19, r0
    34d2:	11 24       	eor	r1, r1
    34d4:	8b a9       	ldd	r24, Y+51	; 0x33
    34d6:	9c a9       	ldd	r25, Y+52	; 0x34
    34d8:	d9 01       	movw	r26, r18
    34da:	a8 0f       	add	r26, r24
    34dc:	b9 1f       	adc	r27, r25
    34de:	8e 81       	ldd	r24, Y+6	; 0x06
    34e0:	28 2f       	mov	r18, r24
    34e2:	30 e0       	ldi	r19, 0x00	; 0
    34e4:	8a 85       	ldd	r24, Y+10	; 0x0a
    34e6:	9b 85       	ldd	r25, Y+11	; 0x0b
    34e8:	a9 01       	movw	r20, r18
    34ea:	48 0f       	add	r20, r24
    34ec:	59 1f       	adc	r21, r25
    34ee:	8a ad       	ldd	r24, Y+58	; 0x3a
    34f0:	88 2f       	mov	r24, r24
    34f2:	90 e0       	ldi	r25, 0x00	; 0
    34f4:	48 9f       	mul	r20, r24
    34f6:	90 01       	movw	r18, r0
    34f8:	49 9f       	mul	r20, r25
    34fa:	30 0d       	add	r19, r0
    34fc:	58 9f       	mul	r21, r24
    34fe:	30 0d       	add	r19, r0
    3500:	11 24       	eor	r1, r1
    3502:	89 a9       	ldd	r24, Y+49	; 0x31
    3504:	9a a9       	ldd	r25, Y+50	; 0x32
    3506:	b9 01       	movw	r22, r18
    3508:	68 0f       	add	r22, r24
    350a:	79 1f       	adc	r23, r25
    350c:	2e a9       	ldd	r18, Y+54	; 0x36
    350e:	3f a9       	ldd	r19, Y+55	; 0x37
    3510:	8f a5       	ldd	r24, Y+47	; 0x2f
    3512:	98 a9       	ldd	r25, Y+48	; 0x30
    3514:	79 01       	movw	r14, r18
    3516:	96 01       	movw	r18, r12
    3518:	ad 01       	movw	r20, r26
    351a:	19 95       	eicall
    351c:	88 85       	ldd	r24, Y+8	; 0x08
    351e:	88 0f       	add	r24, r24
    3520:	88 87       	std	Y+8, r24	; 0x08
    3522:	8e 81       	ldd	r24, Y+6	; 0x06
    3524:	8f 5f       	subi	r24, 0xFF	; 255
    3526:	8e 83       	std	Y+6, r24	; 0x06
    3528:	58 cf       	rjmp	.-336    	; 0x33da <_ZN12Adafruit_GFX8drawCharEiihjjhh+0x50e>
    352a:	8f 81       	ldd	r24, Y+7	; 0x07
    352c:	8f 5f       	subi	r24, 0xFF	; 255
    352e:	8f 83       	std	Y+7, r24	; 0x07
    3530:	4e cf       	rjmp	.-356    	; 0x33ce <_ZN12Adafruit_GFX8drawCharEiihjjhh+0x502>
    3532:	8f a5       	ldd	r24, Y+47	; 0x2f
    3534:	98 a9       	ldd	r25, Y+48	; 0x30
    3536:	fc 01       	movw	r30, r24
    3538:	80 81       	ld	r24, Z
    353a:	91 81       	ldd	r25, Z+1	; 0x01
    353c:	46 96       	adiw	r24, 0x16	; 22
    353e:	dc 01       	movw	r26, r24
    3540:	2d 91       	ld	r18, X+
    3542:	3c 91       	ld	r19, X
    3544:	8f a5       	ldd	r24, Y+47	; 0x2f
    3546:	98 a9       	ldd	r25, Y+48	; 0x30
    3548:	f9 01       	movw	r30, r18
    354a:	19 95       	eicall
    354c:	01 c0       	rjmp	.+2      	; 0x3550 <_ZN12Adafruit_GFX8drawCharEiihjjhh+0x684>
    354e:	00 00       	nop
    3550:	eb 96       	adiw	r28, 0x3b	; 59
    3552:	0f b6       	in	r0, 0x3f	; 63
    3554:	f8 94       	cli
    3556:	de bf       	out	0x3e, r29	; 62
    3558:	0f be       	out	0x3f, r0	; 63
    355a:	cd bf       	out	0x3d, r28	; 61
    355c:	df 91       	pop	r29
    355e:	cf 91       	pop	r28
    3560:	1f 91       	pop	r17
    3562:	0f 91       	pop	r16
    3564:	ff 90       	pop	r15
    3566:	ef 90       	pop	r14
    3568:	df 90       	pop	r13
    356a:	cf 90       	pop	r12
    356c:	af 90       	pop	r10
    356e:	08 95       	ret

00003570 <_ZN12Adafruit_GFX5writeEh>:
    3570:	af 92       	push	r10
    3572:	cf 92       	push	r12
    3574:	ef 92       	push	r14
    3576:	ff 92       	push	r15
    3578:	0f 93       	push	r16
    357a:	1f 93       	push	r17
    357c:	cf 93       	push	r28
    357e:	df 93       	push	r29
    3580:	cd b7       	in	r28, 0x3d	; 61
    3582:	de b7       	in	r29, 0x3e	; 62
    3584:	a4 97       	sbiw	r28, 0x24	; 36
    3586:	0f b6       	in	r0, 0x3f	; 63
    3588:	f8 94       	cli
    358a:	de bf       	out	0x3e, r29	; 62
    358c:	0f be       	out	0x3f, r0	; 63
    358e:	cd bf       	out	0x3d, r28	; 61
    3590:	99 a3       	std	Y+33, r25	; 0x21
    3592:	88 a3       	std	Y+32, r24	; 0x20
    3594:	6a a3       	std	Y+34, r22	; 0x22
    3596:	88 a1       	ldd	r24, Y+32	; 0x20
    3598:	99 a1       	ldd	r25, Y+33	; 0x21
    359a:	fc 01       	movw	r30, r24
    359c:	81 8d       	ldd	r24, Z+25	; 0x19
    359e:	92 8d       	ldd	r25, Z+26	; 0x1a
    35a0:	89 2b       	or	r24, r25
    35a2:	09 f0       	breq	.+2      	; 0x35a6 <_ZN12Adafruit_GFX5writeEh+0x36>
    35a4:	a8 c0       	rjmp	.+336    	; 0x36f6 <_ZN12Adafruit_GFX5writeEh+0x186>
    35a6:	8a a1       	ldd	r24, Y+34	; 0x22
    35a8:	8a 30       	cpi	r24, 0x0A	; 10
    35aa:	f1 f4       	brne	.+60     	; 0x35e8 <_ZN12Adafruit_GFX5writeEh+0x78>
    35ac:	88 a1       	ldd	r24, Y+32	; 0x20
    35ae:	99 a1       	ldd	r25, Y+33	; 0x21
    35b0:	fc 01       	movw	r30, r24
    35b2:	15 86       	std	Z+13, r1	; 0x0d
    35b4:	14 86       	std	Z+12, r1	; 0x0c
    35b6:	88 a1       	ldd	r24, Y+32	; 0x20
    35b8:	99 a1       	ldd	r25, Y+33	; 0x21
    35ba:	fc 01       	movw	r30, r24
    35bc:	26 85       	ldd	r18, Z+14	; 0x0e
    35be:	37 85       	ldd	r19, Z+15	; 0x0f
    35c0:	88 a1       	ldd	r24, Y+32	; 0x20
    35c2:	99 a1       	ldd	r25, Y+33	; 0x21
    35c4:	fc 01       	movw	r30, r24
    35c6:	85 89       	ldd	r24, Z+21	; 0x15
    35c8:	88 2f       	mov	r24, r24
    35ca:	90 e0       	ldi	r25, 0x00	; 0
    35cc:	88 0f       	add	r24, r24
    35ce:	99 1f       	adc	r25, r25
    35d0:	88 0f       	add	r24, r24
    35d2:	99 1f       	adc	r25, r25
    35d4:	88 0f       	add	r24, r24
    35d6:	99 1f       	adc	r25, r25
    35d8:	28 0f       	add	r18, r24
    35da:	39 1f       	adc	r19, r25
    35dc:	88 a1       	ldd	r24, Y+32	; 0x20
    35de:	99 a1       	ldd	r25, Y+33	; 0x21
    35e0:	fc 01       	movw	r30, r24
    35e2:	37 87       	std	Z+15, r19	; 0x0f
    35e4:	26 87       	std	Z+14, r18	; 0x0e
    35e6:	cb c1       	rjmp	.+918    	; 0x397e <_ZN12Adafruit_GFX5writeEh+0x40e>
    35e8:	8a a1       	ldd	r24, Y+34	; 0x22
    35ea:	8d 30       	cpi	r24, 0x0D	; 13
    35ec:	09 f4       	brne	.+2      	; 0x35f0 <_ZN12Adafruit_GFX5writeEh+0x80>
    35ee:	c7 c1       	rjmp	.+910    	; 0x397e <_ZN12Adafruit_GFX5writeEh+0x40e>
    35f0:	88 a1       	ldd	r24, Y+32	; 0x20
    35f2:	99 a1       	ldd	r25, Y+33	; 0x21
    35f4:	fc 01       	movw	r30, r24
    35f6:	87 89       	ldd	r24, Z+23	; 0x17
    35f8:	88 23       	and	r24, r24
    35fa:	d1 f1       	breq	.+116    	; 0x3670 <_ZN12Adafruit_GFX5writeEh+0x100>
    35fc:	88 a1       	ldd	r24, Y+32	; 0x20
    35fe:	99 a1       	ldd	r25, Y+33	; 0x21
    3600:	fc 01       	movw	r30, r24
    3602:	44 85       	ldd	r20, Z+12	; 0x0c
    3604:	55 85       	ldd	r21, Z+13	; 0x0d
    3606:	88 a1       	ldd	r24, Y+32	; 0x20
    3608:	99 a1       	ldd	r25, Y+33	; 0x21
    360a:	fc 01       	movw	r30, r24
    360c:	84 89       	ldd	r24, Z+20	; 0x14
    360e:	28 2f       	mov	r18, r24
    3610:	30 e0       	ldi	r19, 0x00	; 0
    3612:	c9 01       	movw	r24, r18
    3614:	88 0f       	add	r24, r24
    3616:	99 1f       	adc	r25, r25
    3618:	82 0f       	add	r24, r18
    361a:	93 1f       	adc	r25, r19
    361c:	88 0f       	add	r24, r24
    361e:	99 1f       	adc	r25, r25
    3620:	9a 01       	movw	r18, r20
    3622:	28 0f       	add	r18, r24
    3624:	39 1f       	adc	r19, r25
    3626:	88 a1       	ldd	r24, Y+32	; 0x20
    3628:	99 a1       	ldd	r25, Y+33	; 0x21
    362a:	fc 01       	movw	r30, r24
    362c:	80 85       	ldd	r24, Z+8	; 0x08
    362e:	91 85       	ldd	r25, Z+9	; 0x09
    3630:	82 17       	cp	r24, r18
    3632:	93 07       	cpc	r25, r19
    3634:	ec f4       	brge	.+58     	; 0x3670 <_ZN12Adafruit_GFX5writeEh+0x100>
    3636:	88 a1       	ldd	r24, Y+32	; 0x20
    3638:	99 a1       	ldd	r25, Y+33	; 0x21
    363a:	fc 01       	movw	r30, r24
    363c:	15 86       	std	Z+13, r1	; 0x0d
    363e:	14 86       	std	Z+12, r1	; 0x0c
    3640:	88 a1       	ldd	r24, Y+32	; 0x20
    3642:	99 a1       	ldd	r25, Y+33	; 0x21
    3644:	fc 01       	movw	r30, r24
    3646:	26 85       	ldd	r18, Z+14	; 0x0e
    3648:	37 85       	ldd	r19, Z+15	; 0x0f
    364a:	88 a1       	ldd	r24, Y+32	; 0x20
    364c:	99 a1       	ldd	r25, Y+33	; 0x21
    364e:	fc 01       	movw	r30, r24
    3650:	85 89       	ldd	r24, Z+21	; 0x15
    3652:	88 2f       	mov	r24, r24
    3654:	90 e0       	ldi	r25, 0x00	; 0
    3656:	88 0f       	add	r24, r24
    3658:	99 1f       	adc	r25, r25
    365a:	88 0f       	add	r24, r24
    365c:	99 1f       	adc	r25, r25
    365e:	88 0f       	add	r24, r24
    3660:	99 1f       	adc	r25, r25
    3662:	28 0f       	add	r18, r24
    3664:	39 1f       	adc	r19, r25
    3666:	88 a1       	ldd	r24, Y+32	; 0x20
    3668:	99 a1       	ldd	r25, Y+33	; 0x21
    366a:	fc 01       	movw	r30, r24
    366c:	37 87       	std	Z+15, r19	; 0x0f
    366e:	26 87       	std	Z+14, r18	; 0x0e
    3670:	88 a1       	ldd	r24, Y+32	; 0x20
    3672:	99 a1       	ldd	r25, Y+33	; 0x21
    3674:	fc 01       	movw	r30, r24
    3676:	b5 89       	ldd	r27, Z+21	; 0x15
    3678:	88 a1       	ldd	r24, Y+32	; 0x20
    367a:	99 a1       	ldd	r25, Y+33	; 0x21
    367c:	fc 01       	movw	r30, r24
    367e:	a4 89       	ldd	r26, Z+20	; 0x14
    3680:	88 a1       	ldd	r24, Y+32	; 0x20
    3682:	99 a1       	ldd	r25, Y+33	; 0x21
    3684:	fc 01       	movw	r30, r24
    3686:	02 88       	ldd	r0, Z+18	; 0x12
    3688:	f3 89       	ldd	r31, Z+19	; 0x13
    368a:	e0 2d       	mov	r30, r0
    368c:	fc a3       	std	Y+36, r31	; 0x24
    368e:	eb a3       	std	Y+35, r30	; 0x23
    3690:	88 a1       	ldd	r24, Y+32	; 0x20
    3692:	99 a1       	ldd	r25, Y+33	; 0x21
    3694:	fc 01       	movw	r30, r24
    3696:	20 89       	ldd	r18, Z+16	; 0x10
    3698:	31 89       	ldd	r19, Z+17	; 0x11
    369a:	88 a1       	ldd	r24, Y+32	; 0x20
    369c:	99 a1       	ldd	r25, Y+33	; 0x21
    369e:	fc 01       	movw	r30, r24
    36a0:	46 85       	ldd	r20, Z+14	; 0x0e
    36a2:	57 85       	ldd	r21, Z+15	; 0x0f
    36a4:	88 a1       	ldd	r24, Y+32	; 0x20
    36a6:	99 a1       	ldd	r25, Y+33	; 0x21
    36a8:	fc 01       	movw	r30, r24
    36aa:	64 85       	ldd	r22, Z+12	; 0x0c
    36ac:	75 85       	ldd	r23, Z+13	; 0x0d
    36ae:	88 a1       	ldd	r24, Y+32	; 0x20
    36b0:	99 a1       	ldd	r25, Y+33	; 0x21
    36b2:	ab 2e       	mov	r10, r27
    36b4:	ca 2e       	mov	r12, r26
    36b6:	eb a0       	ldd	r14, Y+35	; 0x23
    36b8:	fc a0       	ldd	r15, Y+36	; 0x24
    36ba:	89 01       	movw	r16, r18
    36bc:	2a a1       	ldd	r18, Y+34	; 0x22
    36be:	06 dc       	rcall	.-2036   	; 0x2ecc <_ZN12Adafruit_GFX8drawCharEiihjjhh>
    36c0:	88 a1       	ldd	r24, Y+32	; 0x20
    36c2:	99 a1       	ldd	r25, Y+33	; 0x21
    36c4:	fc 01       	movw	r30, r24
    36c6:	44 85       	ldd	r20, Z+12	; 0x0c
    36c8:	55 85       	ldd	r21, Z+13	; 0x0d
    36ca:	88 a1       	ldd	r24, Y+32	; 0x20
    36cc:	99 a1       	ldd	r25, Y+33	; 0x21
    36ce:	fc 01       	movw	r30, r24
    36d0:	84 89       	ldd	r24, Z+20	; 0x14
    36d2:	28 2f       	mov	r18, r24
    36d4:	30 e0       	ldi	r19, 0x00	; 0
    36d6:	c9 01       	movw	r24, r18
    36d8:	88 0f       	add	r24, r24
    36da:	99 1f       	adc	r25, r25
    36dc:	82 0f       	add	r24, r18
    36de:	93 1f       	adc	r25, r19
    36e0:	88 0f       	add	r24, r24
    36e2:	99 1f       	adc	r25, r25
    36e4:	9a 01       	movw	r18, r20
    36e6:	28 0f       	add	r18, r24
    36e8:	39 1f       	adc	r19, r25
    36ea:	88 a1       	ldd	r24, Y+32	; 0x20
    36ec:	99 a1       	ldd	r25, Y+33	; 0x21
    36ee:	fc 01       	movw	r30, r24
    36f0:	35 87       	std	Z+13, r19	; 0x0d
    36f2:	24 87       	std	Z+12, r18	; 0x0c
    36f4:	44 c1       	rjmp	.+648    	; 0x397e <_ZN12Adafruit_GFX5writeEh+0x40e>
    36f6:	8a a1       	ldd	r24, Y+34	; 0x22
    36f8:	8a 30       	cpi	r24, 0x0A	; 10
    36fa:	79 f5       	brne	.+94     	; 0x375a <_ZN12Adafruit_GFX5writeEh+0x1ea>
    36fc:	88 a1       	ldd	r24, Y+32	; 0x20
    36fe:	99 a1       	ldd	r25, Y+33	; 0x21
    3700:	fc 01       	movw	r30, r24
    3702:	15 86       	std	Z+13, r1	; 0x0d
    3704:	14 86       	std	Z+12, r1	; 0x0c
    3706:	88 a1       	ldd	r24, Y+32	; 0x20
    3708:	99 a1       	ldd	r25, Y+33	; 0x21
    370a:	fc 01       	movw	r30, r24
    370c:	85 89       	ldd	r24, Z+21	; 0x15
    370e:	48 2f       	mov	r20, r24
    3710:	50 e0       	ldi	r21, 0x00	; 0
    3712:	88 a1       	ldd	r24, Y+32	; 0x20
    3714:	99 a1       	ldd	r25, Y+33	; 0x21
    3716:	fc 01       	movw	r30, r24
    3718:	81 8d       	ldd	r24, Z+25	; 0x19
    371a:	92 8d       	ldd	r25, Z+26	; 0x1a
    371c:	08 96       	adiw	r24, 0x08	; 8
    371e:	9a 83       	std	Y+2, r25	; 0x02
    3720:	89 83       	std	Y+1, r24	; 0x01
    3722:	89 81       	ldd	r24, Y+1	; 0x01
    3724:	9a 81       	ldd	r25, Y+2	; 0x02
    3726:	fc 01       	movw	r30, r24
    3728:	84 91       	lpm	r24, Z
    372a:	8b 83       	std	Y+3, r24	; 0x03
    372c:	8b 81       	ldd	r24, Y+3	; 0x03
    372e:	28 2f       	mov	r18, r24
    3730:	30 e0       	ldi	r19, 0x00	; 0
    3732:	42 9f       	mul	r20, r18
    3734:	c0 01       	movw	r24, r0
    3736:	43 9f       	mul	r20, r19
    3738:	90 0d       	add	r25, r0
    373a:	52 9f       	mul	r21, r18
    373c:	90 0d       	add	r25, r0
    373e:	11 24       	eor	r1, r1
    3740:	28 a1       	ldd	r18, Y+32	; 0x20
    3742:	39 a1       	ldd	r19, Y+33	; 0x21
    3744:	f9 01       	movw	r30, r18
    3746:	26 85       	ldd	r18, Z+14	; 0x0e
    3748:	37 85       	ldd	r19, Z+15	; 0x0f
    374a:	28 0f       	add	r18, r24
    374c:	39 1f       	adc	r19, r25
    374e:	88 a1       	ldd	r24, Y+32	; 0x20
    3750:	99 a1       	ldd	r25, Y+33	; 0x21
    3752:	fc 01       	movw	r30, r24
    3754:	37 87       	std	Z+15, r19	; 0x0f
    3756:	26 87       	std	Z+14, r18	; 0x0e
    3758:	12 c1       	rjmp	.+548    	; 0x397e <_ZN12Adafruit_GFX5writeEh+0x40e>
    375a:	8a a1       	ldd	r24, Y+34	; 0x22
    375c:	8d 30       	cpi	r24, 0x0D	; 13
    375e:	09 f4       	brne	.+2      	; 0x3762 <_ZN12Adafruit_GFX5writeEh+0x1f2>
    3760:	0e c1       	rjmp	.+540    	; 0x397e <_ZN12Adafruit_GFX5writeEh+0x40e>
    3762:	88 a1       	ldd	r24, Y+32	; 0x20
    3764:	99 a1       	ldd	r25, Y+33	; 0x21
    3766:	fc 01       	movw	r30, r24
    3768:	81 8d       	ldd	r24, Z+25	; 0x19
    376a:	92 8d       	ldd	r25, Z+26	; 0x1a
    376c:	04 96       	adiw	r24, 0x04	; 4
    376e:	9d 83       	std	Y+5, r25	; 0x05
    3770:	8c 83       	std	Y+4, r24	; 0x04
    3772:	8c 81       	ldd	r24, Y+4	; 0x04
    3774:	9d 81       	ldd	r25, Y+5	; 0x05
    3776:	fc 01       	movw	r30, r24
    3778:	84 91       	lpm	r24, Z
    377a:	8e 83       	std	Y+6, r24	; 0x06
    377c:	8e 81       	ldd	r24, Y+6	; 0x06
    377e:	8f 83       	std	Y+7, r24	; 0x07
    3780:	9a a1       	ldd	r25, Y+34	; 0x22
    3782:	8f 81       	ldd	r24, Y+7	; 0x07
    3784:	98 17       	cp	r25, r24
    3786:	98 f0       	brcs	.+38     	; 0x37ae <_ZN12Adafruit_GFX5writeEh+0x23e>
    3788:	88 a1       	ldd	r24, Y+32	; 0x20
    378a:	99 a1       	ldd	r25, Y+33	; 0x21
    378c:	fc 01       	movw	r30, r24
    378e:	81 8d       	ldd	r24, Z+25	; 0x19
    3790:	92 8d       	ldd	r25, Z+26	; 0x1a
    3792:	06 96       	adiw	r24, 0x06	; 6
    3794:	99 87       	std	Y+9, r25	; 0x09
    3796:	88 87       	std	Y+8, r24	; 0x08
    3798:	88 85       	ldd	r24, Y+8	; 0x08
    379a:	99 85       	ldd	r25, Y+9	; 0x09
    379c:	fc 01       	movw	r30, r24
    379e:	84 91       	lpm	r24, Z
    37a0:	8a 87       	std	Y+10, r24	; 0x0a
    37a2:	9a 85       	ldd	r25, Y+10	; 0x0a
    37a4:	8a a1       	ldd	r24, Y+34	; 0x22
    37a6:	98 17       	cp	r25, r24
    37a8:	10 f0       	brcs	.+4      	; 0x37ae <_ZN12Adafruit_GFX5writeEh+0x23e>
    37aa:	81 e0       	ldi	r24, 0x01	; 1
    37ac:	01 c0       	rjmp	.+2      	; 0x37b0 <_ZN12Adafruit_GFX5writeEh+0x240>
    37ae:	80 e0       	ldi	r24, 0x00	; 0
    37b0:	88 23       	and	r24, r24
    37b2:	09 f4       	brne	.+2      	; 0x37b6 <_ZN12Adafruit_GFX5writeEh+0x246>
    37b4:	e4 c0       	rjmp	.+456    	; 0x397e <_ZN12Adafruit_GFX5writeEh+0x40e>
    37b6:	9a a1       	ldd	r25, Y+34	; 0x22
    37b8:	8f 81       	ldd	r24, Y+7	; 0x07
    37ba:	29 2f       	mov	r18, r25
    37bc:	28 1b       	sub	r18, r24
    37be:	88 a1       	ldd	r24, Y+32	; 0x20
    37c0:	99 a1       	ldd	r25, Y+33	; 0x21
    37c2:	fc 01       	movw	r30, r24
    37c4:	81 8d       	ldd	r24, Z+25	; 0x19
    37c6:	92 8d       	ldd	r25, Z+26	; 0x1a
    37c8:	62 2f       	mov	r22, r18
    37ca:	0e 94 ec 10 	call	0x21d8	; 0x21d8 <_Z18pgm_read_glyph_ptrPK7GFXfonth>
    37ce:	9c 87       	std	Y+12, r25	; 0x0c
    37d0:	8b 87       	std	Y+11, r24	; 0x0b
    37d2:	8b 85       	ldd	r24, Y+11	; 0x0b
    37d4:	9c 85       	ldd	r25, Y+12	; 0x0c
    37d6:	02 96       	adiw	r24, 0x02	; 2
    37d8:	9e 87       	std	Y+14, r25	; 0x0e
    37da:	8d 87       	std	Y+13, r24	; 0x0d
    37dc:	8d 85       	ldd	r24, Y+13	; 0x0d
    37de:	9e 85       	ldd	r25, Y+14	; 0x0e
    37e0:	fc 01       	movw	r30, r24
    37e2:	84 91       	lpm	r24, Z
    37e4:	8f 87       	std	Y+15, r24	; 0x0f
    37e6:	8f 85       	ldd	r24, Y+15	; 0x0f
    37e8:	88 8b       	std	Y+16, r24	; 0x10
    37ea:	8b 85       	ldd	r24, Y+11	; 0x0b
    37ec:	9c 85       	ldd	r25, Y+12	; 0x0c
    37ee:	03 96       	adiw	r24, 0x03	; 3
    37f0:	9a 8b       	std	Y+18, r25	; 0x12
    37f2:	89 8b       	std	Y+17, r24	; 0x11
    37f4:	89 89       	ldd	r24, Y+17	; 0x11
    37f6:	9a 89       	ldd	r25, Y+18	; 0x12
    37f8:	fc 01       	movw	r30, r24
    37fa:	84 91       	lpm	r24, Z
    37fc:	8b 8b       	std	Y+19, r24	; 0x13
    37fe:	8b 89       	ldd	r24, Y+19	; 0x13
    3800:	8c 8b       	std	Y+20, r24	; 0x14
    3802:	88 89       	ldd	r24, Y+16	; 0x10
    3804:	88 23       	and	r24, r24
    3806:	09 f4       	brne	.+2      	; 0x380a <_ZN12Adafruit_GFX5writeEh+0x29a>
    3808:	94 c0       	rjmp	.+296    	; 0x3932 <_ZN12Adafruit_GFX5writeEh+0x3c2>
    380a:	8c 89       	ldd	r24, Y+20	; 0x14
    380c:	88 23       	and	r24, r24
    380e:	09 f4       	brne	.+2      	; 0x3812 <_ZN12Adafruit_GFX5writeEh+0x2a2>
    3810:	90 c0       	rjmp	.+288    	; 0x3932 <_ZN12Adafruit_GFX5writeEh+0x3c2>
    3812:	8b 85       	ldd	r24, Y+11	; 0x0b
    3814:	9c 85       	ldd	r25, Y+12	; 0x0c
    3816:	05 96       	adiw	r24, 0x05	; 5
    3818:	9e 8b       	std	Y+22, r25	; 0x16
    381a:	8d 8b       	std	Y+21, r24	; 0x15
    381c:	8d 89       	ldd	r24, Y+21	; 0x15
    381e:	9e 89       	ldd	r25, Y+22	; 0x16
    3820:	fc 01       	movw	r30, r24
    3822:	84 91       	lpm	r24, Z
    3824:	8f 8b       	std	Y+23, r24	; 0x17
    3826:	8f 89       	ldd	r24, Y+23	; 0x17
    3828:	08 2e       	mov	r0, r24
    382a:	00 0c       	add	r0, r0
    382c:	99 0b       	sbc	r25, r25
    382e:	99 8f       	std	Y+25, r25	; 0x19
    3830:	88 8f       	std	Y+24, r24	; 0x18
    3832:	88 a1       	ldd	r24, Y+32	; 0x20
    3834:	99 a1       	ldd	r25, Y+33	; 0x21
    3836:	fc 01       	movw	r30, r24
    3838:	87 89       	ldd	r24, Z+23	; 0x17
    383a:	88 23       	and	r24, r24
    383c:	09 f4       	brne	.+2      	; 0x3840 <_ZN12Adafruit_GFX5writeEh+0x2d0>
    383e:	51 c0       	rjmp	.+162    	; 0x38e2 <_ZN12Adafruit_GFX5writeEh+0x372>
    3840:	88 a1       	ldd	r24, Y+32	; 0x20
    3842:	99 a1       	ldd	r25, Y+33	; 0x21
    3844:	fc 01       	movw	r30, r24
    3846:	24 85       	ldd	r18, Z+12	; 0x0c
    3848:	35 85       	ldd	r19, Z+13	; 0x0d
    384a:	88 a1       	ldd	r24, Y+32	; 0x20
    384c:	99 a1       	ldd	r25, Y+33	; 0x21
    384e:	fc 01       	movw	r30, r24
    3850:	84 89       	ldd	r24, Z+20	; 0x14
    3852:	68 2f       	mov	r22, r24
    3854:	70 e0       	ldi	r23, 0x00	; 0
    3856:	88 89       	ldd	r24, Y+16	; 0x10
    3858:	48 2f       	mov	r20, r24
    385a:	50 e0       	ldi	r21, 0x00	; 0
    385c:	88 8d       	ldd	r24, Y+24	; 0x18
    385e:	99 8d       	ldd	r25, Y+25	; 0x19
    3860:	48 0f       	add	r20, r24
    3862:	59 1f       	adc	r21, r25
    3864:	64 9f       	mul	r22, r20
    3866:	c0 01       	movw	r24, r0
    3868:	65 9f       	mul	r22, r21
    386a:	90 0d       	add	r25, r0
    386c:	74 9f       	mul	r23, r20
    386e:	90 0d       	add	r25, r0
    3870:	11 24       	eor	r1, r1
    3872:	28 0f       	add	r18, r24
    3874:	39 1f       	adc	r19, r25
    3876:	88 a1       	ldd	r24, Y+32	; 0x20
    3878:	99 a1       	ldd	r25, Y+33	; 0x21
    387a:	fc 01       	movw	r30, r24
    387c:	80 85       	ldd	r24, Z+8	; 0x08
    387e:	91 85       	ldd	r25, Z+9	; 0x09
    3880:	82 17       	cp	r24, r18
    3882:	93 07       	cpc	r25, r19
    3884:	74 f5       	brge	.+92     	; 0x38e2 <_ZN12Adafruit_GFX5writeEh+0x372>
    3886:	88 a1       	ldd	r24, Y+32	; 0x20
    3888:	99 a1       	ldd	r25, Y+33	; 0x21
    388a:	fc 01       	movw	r30, r24
    388c:	15 86       	std	Z+13, r1	; 0x0d
    388e:	14 86       	std	Z+12, r1	; 0x0c
    3890:	88 a1       	ldd	r24, Y+32	; 0x20
    3892:	99 a1       	ldd	r25, Y+33	; 0x21
    3894:	fc 01       	movw	r30, r24
    3896:	85 89       	ldd	r24, Z+21	; 0x15
    3898:	48 2f       	mov	r20, r24
    389a:	50 e0       	ldi	r21, 0x00	; 0
    389c:	88 a1       	ldd	r24, Y+32	; 0x20
    389e:	99 a1       	ldd	r25, Y+33	; 0x21
    38a0:	fc 01       	movw	r30, r24
    38a2:	81 8d       	ldd	r24, Z+25	; 0x19
    38a4:	92 8d       	ldd	r25, Z+26	; 0x1a
    38a6:	08 96       	adiw	r24, 0x08	; 8
    38a8:	9b 8f       	std	Y+27, r25	; 0x1b
    38aa:	8a 8f       	std	Y+26, r24	; 0x1a
    38ac:	8a 8d       	ldd	r24, Y+26	; 0x1a
    38ae:	9b 8d       	ldd	r25, Y+27	; 0x1b
    38b0:	fc 01       	movw	r30, r24
    38b2:	84 91       	lpm	r24, Z
    38b4:	8c 8f       	std	Y+28, r24	; 0x1c
    38b6:	8c 8d       	ldd	r24, Y+28	; 0x1c
    38b8:	28 2f       	mov	r18, r24
    38ba:	30 e0       	ldi	r19, 0x00	; 0
    38bc:	42 9f       	mul	r20, r18
    38be:	c0 01       	movw	r24, r0
    38c0:	43 9f       	mul	r20, r19
    38c2:	90 0d       	add	r25, r0
    38c4:	52 9f       	mul	r21, r18
    38c6:	90 0d       	add	r25, r0
    38c8:	11 24       	eor	r1, r1
    38ca:	28 a1       	ldd	r18, Y+32	; 0x20
    38cc:	39 a1       	ldd	r19, Y+33	; 0x21
    38ce:	f9 01       	movw	r30, r18
    38d0:	26 85       	ldd	r18, Z+14	; 0x0e
    38d2:	37 85       	ldd	r19, Z+15	; 0x0f
    38d4:	28 0f       	add	r18, r24
    38d6:	39 1f       	adc	r19, r25
    38d8:	88 a1       	ldd	r24, Y+32	; 0x20
    38da:	99 a1       	ldd	r25, Y+33	; 0x21
    38dc:	fc 01       	movw	r30, r24
    38de:	37 87       	std	Z+15, r19	; 0x0f
    38e0:	26 87       	std	Z+14, r18	; 0x0e
    38e2:	88 a1       	ldd	r24, Y+32	; 0x20
    38e4:	99 a1       	ldd	r25, Y+33	; 0x21
    38e6:	fc 01       	movw	r30, r24
    38e8:	b5 89       	ldd	r27, Z+21	; 0x15
    38ea:	88 a1       	ldd	r24, Y+32	; 0x20
    38ec:	99 a1       	ldd	r25, Y+33	; 0x21
    38ee:	fc 01       	movw	r30, r24
    38f0:	a4 89       	ldd	r26, Z+20	; 0x14
    38f2:	88 a1       	ldd	r24, Y+32	; 0x20
    38f4:	99 a1       	ldd	r25, Y+33	; 0x21
    38f6:	fc 01       	movw	r30, r24
    38f8:	02 88       	ldd	r0, Z+18	; 0x12
    38fa:	f3 89       	ldd	r31, Z+19	; 0x13
    38fc:	e0 2d       	mov	r30, r0
    38fe:	fc a3       	std	Y+36, r31	; 0x24
    3900:	eb a3       	std	Y+35, r30	; 0x23
    3902:	88 a1       	ldd	r24, Y+32	; 0x20
    3904:	99 a1       	ldd	r25, Y+33	; 0x21
    3906:	fc 01       	movw	r30, r24
    3908:	20 89       	ldd	r18, Z+16	; 0x10
    390a:	31 89       	ldd	r19, Z+17	; 0x11
    390c:	88 a1       	ldd	r24, Y+32	; 0x20
    390e:	99 a1       	ldd	r25, Y+33	; 0x21
    3910:	fc 01       	movw	r30, r24
    3912:	46 85       	ldd	r20, Z+14	; 0x0e
    3914:	57 85       	ldd	r21, Z+15	; 0x0f
    3916:	88 a1       	ldd	r24, Y+32	; 0x20
    3918:	99 a1       	ldd	r25, Y+33	; 0x21
    391a:	fc 01       	movw	r30, r24
    391c:	64 85       	ldd	r22, Z+12	; 0x0c
    391e:	75 85       	ldd	r23, Z+13	; 0x0d
    3920:	88 a1       	ldd	r24, Y+32	; 0x20
    3922:	99 a1       	ldd	r25, Y+33	; 0x21
    3924:	ab 2e       	mov	r10, r27
    3926:	ca 2e       	mov	r12, r26
    3928:	eb a0       	ldd	r14, Y+35	; 0x23
    392a:	fc a0       	ldd	r15, Y+36	; 0x24
    392c:	89 01       	movw	r16, r18
    392e:	2a a1       	ldd	r18, Y+34	; 0x22
    3930:	cd da       	rcall	.-2662   	; 0x2ecc <_ZN12Adafruit_GFX8drawCharEiihjjhh>
    3932:	8b 85       	ldd	r24, Y+11	; 0x0b
    3934:	9c 85       	ldd	r25, Y+12	; 0x0c
    3936:	04 96       	adiw	r24, 0x04	; 4
    3938:	9e 8f       	std	Y+30, r25	; 0x1e
    393a:	8d 8f       	std	Y+29, r24	; 0x1d
    393c:	8d 8d       	ldd	r24, Y+29	; 0x1d
    393e:	9e 8d       	ldd	r25, Y+30	; 0x1e
    3940:	fc 01       	movw	r30, r24
    3942:	84 91       	lpm	r24, Z
    3944:	8f 8f       	std	Y+31, r24	; 0x1f
    3946:	8f 8d       	ldd	r24, Y+31	; 0x1f
    3948:	48 2f       	mov	r20, r24
    394a:	50 e0       	ldi	r21, 0x00	; 0
    394c:	88 a1       	ldd	r24, Y+32	; 0x20
    394e:	99 a1       	ldd	r25, Y+33	; 0x21
    3950:	fc 01       	movw	r30, r24
    3952:	84 89       	ldd	r24, Z+20	; 0x14
    3954:	28 2f       	mov	r18, r24
    3956:	30 e0       	ldi	r19, 0x00	; 0
    3958:	42 9f       	mul	r20, r18
    395a:	c0 01       	movw	r24, r0
    395c:	43 9f       	mul	r20, r19
    395e:	90 0d       	add	r25, r0
    3960:	52 9f       	mul	r21, r18
    3962:	90 0d       	add	r25, r0
    3964:	11 24       	eor	r1, r1
    3966:	28 a1       	ldd	r18, Y+32	; 0x20
    3968:	39 a1       	ldd	r19, Y+33	; 0x21
    396a:	f9 01       	movw	r30, r18
    396c:	24 85       	ldd	r18, Z+12	; 0x0c
    396e:	35 85       	ldd	r19, Z+13	; 0x0d
    3970:	28 0f       	add	r18, r24
    3972:	39 1f       	adc	r19, r25
    3974:	88 a1       	ldd	r24, Y+32	; 0x20
    3976:	99 a1       	ldd	r25, Y+33	; 0x21
    3978:	fc 01       	movw	r30, r24
    397a:	35 87       	std	Z+13, r19	; 0x0d
    397c:	24 87       	std	Z+12, r18	; 0x0c
    397e:	81 e0       	ldi	r24, 0x01	; 1
    3980:	90 e0       	ldi	r25, 0x00	; 0
    3982:	a4 96       	adiw	r28, 0x24	; 36
    3984:	0f b6       	in	r0, 0x3f	; 63
    3986:	f8 94       	cli
    3988:	de bf       	out	0x3e, r29	; 62
    398a:	0f be       	out	0x3f, r0	; 63
    398c:	cd bf       	out	0x3d, r28	; 61
    398e:	df 91       	pop	r29
    3990:	cf 91       	pop	r28
    3992:	1f 91       	pop	r17
    3994:	0f 91       	pop	r16
    3996:	ff 90       	pop	r15
    3998:	ef 90       	pop	r14
    399a:	cf 90       	pop	r12
    399c:	af 90       	pop	r10
    399e:	08 95       	ret

000039a0 <_ZN12Adafruit_GFX11setTextSizeEh>:
    39a0:	cf 93       	push	r28
    39a2:	df 93       	push	r29
    39a4:	00 d0       	rcall	.+0      	; 0x39a6 <_ZN12Adafruit_GFX11setTextSizeEh+0x6>
    39a6:	cd b7       	in	r28, 0x3d	; 61
    39a8:	de b7       	in	r29, 0x3e	; 62
    39aa:	9a 83       	std	Y+2, r25	; 0x02
    39ac:	89 83       	std	Y+1, r24	; 0x01
    39ae:	6b 83       	std	Y+3, r22	; 0x03
    39b0:	89 81       	ldd	r24, Y+1	; 0x01
    39b2:	9a 81       	ldd	r25, Y+2	; 0x02
    39b4:	4b 81       	ldd	r20, Y+3	; 0x03
    39b6:	6b 81       	ldd	r22, Y+3	; 0x03
    39b8:	07 d0       	rcall	.+14     	; 0x39c8 <_ZN12Adafruit_GFX11setTextSizeEhh>
    39ba:	00 00       	nop
    39bc:	0f 90       	pop	r0
    39be:	0f 90       	pop	r0
    39c0:	0f 90       	pop	r0
    39c2:	df 91       	pop	r29
    39c4:	cf 91       	pop	r28
    39c6:	08 95       	ret

000039c8 <_ZN12Adafruit_GFX11setTextSizeEhh>:
    39c8:	cf 93       	push	r28
    39ca:	df 93       	push	r29
    39cc:	00 d0       	rcall	.+0      	; 0x39ce <_ZN12Adafruit_GFX11setTextSizeEhh+0x6>
    39ce:	1f 92       	push	r1
    39d0:	cd b7       	in	r28, 0x3d	; 61
    39d2:	de b7       	in	r29, 0x3e	; 62
    39d4:	9a 83       	std	Y+2, r25	; 0x02
    39d6:	89 83       	std	Y+1, r24	; 0x01
    39d8:	6b 83       	std	Y+3, r22	; 0x03
    39da:	4c 83       	std	Y+4, r20	; 0x04
    39dc:	8b 81       	ldd	r24, Y+3	; 0x03
    39de:	88 23       	and	r24, r24
    39e0:	11 f0       	breq	.+4      	; 0x39e6 <_ZN12Adafruit_GFX11setTextSizeEhh+0x1e>
    39e2:	2b 81       	ldd	r18, Y+3	; 0x03
    39e4:	01 c0       	rjmp	.+2      	; 0x39e8 <_ZN12Adafruit_GFX11setTextSizeEhh+0x20>
    39e6:	21 e0       	ldi	r18, 0x01	; 1
    39e8:	89 81       	ldd	r24, Y+1	; 0x01
    39ea:	9a 81       	ldd	r25, Y+2	; 0x02
    39ec:	fc 01       	movw	r30, r24
    39ee:	24 8b       	std	Z+20, r18	; 0x14
    39f0:	8c 81       	ldd	r24, Y+4	; 0x04
    39f2:	88 23       	and	r24, r24
    39f4:	11 f0       	breq	.+4      	; 0x39fa <_ZN12Adafruit_GFX11setTextSizeEhh+0x32>
    39f6:	2c 81       	ldd	r18, Y+4	; 0x04
    39f8:	01 c0       	rjmp	.+2      	; 0x39fc <_ZN12Adafruit_GFX11setTextSizeEhh+0x34>
    39fa:	21 e0       	ldi	r18, 0x01	; 1
    39fc:	89 81       	ldd	r24, Y+1	; 0x01
    39fe:	9a 81       	ldd	r25, Y+2	; 0x02
    3a00:	fc 01       	movw	r30, r24
    3a02:	25 8b       	std	Z+21, r18	; 0x15
    3a04:	00 00       	nop
    3a06:	0f 90       	pop	r0
    3a08:	0f 90       	pop	r0
    3a0a:	0f 90       	pop	r0
    3a0c:	0f 90       	pop	r0
    3a0e:	df 91       	pop	r29
    3a10:	cf 91       	pop	r28
    3a12:	08 95       	ret

00003a14 <_ZN12Adafruit_GFX11setRotationEh>:
    3a14:	cf 93       	push	r28
    3a16:	df 93       	push	r29
    3a18:	00 d0       	rcall	.+0      	; 0x3a1a <_ZN12Adafruit_GFX11setRotationEh+0x6>
    3a1a:	cd b7       	in	r28, 0x3d	; 61
    3a1c:	de b7       	in	r29, 0x3e	; 62
    3a1e:	9a 83       	std	Y+2, r25	; 0x02
    3a20:	89 83       	std	Y+1, r24	; 0x01
    3a22:	6b 83       	std	Y+3, r22	; 0x03
    3a24:	8b 81       	ldd	r24, Y+3	; 0x03
    3a26:	28 2f       	mov	r18, r24
    3a28:	23 70       	andi	r18, 0x03	; 3
    3a2a:	89 81       	ldd	r24, Y+1	; 0x01
    3a2c:	9a 81       	ldd	r25, Y+2	; 0x02
    3a2e:	fc 01       	movw	r30, r24
    3a30:	26 8b       	std	Z+22, r18	; 0x16
    3a32:	89 81       	ldd	r24, Y+1	; 0x01
    3a34:	9a 81       	ldd	r25, Y+2	; 0x02
    3a36:	fc 01       	movw	r30, r24
    3a38:	86 89       	ldd	r24, Z+22	; 0x16
    3a3a:	88 2f       	mov	r24, r24
    3a3c:	90 e0       	ldi	r25, 0x00	; 0
    3a3e:	81 30       	cpi	r24, 0x01	; 1
    3a40:	91 05       	cpc	r25, r1
    3a42:	09 f1       	breq	.+66     	; 0x3a86 <_ZN12Adafruit_GFX11setRotationEh+0x72>
    3a44:	82 30       	cpi	r24, 0x02	; 2
    3a46:	91 05       	cpc	r25, r1
    3a48:	1c f4       	brge	.+6      	; 0x3a50 <_ZN12Adafruit_GFX11setRotationEh+0x3c>
    3a4a:	89 2b       	or	r24, r25
    3a4c:	39 f0       	breq	.+14     	; 0x3a5c <_ZN12Adafruit_GFX11setRotationEh+0x48>
    3a4e:	30 c0       	rjmp	.+96     	; 0x3ab0 <_ZN12Adafruit_GFX11setRotationEh+0x9c>
    3a50:	82 30       	cpi	r24, 0x02	; 2
    3a52:	91 05       	cpc	r25, r1
    3a54:	19 f0       	breq	.+6      	; 0x3a5c <_ZN12Adafruit_GFX11setRotationEh+0x48>
    3a56:	03 97       	sbiw	r24, 0x03	; 3
    3a58:	b1 f0       	breq	.+44     	; 0x3a86 <_ZN12Adafruit_GFX11setRotationEh+0x72>
    3a5a:	2a c0       	rjmp	.+84     	; 0x3ab0 <_ZN12Adafruit_GFX11setRotationEh+0x9c>
    3a5c:	89 81       	ldd	r24, Y+1	; 0x01
    3a5e:	9a 81       	ldd	r25, Y+2	; 0x02
    3a60:	fc 01       	movw	r30, r24
    3a62:	24 81       	ldd	r18, Z+4	; 0x04
    3a64:	35 81       	ldd	r19, Z+5	; 0x05
    3a66:	89 81       	ldd	r24, Y+1	; 0x01
    3a68:	9a 81       	ldd	r25, Y+2	; 0x02
    3a6a:	fc 01       	movw	r30, r24
    3a6c:	31 87       	std	Z+9, r19	; 0x09
    3a6e:	20 87       	std	Z+8, r18	; 0x08
    3a70:	89 81       	ldd	r24, Y+1	; 0x01
    3a72:	9a 81       	ldd	r25, Y+2	; 0x02
    3a74:	fc 01       	movw	r30, r24
    3a76:	26 81       	ldd	r18, Z+6	; 0x06
    3a78:	37 81       	ldd	r19, Z+7	; 0x07
    3a7a:	89 81       	ldd	r24, Y+1	; 0x01
    3a7c:	9a 81       	ldd	r25, Y+2	; 0x02
    3a7e:	fc 01       	movw	r30, r24
    3a80:	33 87       	std	Z+11, r19	; 0x0b
    3a82:	22 87       	std	Z+10, r18	; 0x0a
    3a84:	15 c0       	rjmp	.+42     	; 0x3ab0 <_ZN12Adafruit_GFX11setRotationEh+0x9c>
    3a86:	89 81       	ldd	r24, Y+1	; 0x01
    3a88:	9a 81       	ldd	r25, Y+2	; 0x02
    3a8a:	fc 01       	movw	r30, r24
    3a8c:	26 81       	ldd	r18, Z+6	; 0x06
    3a8e:	37 81       	ldd	r19, Z+7	; 0x07
    3a90:	89 81       	ldd	r24, Y+1	; 0x01
    3a92:	9a 81       	ldd	r25, Y+2	; 0x02
    3a94:	fc 01       	movw	r30, r24
    3a96:	31 87       	std	Z+9, r19	; 0x09
    3a98:	20 87       	std	Z+8, r18	; 0x08
    3a9a:	89 81       	ldd	r24, Y+1	; 0x01
    3a9c:	9a 81       	ldd	r25, Y+2	; 0x02
    3a9e:	fc 01       	movw	r30, r24
    3aa0:	24 81       	ldd	r18, Z+4	; 0x04
    3aa2:	35 81       	ldd	r19, Z+5	; 0x05
    3aa4:	89 81       	ldd	r24, Y+1	; 0x01
    3aa6:	9a 81       	ldd	r25, Y+2	; 0x02
    3aa8:	fc 01       	movw	r30, r24
    3aaa:	33 87       	std	Z+11, r19	; 0x0b
    3aac:	22 87       	std	Z+10, r18	; 0x0a
    3aae:	00 00       	nop
    3ab0:	00 00       	nop
    3ab2:	0f 90       	pop	r0
    3ab4:	0f 90       	pop	r0
    3ab6:	0f 90       	pop	r0
    3ab8:	df 91       	pop	r29
    3aba:	cf 91       	pop	r28
    3abc:	08 95       	ret

00003abe <_ZN12Adafruit_GFX13invertDisplayEb>:
/*!
    @brief      Invert the display (ideally using built-in hardware command)
    @param   i  True if you want to invert, false to make 'normal'
*/
/**************************************************************************/
void Adafruit_GFX::invertDisplay(bool i) {
    3abe:	cf 93       	push	r28
    3ac0:	df 93       	push	r29
    3ac2:	00 d0       	rcall	.+0      	; 0x3ac4 <_ZN12Adafruit_GFX13invertDisplayEb+0x6>
    3ac4:	cd b7       	in	r28, 0x3d	; 61
    3ac6:	de b7       	in	r29, 0x3e	; 62
    3ac8:	9a 83       	std	Y+2, r25	; 0x02
    3aca:	89 83       	std	Y+1, r24	; 0x01
    3acc:	6b 83       	std	Y+3, r22	; 0x03
  // Do nothing, must be subclassed if supported by hardware
  (void)i; // disable -Wunused-parameter warning
}
    3ace:	00 00       	nop
    3ad0:	0f 90       	pop	r0
    3ad2:	0f 90       	pop	r0
    3ad4:	0f 90       	pop	r0
    3ad6:	df 91       	pop	r29
    3ad8:	cf 91       	pop	r28
    3ada:	08 95       	ret

00003adc <_ZN8SPIClass8transferEh>:
    SPCR = settings.spcr;
    SPSR = settings.spsr;
  }

  // Write to the SPI bus (MOSI pin) and also receive (MISO pin)
  inline static uint8_t transfer(uint8_t data) {
    3adc:	cf 93       	push	r28
    3ade:	df 93       	push	r29
    3ae0:	1f 92       	push	r1
    3ae2:	cd b7       	in	r28, 0x3d	; 61
    3ae4:	de b7       	in	r29, 0x3e	; 62
    3ae6:	89 83       	std	Y+1, r24	; 0x01
    SPDR = data;
    3ae8:	8e e4       	ldi	r24, 0x4E	; 78
    3aea:	90 e0       	ldi	r25, 0x00	; 0
    3aec:	29 81       	ldd	r18, Y+1	; 0x01
    3aee:	fc 01       	movw	r30, r24
    3af0:	20 83       	st	Z, r18
     * The following NOP introduces a small delay that can prevent the wait
     * loop form iterating when running at the maximum speed. This gives
     * about 10% more speed, even if it seems counter-intuitive. At lower
     * speeds it is unnoticed.
     */
    asm volatile("nop");
    3af2:	00 00       	nop
    while (!(SPSR & _BV(SPIF))) ; // wait
    3af4:	8d e4       	ldi	r24, 0x4D	; 77
    3af6:	90 e0       	ldi	r25, 0x00	; 0
    3af8:	fc 01       	movw	r30, r24
    3afa:	80 81       	ld	r24, Z
    3afc:	80 95       	com	r24
    3afe:	88 1f       	adc	r24, r24
    3b00:	88 27       	eor	r24, r24
    3b02:	88 1f       	adc	r24, r24
    3b04:	88 23       	and	r24, r24
    3b06:	09 f0       	breq	.+2      	; 0x3b0a <_ZN8SPIClass8transferEh+0x2e>
    3b08:	f5 cf       	rjmp	.-22     	; 0x3af4 <_ZN8SPIClass8transferEh+0x18>
    return SPDR;
    3b0a:	8e e4       	ldi	r24, 0x4E	; 78
    3b0c:	90 e0       	ldi	r25, 0x00	; 0
    3b0e:	fc 01       	movw	r30, r24
    3b10:	80 81       	ld	r24, Z
  }
    3b12:	0f 90       	pop	r0
    3b14:	df 91       	pop	r29
    3b16:	cf 91       	pop	r28
    3b18:	08 95       	ret

00003b1a <_ZN11SPISettingsC1Ev>:
*/
void Adafruit_SSD1306::stopscroll(void) {
  TRANSACTION_START
  ssd1306_command1(SSD1306_DEACTIVATE_SCROLL);
  TRANSACTION_END
}
    3b1a:	cf 93       	push	r28
    3b1c:	df 93       	push	r29
    3b1e:	cd b7       	in	r28, 0x3d	; 61
    3b20:	de b7       	in	r29, 0x3e	; 62
    3b22:	2f 97       	sbiw	r28, 0x0f	; 15
    3b24:	0f b6       	in	r0, 0x3f	; 63
    3b26:	f8 94       	cli
    3b28:	de bf       	out	0x3e, r29	; 62
    3b2a:	0f be       	out	0x3f, r0	; 63
    3b2c:	cd bf       	out	0x3d, r28	; 61
    3b2e:	9f 87       	std	Y+15, r25	; 0x0f
    3b30:	8e 87       	std	Y+14, r24	; 0x0e
    3b32:	8e 85       	ldd	r24, Y+14	; 0x0e
    3b34:	9f 85       	ldd	r25, Y+15	; 0x0f
    3b36:	9a 83       	std	Y+2, r25	; 0x02
    3b38:	89 83       	std	Y+1, r24	; 0x01
    3b3a:	80 e0       	ldi	r24, 0x00	; 0
    3b3c:	99 e0       	ldi	r25, 0x09	; 9
    3b3e:	ad e3       	ldi	r26, 0x3D	; 61
    3b40:	b0 e0       	ldi	r27, 0x00	; 0
    3b42:	8b 83       	std	Y+3, r24	; 0x03
    3b44:	9c 83       	std	Y+4, r25	; 0x04
    3b46:	ad 83       	std	Y+5, r26	; 0x05
    3b48:	be 83       	std	Y+6, r27	; 0x06
    3b4a:	81 e0       	ldi	r24, 0x01	; 1
    3b4c:	8f 83       	std	Y+7, r24	; 0x07
    3b4e:	18 86       	std	Y+8, r1	; 0x08
    3b50:	80 e0       	ldi	r24, 0x00	; 0
    3b52:	92 e1       	ldi	r25, 0x12	; 18
    3b54:	aa e7       	ldi	r26, 0x7A	; 122
    3b56:	b0 e0       	ldi	r27, 0x00	; 0
    3b58:	89 87       	std	Y+9, r24	; 0x09
    3b5a:	9a 87       	std	Y+10, r25	; 0x0a
    3b5c:	ab 87       	std	Y+11, r26	; 0x0b
    3b5e:	bc 87       	std	Y+12, r27	; 0x0c
    3b60:	1d 86       	std	Y+13, r1	; 0x0d
    3b62:	8d 85       	ldd	r24, Y+13	; 0x0d
    3b64:	86 30       	cpi	r24, 0x06	; 6
    3b66:	e8 f4       	brcc	.+58     	; 0x3ba2 <_ZN11SPISettingsC1Ev+0x88>
    3b68:	2b 81       	ldd	r18, Y+3	; 0x03
    3b6a:	3c 81       	ldd	r19, Y+4	; 0x04
    3b6c:	4d 81       	ldd	r20, Y+5	; 0x05
    3b6e:	5e 81       	ldd	r21, Y+6	; 0x06
    3b70:	89 85       	ldd	r24, Y+9	; 0x09
    3b72:	9a 85       	ldd	r25, Y+10	; 0x0a
    3b74:	ab 85       	ldd	r26, Y+11	; 0x0b
    3b76:	bc 85       	ldd	r27, Y+12	; 0x0c
    3b78:	28 17       	cp	r18, r24
    3b7a:	39 07       	cpc	r19, r25
    3b7c:	4a 07       	cpc	r20, r26
    3b7e:	5b 07       	cpc	r21, r27
    3b80:	80 f4       	brcc	.+32     	; 0x3ba2 <_ZN11SPISettingsC1Ev+0x88>
    3b82:	89 85       	ldd	r24, Y+9	; 0x09
    3b84:	9a 85       	ldd	r25, Y+10	; 0x0a
    3b86:	ab 85       	ldd	r26, Y+11	; 0x0b
    3b88:	bc 85       	ldd	r27, Y+12	; 0x0c
    3b8a:	b6 95       	lsr	r27
    3b8c:	a7 95       	ror	r26
    3b8e:	97 95       	ror	r25
    3b90:	87 95       	ror	r24
    3b92:	89 87       	std	Y+9, r24	; 0x09
    3b94:	9a 87       	std	Y+10, r25	; 0x0a
    3b96:	ab 87       	std	Y+11, r26	; 0x0b
    3b98:	bc 87       	std	Y+12, r27	; 0x0c
    3b9a:	8d 85       	ldd	r24, Y+13	; 0x0d
    3b9c:	8f 5f       	subi	r24, 0xFF	; 255
    3b9e:	8d 87       	std	Y+13, r24	; 0x0d
    3ba0:	e0 cf       	rjmp	.-64     	; 0x3b62 <_ZN11SPISettingsC1Ev+0x48>
    3ba2:	8d 85       	ldd	r24, Y+13	; 0x0d
    3ba4:	86 30       	cpi	r24, 0x06	; 6
    3ba6:	11 f4       	brne	.+4      	; 0x3bac <_ZN11SPISettingsC1Ev+0x92>
    3ba8:	87 e0       	ldi	r24, 0x07	; 7
    3baa:	8d 87       	std	Y+13, r24	; 0x0d
    3bac:	9d 85       	ldd	r25, Y+13	; 0x0d
    3bae:	81 e0       	ldi	r24, 0x01	; 1
    3bb0:	89 27       	eor	r24, r25
    3bb2:	8d 87       	std	Y+13, r24	; 0x0d
    3bb4:	8f 81       	ldd	r24, Y+7	; 0x07
    3bb6:	88 23       	and	r24, r24
    3bb8:	11 f4       	brne	.+4      	; 0x3bbe <_ZN11SPISettingsC1Ev+0xa4>
    3bba:	80 e7       	ldi	r24, 0x70	; 112
    3bbc:	01 c0       	rjmp	.+2      	; 0x3bc0 <_ZN11SPISettingsC1Ev+0xa6>
    3bbe:	80 e5       	ldi	r24, 0x50	; 80
    3bc0:	98 85       	ldd	r25, Y+8	; 0x08
    3bc2:	9c 70       	andi	r25, 0x0C	; 12
    3bc4:	29 2f       	mov	r18, r25
    3bc6:	28 2b       	or	r18, r24
    3bc8:	8d 85       	ldd	r24, Y+13	; 0x0d
    3bca:	88 2f       	mov	r24, r24
    3bcc:	90 e0       	ldi	r25, 0x00	; 0
    3bce:	95 95       	asr	r25
    3bd0:	87 95       	ror	r24
    3bd2:	83 70       	andi	r24, 0x03	; 3
    3bd4:	82 2b       	or	r24, r18
    3bd6:	28 2f       	mov	r18, r24
    3bd8:	89 81       	ldd	r24, Y+1	; 0x01
    3bda:	9a 81       	ldd	r25, Y+2	; 0x02
    3bdc:	fc 01       	movw	r30, r24
    3bde:	20 83       	st	Z, r18
    3be0:	8d 85       	ldd	r24, Y+13	; 0x0d
    3be2:	28 2f       	mov	r18, r24
    3be4:	21 70       	andi	r18, 0x01	; 1
    3be6:	89 81       	ldd	r24, Y+1	; 0x01
    3be8:	9a 81       	ldd	r25, Y+2	; 0x02
    3bea:	fc 01       	movw	r30, r24
    3bec:	21 83       	std	Z+1, r18	; 0x01
    3bee:	00 00       	nop
    3bf0:	2f 96       	adiw	r28, 0x0f	; 15
    3bf2:	0f b6       	in	r0, 0x3f	; 63
    3bf4:	f8 94       	cli
    3bf6:	de bf       	out	0x3e, r29	; 62
    3bf8:	0f be       	out	0x3f, r0	; 63
    3bfa:	cd bf       	out	0x3d, r28	; 61
    3bfc:	df 91       	pop	r29
    3bfe:	cf 91       	pop	r28
    3c00:	08 95       	ret

00003c02 <_ZN16Adafruit_SSD1306C1EhhP7TwoWireamm>:
    3c02:	8f 92       	push	r8
    3c04:	9f 92       	push	r9
    3c06:	af 92       	push	r10
    3c08:	bf 92       	push	r11
    3c0a:	cf 92       	push	r12
    3c0c:	df 92       	push	r13
    3c0e:	ef 92       	push	r14
    3c10:	ff 92       	push	r15
    3c12:	0f 93       	push	r16
    3c14:	cf 93       	push	r28
    3c16:	df 93       	push	r29
    3c18:	cd b7       	in	r28, 0x3d	; 61
    3c1a:	de b7       	in	r29, 0x3e	; 62
    3c1c:	2f 97       	sbiw	r28, 0x0f	; 15
    3c1e:	0f b6       	in	r0, 0x3f	; 63
    3c20:	f8 94       	cli
    3c22:	de bf       	out	0x3e, r29	; 62
    3c24:	0f be       	out	0x3f, r0	; 63
    3c26:	cd bf       	out	0x3d, r28	; 61
    3c28:	9a 83       	std	Y+2, r25	; 0x02
    3c2a:	89 83       	std	Y+1, r24	; 0x01
    3c2c:	6b 83       	std	Y+3, r22	; 0x03
    3c2e:	4c 83       	std	Y+4, r20	; 0x04
    3c30:	3e 83       	std	Y+6, r19	; 0x06
    3c32:	2d 83       	std	Y+5, r18	; 0x05
    3c34:	0f 83       	std	Y+7, r16	; 0x07
    3c36:	c8 86       	std	Y+8, r12	; 0x08
    3c38:	d9 86       	std	Y+9, r13	; 0x09
    3c3a:	ea 86       	std	Y+10, r14	; 0x0a
    3c3c:	fb 86       	std	Y+11, r15	; 0x0b
    3c3e:	8c 86       	std	Y+12, r8	; 0x0c
    3c40:	9d 86       	std	Y+13, r9	; 0x0d
    3c42:	ae 86       	std	Y+14, r10	; 0x0e
    3c44:	bf 86       	std	Y+15, r11	; 0x0f
    3c46:	8c 81       	ldd	r24, Y+4	; 0x04
    3c48:	48 2f       	mov	r20, r24
    3c4a:	50 e0       	ldi	r21, 0x00	; 0
    3c4c:	8b 81       	ldd	r24, Y+3	; 0x03
    3c4e:	28 2f       	mov	r18, r24
    3c50:	30 e0       	ldi	r19, 0x00	; 0
    3c52:	89 81       	ldd	r24, Y+1	; 0x01
    3c54:	9a 81       	ldd	r25, Y+2	; 0x02
    3c56:	b9 01       	movw	r22, r18
    3c58:	0e 94 44 11 	call	0x2288	; 0x2288 <_ZN12Adafruit_GFXC1Eii>
    3c5c:	2a e5       	ldi	r18, 0x5A	; 90
    3c5e:	32 e0       	ldi	r19, 0x02	; 2
    3c60:	89 81       	ldd	r24, Y+1	; 0x01
    3c62:	9a 81       	ldd	r25, Y+2	; 0x02
    3c64:	fc 01       	movw	r30, r24
    3c66:	31 83       	std	Z+1, r19	; 0x01
    3c68:	20 83       	st	Z, r18
    3c6a:	89 81       	ldd	r24, Y+1	; 0x01
    3c6c:	9a 81       	ldd	r25, Y+2	; 0x02
    3c6e:	fc 01       	movw	r30, r24
    3c70:	14 8e       	std	Z+28, r1	; 0x1c
    3c72:	13 8e       	std	Z+27, r1	; 0x1b
    3c74:	8d 81       	ldd	r24, Y+5	; 0x05
    3c76:	9e 81       	ldd	r25, Y+6	; 0x06
    3c78:	89 2b       	or	r24, r25
    3c7a:	19 f0       	breq	.+6      	; 0x3c82 <_ZN16Adafruit_SSD1306C1EhhP7TwoWireamm+0x80>
    3c7c:	8d 81       	ldd	r24, Y+5	; 0x05
    3c7e:	9e 81       	ldd	r25, Y+6	; 0x06
    3c80:	02 c0       	rjmp	.+4      	; 0x3c86 <_ZN16Adafruit_SSD1306C1EhhP7TwoWireamm+0x84>
    3c82:	8e e6       	ldi	r24, 0x6E	; 110
    3c84:	93 e0       	ldi	r25, 0x03	; 3
    3c86:	29 81       	ldd	r18, Y+1	; 0x01
    3c88:	3a 81       	ldd	r19, Y+2	; 0x02
    3c8a:	f9 01       	movw	r30, r18
    3c8c:	96 8f       	std	Z+30, r25	; 0x1e
    3c8e:	85 8f       	std	Z+29, r24	; 0x1d
    3c90:	89 81       	ldd	r24, Y+1	; 0x01
    3c92:	9a 81       	ldd	r25, Y+2	; 0x02
    3c94:	fc 01       	movw	r30, r24
    3c96:	10 a2       	std	Z+32, r1	; 0x20
    3c98:	17 8e       	std	Z+31, r1	; 0x1f
    3c9a:	89 81       	ldd	r24, Y+1	; 0x01
    3c9c:	9a 81       	ldd	r25, Y+2	; 0x02
    3c9e:	2f ef       	ldi	r18, 0xFF	; 255
    3ca0:	fc 01       	movw	r30, r24
    3ca2:	24 a3       	std	Z+36, r18	; 0x24
    3ca4:	89 81       	ldd	r24, Y+1	; 0x01
    3ca6:	9a 81       	ldd	r25, Y+2	; 0x02
    3ca8:	2f ef       	ldi	r18, 0xFF	; 255
    3caa:	fc 01       	movw	r30, r24
    3cac:	25 a3       	std	Z+37, r18	; 0x25
    3cae:	89 81       	ldd	r24, Y+1	; 0x01
    3cb0:	9a 81       	ldd	r25, Y+2	; 0x02
    3cb2:	2f ef       	ldi	r18, 0xFF	; 255
    3cb4:	fc 01       	movw	r30, r24
    3cb6:	26 a3       	std	Z+38, r18	; 0x26
    3cb8:	89 81       	ldd	r24, Y+1	; 0x01
    3cba:	9a 81       	ldd	r25, Y+2	; 0x02
    3cbc:	2f ef       	ldi	r18, 0xFF	; 255
    3cbe:	fc 01       	movw	r30, r24
    3cc0:	27 a3       	std	Z+39, r18	; 0x27
    3cc2:	89 81       	ldd	r24, Y+1	; 0x01
    3cc4:	9a 81       	ldd	r25, Y+2	; 0x02
    3cc6:	2f 81       	ldd	r18, Y+7	; 0x07
    3cc8:	fc 01       	movw	r30, r24
    3cca:	20 a7       	std	Z+40, r18	; 0x28
    3ccc:	29 81       	ldd	r18, Y+1	; 0x01
    3cce:	3a 81       	ldd	r19, Y+2	; 0x02
    3cd0:	88 85       	ldd	r24, Y+8	; 0x08
    3cd2:	99 85       	ldd	r25, Y+9	; 0x09
    3cd4:	aa 85       	ldd	r26, Y+10	; 0x0a
    3cd6:	bb 85       	ldd	r27, Y+11	; 0x0b
    3cd8:	f9 01       	movw	r30, r18
    3cda:	85 ab       	std	Z+53, r24	; 0x35
    3cdc:	96 ab       	std	Z+54, r25	; 0x36
    3cde:	a7 ab       	std	Z+55, r26	; 0x37
    3ce0:	b0 af       	std	Z+56, r27	; 0x38
    3ce2:	29 81       	ldd	r18, Y+1	; 0x01
    3ce4:	3a 81       	ldd	r19, Y+2	; 0x02
    3ce6:	8c 85       	ldd	r24, Y+12	; 0x0c
    3ce8:	9d 85       	ldd	r25, Y+13	; 0x0d
    3cea:	ae 85       	ldd	r26, Y+14	; 0x0e
    3cec:	bf 85       	ldd	r27, Y+15	; 0x0f
    3cee:	f9 01       	movw	r30, r18
    3cf0:	81 af       	std	Z+57, r24	; 0x39
    3cf2:	92 af       	std	Z+58, r25	; 0x3a
    3cf4:	a3 af       	std	Z+59, r26	; 0x3b
    3cf6:	b4 af       	std	Z+60, r27	; 0x3c
    3cf8:	89 81       	ldd	r24, Y+1	; 0x01
    3cfa:	9a 81       	ldd	r25, Y+2	; 0x02
    3cfc:	ce 96       	adiw	r24, 0x3e	; 62
    3cfe:	0d df       	rcall	.-486    	; 0x3b1a <_ZN11SPISettingsC1Ev>
    3d00:	00 00       	nop
    3d02:	2f 96       	adiw	r28, 0x0f	; 15
    3d04:	0f b6       	in	r0, 0x3f	; 63
    3d06:	f8 94       	cli
    3d08:	de bf       	out	0x3e, r29	; 62
    3d0a:	0f be       	out	0x3f, r0	; 63
    3d0c:	cd bf       	out	0x3d, r28	; 61
    3d0e:	df 91       	pop	r29
    3d10:	cf 91       	pop	r28
    3d12:	0f 91       	pop	r16
    3d14:	ff 90       	pop	r15
    3d16:	ef 90       	pop	r14
    3d18:	df 90       	pop	r13
    3d1a:	cf 90       	pop	r12
    3d1c:	bf 90       	pop	r11
    3d1e:	af 90       	pop	r10
    3d20:	9f 90       	pop	r9
    3d22:	8f 90       	pop	r8
    3d24:	08 95       	ret

00003d26 <_ZN16Adafruit_SSD1306D1Ev>:
    3d26:	cf 93       	push	r28
    3d28:	df 93       	push	r29
    3d2a:	1f 92       	push	r1
    3d2c:	1f 92       	push	r1
    3d2e:	cd b7       	in	r28, 0x3d	; 61
    3d30:	de b7       	in	r29, 0x3e	; 62
    3d32:	9a 83       	std	Y+2, r25	; 0x02
    3d34:	89 83       	std	Y+1, r24	; 0x01
    3d36:	2a e5       	ldi	r18, 0x5A	; 90
    3d38:	32 e0       	ldi	r19, 0x02	; 2
    3d3a:	89 81       	ldd	r24, Y+1	; 0x01
    3d3c:	9a 81       	ldd	r25, Y+2	; 0x02
    3d3e:	fc 01       	movw	r30, r24
    3d40:	31 83       	std	Z+1, r19	; 0x01
    3d42:	20 83       	st	Z, r18
    3d44:	89 81       	ldd	r24, Y+1	; 0x01
    3d46:	9a 81       	ldd	r25, Y+2	; 0x02
    3d48:	fc 01       	movw	r30, r24
    3d4a:	87 8d       	ldd	r24, Z+31	; 0x1f
    3d4c:	90 a1       	ldd	r25, Z+32	; 0x20
    3d4e:	89 2b       	or	r24, r25
    3d50:	61 f0       	breq	.+24     	; 0x3d6a <_ZN16Adafruit_SSD1306D1Ev+0x44>
    3d52:	89 81       	ldd	r24, Y+1	; 0x01
    3d54:	9a 81       	ldd	r25, Y+2	; 0x02
    3d56:	fc 01       	movw	r30, r24
    3d58:	87 8d       	ldd	r24, Z+31	; 0x1f
    3d5a:	90 a1       	ldd	r25, Z+32	; 0x20
    3d5c:	0e 94 7a 36 	call	0x6cf4	; 0x6cf4 <free>
    3d60:	89 81       	ldd	r24, Y+1	; 0x01
    3d62:	9a 81       	ldd	r25, Y+2	; 0x02
    3d64:	fc 01       	movw	r30, r24
    3d66:	10 a2       	std	Z+32, r1	; 0x20
    3d68:	17 8e       	std	Z+31, r1	; 0x1f
    3d6a:	00 00       	nop
    3d6c:	0f 90       	pop	r0
    3d6e:	0f 90       	pop	r0
    3d70:	df 91       	pop	r29
    3d72:	cf 91       	pop	r28
    3d74:	08 95       	ret

00003d76 <_ZN16Adafruit_SSD130616ssd1306_command1Eh>:
    3d76:	cf 93       	push	r28
    3d78:	df 93       	push	r29
    3d7a:	cd b7       	in	r28, 0x3d	; 61
    3d7c:	de b7       	in	r29, 0x3e	; 62
    3d7e:	27 97       	sbiw	r28, 0x07	; 7
    3d80:	0f b6       	in	r0, 0x3f	; 63
    3d82:	f8 94       	cli
    3d84:	de bf       	out	0x3e, r29	; 62
    3d86:	0f be       	out	0x3f, r0	; 63
    3d88:	cd bf       	out	0x3d, r28	; 61
    3d8a:	9e 83       	std	Y+6, r25	; 0x06
    3d8c:	8d 83       	std	Y+5, r24	; 0x05
    3d8e:	6f 83       	std	Y+7, r22	; 0x07
    3d90:	8d 81       	ldd	r24, Y+5	; 0x05
    3d92:	9e 81       	ldd	r25, Y+6	; 0x06
    3d94:	fc 01       	movw	r30, r24
    3d96:	85 8d       	ldd	r24, Z+29	; 0x1d
    3d98:	96 8d       	ldd	r25, Z+30	; 0x1e
    3d9a:	89 2b       	or	r24, r25
    3d9c:	e9 f1       	breq	.+122    	; 0x3e18 <_ZN16Adafruit_SSD130616ssd1306_command1Eh+0xa2>
    3d9e:	8d 81       	ldd	r24, Y+5	; 0x05
    3da0:	9e 81       	ldd	r25, Y+6	; 0x06
    3da2:	fc 01       	movw	r30, r24
    3da4:	81 a1       	ldd	r24, Z+33	; 0x21
    3da6:	28 2f       	mov	r18, r24
    3da8:	88 0f       	add	r24, r24
    3daa:	33 0b       	sbc	r19, r19
    3dac:	8d 81       	ldd	r24, Y+5	; 0x05
    3dae:	9e 81       	ldd	r25, Y+6	; 0x06
    3db0:	fc 01       	movw	r30, r24
    3db2:	85 8d       	ldd	r24, Z+29	; 0x1d
    3db4:	96 8d       	ldd	r25, Z+30	; 0x1e
    3db6:	b9 01       	movw	r22, r18
    3db8:	0e 94 4f 0d 	call	0x1a9e	; 0x1a9e <_ZN7TwoWire17beginTransmissionEi>
    3dbc:	8d 81       	ldd	r24, Y+5	; 0x05
    3dbe:	9e 81       	ldd	r25, Y+6	; 0x06
    3dc0:	fc 01       	movw	r30, r24
    3dc2:	85 8d       	ldd	r24, Z+29	; 0x1d
    3dc4:	96 8d       	ldd	r25, Z+30	; 0x1e
    3dc6:	fc 01       	movw	r30, r24
    3dc8:	80 81       	ld	r24, Z
    3dca:	91 81       	ldd	r25, Z+1	; 0x01
    3dcc:	fc 01       	movw	r30, r24
    3dce:	20 81       	ld	r18, Z
    3dd0:	31 81       	ldd	r19, Z+1	; 0x01
    3dd2:	8d 81       	ldd	r24, Y+5	; 0x05
    3dd4:	9e 81       	ldd	r25, Y+6	; 0x06
    3dd6:	fc 01       	movw	r30, r24
    3dd8:	85 8d       	ldd	r24, Z+29	; 0x1d
    3dda:	96 8d       	ldd	r25, Z+30	; 0x1e
    3ddc:	60 e0       	ldi	r22, 0x00	; 0
    3dde:	f9 01       	movw	r30, r18
    3de0:	19 95       	eicall
    3de2:	8d 81       	ldd	r24, Y+5	; 0x05
    3de4:	9e 81       	ldd	r25, Y+6	; 0x06
    3de6:	fc 01       	movw	r30, r24
    3de8:	85 8d       	ldd	r24, Z+29	; 0x1d
    3dea:	96 8d       	ldd	r25, Z+30	; 0x1e
    3dec:	fc 01       	movw	r30, r24
    3dee:	80 81       	ld	r24, Z
    3df0:	91 81       	ldd	r25, Z+1	; 0x01
    3df2:	fc 01       	movw	r30, r24
    3df4:	20 81       	ld	r18, Z
    3df6:	31 81       	ldd	r19, Z+1	; 0x01
    3df8:	8d 81       	ldd	r24, Y+5	; 0x05
    3dfa:	9e 81       	ldd	r25, Y+6	; 0x06
    3dfc:	fc 01       	movw	r30, r24
    3dfe:	85 8d       	ldd	r24, Z+29	; 0x1d
    3e00:	96 8d       	ldd	r25, Z+30	; 0x1e
    3e02:	6f 81       	ldd	r22, Y+7	; 0x07
    3e04:	f9 01       	movw	r30, r18
    3e06:	19 95       	eicall
    3e08:	8d 81       	ldd	r24, Y+5	; 0x05
    3e0a:	9e 81       	ldd	r25, Y+6	; 0x06
    3e0c:	fc 01       	movw	r30, r24
    3e0e:	85 8d       	ldd	r24, Z+29	; 0x1d
    3e10:	96 8d       	ldd	r25, Z+30	; 0x1e
    3e12:	0e 94 8a 0d 	call	0x1b14	; 0x1b14 <_ZN7TwoWire15endTransmissionEv>
    3e16:	88 c0       	rjmp	.+272    	; 0x3f28 <_ZN16Adafruit_SSD130616ssd1306_command1Eh+0x1b2>
    3e18:	8d 81       	ldd	r24, Y+5	; 0x05
    3e1a:	9e 81       	ldd	r25, Y+6	; 0x06
    3e1c:	fc 01       	movw	r30, r24
    3e1e:	85 a5       	ldd	r24, Z+45	; 0x2d
    3e20:	96 a5       	ldd	r25, Z+46	; 0x2e
    3e22:	2d 81       	ldd	r18, Y+5	; 0x05
    3e24:	3e 81       	ldd	r19, Y+6	; 0x06
    3e26:	f9 01       	movw	r30, r18
    3e28:	25 a5       	ldd	r18, Z+45	; 0x2d
    3e2a:	36 a5       	ldd	r19, Z+46	; 0x2e
    3e2c:	f9 01       	movw	r30, r18
    3e2e:	20 81       	ld	r18, Z
    3e30:	42 2f       	mov	r20, r18
    3e32:	2d 81       	ldd	r18, Y+5	; 0x05
    3e34:	3e 81       	ldd	r19, Y+6	; 0x06
    3e36:	f9 01       	movw	r30, r18
    3e38:	23 a9       	ldd	r18, Z+51	; 0x33
    3e3a:	20 95       	com	r18
    3e3c:	24 23       	and	r18, r20
    3e3e:	fc 01       	movw	r30, r24
    3e40:	20 83       	st	Z, r18
    3e42:	8d 81       	ldd	r24, Y+5	; 0x05
    3e44:	9e 81       	ldd	r25, Y+6	; 0x06
    3e46:	9a 83       	std	Y+2, r25	; 0x02
    3e48:	89 83       	std	Y+1, r24	; 0x01
    3e4a:	8f 81       	ldd	r24, Y+7	; 0x07
    3e4c:	8b 83       	std	Y+3, r24	; 0x03
    3e4e:	89 81       	ldd	r24, Y+1	; 0x01
    3e50:	9a 81       	ldd	r25, Y+2	; 0x02
    3e52:	fc 01       	movw	r30, r24
    3e54:	83 8d       	ldd	r24, Z+27	; 0x1b
    3e56:	94 8d       	ldd	r25, Z+28	; 0x1c
    3e58:	89 2b       	or	r24, r25
    3e5a:	19 f0       	breq	.+6      	; 0x3e62 <_ZN16Adafruit_SSD130616ssd1306_command1Eh+0xec>
    3e5c:	8b 81       	ldd	r24, Y+3	; 0x03
    3e5e:	3e de       	rcall	.-900    	; 0x3adc <_ZN8SPIClass8transferEh>
    3e60:	63 c0       	rjmp	.+198    	; 0x3f28 <_ZN16Adafruit_SSD130616ssd1306_command1Eh+0x1b2>
    3e62:	80 e8       	ldi	r24, 0x80	; 128
    3e64:	8c 83       	std	Y+4, r24	; 0x04
    3e66:	8c 81       	ldd	r24, Y+4	; 0x04
    3e68:	88 23       	and	r24, r24
    3e6a:	09 f4       	brne	.+2      	; 0x3e6e <_ZN16Adafruit_SSD130616ssd1306_command1Eh+0xf8>
    3e6c:	5d c0       	rjmp	.+186    	; 0x3f28 <_ZN16Adafruit_SSD130616ssd1306_command1Eh+0x1b2>
    3e6e:	9b 81       	ldd	r25, Y+3	; 0x03
    3e70:	8c 81       	ldd	r24, Y+4	; 0x04
    3e72:	89 23       	and	r24, r25
    3e74:	88 23       	and	r24, r24
    3e76:	a1 f0       	breq	.+40     	; 0x3ea0 <_ZN16Adafruit_SSD130616ssd1306_command1Eh+0x12a>
    3e78:	89 81       	ldd	r24, Y+1	; 0x01
    3e7a:	9a 81       	ldd	r25, Y+2	; 0x02
    3e7c:	fc 01       	movw	r30, r24
    3e7e:	81 a5       	ldd	r24, Z+41	; 0x29
    3e80:	92 a5       	ldd	r25, Z+42	; 0x2a
    3e82:	29 81       	ldd	r18, Y+1	; 0x01
    3e84:	3a 81       	ldd	r19, Y+2	; 0x02
    3e86:	f9 01       	movw	r30, r18
    3e88:	21 a5       	ldd	r18, Z+41	; 0x29
    3e8a:	32 a5       	ldd	r19, Z+42	; 0x2a
    3e8c:	f9 01       	movw	r30, r18
    3e8e:	40 81       	ld	r20, Z
    3e90:	29 81       	ldd	r18, Y+1	; 0x01
    3e92:	3a 81       	ldd	r19, Y+2	; 0x02
    3e94:	f9 01       	movw	r30, r18
    3e96:	21 a9       	ldd	r18, Z+49	; 0x31
    3e98:	24 2b       	or	r18, r20
    3e9a:	fc 01       	movw	r30, r24
    3e9c:	20 83       	st	Z, r18
    3e9e:	15 c0       	rjmp	.+42     	; 0x3eca <_ZN16Adafruit_SSD130616ssd1306_command1Eh+0x154>
    3ea0:	89 81       	ldd	r24, Y+1	; 0x01
    3ea2:	9a 81       	ldd	r25, Y+2	; 0x02
    3ea4:	fc 01       	movw	r30, r24
    3ea6:	81 a5       	ldd	r24, Z+41	; 0x29
    3ea8:	92 a5       	ldd	r25, Z+42	; 0x2a
    3eaa:	29 81       	ldd	r18, Y+1	; 0x01
    3eac:	3a 81       	ldd	r19, Y+2	; 0x02
    3eae:	f9 01       	movw	r30, r18
    3eb0:	21 a5       	ldd	r18, Z+41	; 0x29
    3eb2:	32 a5       	ldd	r19, Z+42	; 0x2a
    3eb4:	f9 01       	movw	r30, r18
    3eb6:	20 81       	ld	r18, Z
    3eb8:	42 2f       	mov	r20, r18
    3eba:	29 81       	ldd	r18, Y+1	; 0x01
    3ebc:	3a 81       	ldd	r19, Y+2	; 0x02
    3ebe:	f9 01       	movw	r30, r18
    3ec0:	21 a9       	ldd	r18, Z+49	; 0x31
    3ec2:	20 95       	com	r18
    3ec4:	24 23       	and	r18, r20
    3ec6:	fc 01       	movw	r30, r24
    3ec8:	20 83       	st	Z, r18
    3eca:	89 81       	ldd	r24, Y+1	; 0x01
    3ecc:	9a 81       	ldd	r25, Y+2	; 0x02
    3ece:	fc 01       	movw	r30, r24
    3ed0:	83 a5       	ldd	r24, Z+43	; 0x2b
    3ed2:	94 a5       	ldd	r25, Z+44	; 0x2c
    3ed4:	29 81       	ldd	r18, Y+1	; 0x01
    3ed6:	3a 81       	ldd	r19, Y+2	; 0x02
    3ed8:	f9 01       	movw	r30, r18
    3eda:	23 a5       	ldd	r18, Z+43	; 0x2b
    3edc:	34 a5       	ldd	r19, Z+44	; 0x2c
    3ede:	f9 01       	movw	r30, r18
    3ee0:	40 81       	ld	r20, Z
    3ee2:	29 81       	ldd	r18, Y+1	; 0x01
    3ee4:	3a 81       	ldd	r19, Y+2	; 0x02
    3ee6:	f9 01       	movw	r30, r18
    3ee8:	22 a9       	ldd	r18, Z+50	; 0x32
    3eea:	24 2b       	or	r18, r20
    3eec:	fc 01       	movw	r30, r24
    3eee:	20 83       	st	Z, r18
    3ef0:	89 81       	ldd	r24, Y+1	; 0x01
    3ef2:	9a 81       	ldd	r25, Y+2	; 0x02
    3ef4:	fc 01       	movw	r30, r24
    3ef6:	83 a5       	ldd	r24, Z+43	; 0x2b
    3ef8:	94 a5       	ldd	r25, Z+44	; 0x2c
    3efa:	29 81       	ldd	r18, Y+1	; 0x01
    3efc:	3a 81       	ldd	r19, Y+2	; 0x02
    3efe:	f9 01       	movw	r30, r18
    3f00:	23 a5       	ldd	r18, Z+43	; 0x2b
    3f02:	34 a5       	ldd	r19, Z+44	; 0x2c
    3f04:	f9 01       	movw	r30, r18
    3f06:	20 81       	ld	r18, Z
    3f08:	42 2f       	mov	r20, r18
    3f0a:	29 81       	ldd	r18, Y+1	; 0x01
    3f0c:	3a 81       	ldd	r19, Y+2	; 0x02
    3f0e:	f9 01       	movw	r30, r18
    3f10:	22 a9       	ldd	r18, Z+50	; 0x32
    3f12:	20 95       	com	r18
    3f14:	24 23       	and	r18, r20
    3f16:	fc 01       	movw	r30, r24
    3f18:	20 83       	st	Z, r18
    3f1a:	8c 81       	ldd	r24, Y+4	; 0x04
    3f1c:	88 2f       	mov	r24, r24
    3f1e:	90 e0       	ldi	r25, 0x00	; 0
    3f20:	95 95       	asr	r25
    3f22:	87 95       	ror	r24
    3f24:	8c 83       	std	Y+4, r24	; 0x04
    3f26:	9f cf       	rjmp	.-194    	; 0x3e66 <_ZN16Adafruit_SSD130616ssd1306_command1Eh+0xf0>
    3f28:	00 00       	nop
    3f2a:	27 96       	adiw	r28, 0x07	; 7
    3f2c:	0f b6       	in	r0, 0x3f	; 63
    3f2e:	f8 94       	cli
    3f30:	de bf       	out	0x3e, r29	; 62
    3f32:	0f be       	out	0x3f, r0	; 63
    3f34:	cd bf       	out	0x3d, r28	; 61
    3f36:	df 91       	pop	r29
    3f38:	cf 91       	pop	r28
    3f3a:	08 95       	ret

00003f3c <_ZN16Adafruit_SSD130619ssd1306_commandListEPKhh>:
    3f3c:	cf 93       	push	r28
    3f3e:	df 93       	push	r29
    3f40:	cd b7       	in	r28, 0x3d	; 61
    3f42:	de b7       	in	r29, 0x3e	; 62
    3f44:	61 97       	sbiw	r28, 0x11	; 17
    3f46:	0f b6       	in	r0, 0x3f	; 63
    3f48:	f8 94       	cli
    3f4a:	de bf       	out	0x3e, r29	; 62
    3f4c:	0f be       	out	0x3f, r0	; 63
    3f4e:	cd bf       	out	0x3d, r28	; 61
    3f50:	9e 87       	std	Y+14, r25	; 0x0e
    3f52:	8d 87       	std	Y+13, r24	; 0x0d
    3f54:	78 8b       	std	Y+16, r23	; 0x10
    3f56:	6f 87       	std	Y+15, r22	; 0x0f
    3f58:	49 8b       	std	Y+17, r20	; 0x11
    3f5a:	8d 85       	ldd	r24, Y+13	; 0x0d
    3f5c:	9e 85       	ldd	r25, Y+14	; 0x0e
    3f5e:	fc 01       	movw	r30, r24
    3f60:	85 8d       	ldd	r24, Z+29	; 0x1d
    3f62:	96 8d       	ldd	r25, Z+30	; 0x1e
    3f64:	89 2b       	or	r24, r25
    3f66:	09 f4       	brne	.+2      	; 0x3f6a <_ZN16Adafruit_SSD130619ssd1306_commandListEPKhh+0x2e>
    3f68:	92 c0       	rjmp	.+292    	; 0x408e <_ZN16Adafruit_SSD130619ssd1306_commandListEPKhh+0x152>
    3f6a:	8d 85       	ldd	r24, Y+13	; 0x0d
    3f6c:	9e 85       	ldd	r25, Y+14	; 0x0e
    3f6e:	fc 01       	movw	r30, r24
    3f70:	81 a1       	ldd	r24, Z+33	; 0x21
    3f72:	28 2f       	mov	r18, r24
    3f74:	88 0f       	add	r24, r24
    3f76:	33 0b       	sbc	r19, r19
    3f78:	8d 85       	ldd	r24, Y+13	; 0x0d
    3f7a:	9e 85       	ldd	r25, Y+14	; 0x0e
    3f7c:	fc 01       	movw	r30, r24
    3f7e:	85 8d       	ldd	r24, Z+29	; 0x1d
    3f80:	96 8d       	ldd	r25, Z+30	; 0x1e
    3f82:	b9 01       	movw	r22, r18
    3f84:	0e 94 4f 0d 	call	0x1a9e	; 0x1a9e <_ZN7TwoWire17beginTransmissionEi>
    3f88:	8d 85       	ldd	r24, Y+13	; 0x0d
    3f8a:	9e 85       	ldd	r25, Y+14	; 0x0e
    3f8c:	fc 01       	movw	r30, r24
    3f8e:	85 8d       	ldd	r24, Z+29	; 0x1d
    3f90:	96 8d       	ldd	r25, Z+30	; 0x1e
    3f92:	fc 01       	movw	r30, r24
    3f94:	80 81       	ld	r24, Z
    3f96:	91 81       	ldd	r25, Z+1	; 0x01
    3f98:	fc 01       	movw	r30, r24
    3f9a:	20 81       	ld	r18, Z
    3f9c:	31 81       	ldd	r19, Z+1	; 0x01
    3f9e:	8d 85       	ldd	r24, Y+13	; 0x0d
    3fa0:	9e 85       	ldd	r25, Y+14	; 0x0e
    3fa2:	fc 01       	movw	r30, r24
    3fa4:	85 8d       	ldd	r24, Z+29	; 0x1d
    3fa6:	96 8d       	ldd	r25, Z+30	; 0x1e
    3fa8:	60 e0       	ldi	r22, 0x00	; 0
    3faa:	f9 01       	movw	r30, r18
    3fac:	19 95       	eicall
    3fae:	81 e0       	ldi	r24, 0x01	; 1
    3fb0:	90 e0       	ldi	r25, 0x00	; 0
    3fb2:	9a 83       	std	Y+2, r25	; 0x02
    3fb4:	89 83       	std	Y+1, r24	; 0x01
    3fb6:	89 89       	ldd	r24, Y+17	; 0x11
    3fb8:	9f ef       	ldi	r25, 0xFF	; 255
    3fba:	98 0f       	add	r25, r24
    3fbc:	99 8b       	std	Y+17, r25	; 0x11
    3fbe:	91 e0       	ldi	r25, 0x01	; 1
    3fc0:	88 23       	and	r24, r24
    3fc2:	09 f4       	brne	.+2      	; 0x3fc6 <_ZN16Adafruit_SSD130619ssd1306_commandListEPKhh+0x8a>
    3fc4:	90 e0       	ldi	r25, 0x00	; 0
    3fc6:	99 23       	and	r25, r25
    3fc8:	09 f4       	brne	.+2      	; 0x3fcc <_ZN16Adafruit_SSD130619ssd1306_commandListEPKhh+0x90>
    3fca:	59 c0       	rjmp	.+178    	; 0x407e <_ZN16Adafruit_SSD130619ssd1306_commandListEPKhh+0x142>
    3fcc:	89 81       	ldd	r24, Y+1	; 0x01
    3fce:	9a 81       	ldd	r25, Y+2	; 0x02
    3fd0:	80 97       	sbiw	r24, 0x20	; 32
    3fd2:	68 f1       	brcs	.+90     	; 0x402e <_ZN16Adafruit_SSD130619ssd1306_commandListEPKhh+0xf2>
    3fd4:	8d 85       	ldd	r24, Y+13	; 0x0d
    3fd6:	9e 85       	ldd	r25, Y+14	; 0x0e
    3fd8:	fc 01       	movw	r30, r24
    3fda:	85 8d       	ldd	r24, Z+29	; 0x1d
    3fdc:	96 8d       	ldd	r25, Z+30	; 0x1e
    3fde:	0e 94 8a 0d 	call	0x1b14	; 0x1b14 <_ZN7TwoWire15endTransmissionEv>
    3fe2:	8d 85       	ldd	r24, Y+13	; 0x0d
    3fe4:	9e 85       	ldd	r25, Y+14	; 0x0e
    3fe6:	fc 01       	movw	r30, r24
    3fe8:	81 a1       	ldd	r24, Z+33	; 0x21
    3fea:	28 2f       	mov	r18, r24
    3fec:	88 0f       	add	r24, r24
    3fee:	33 0b       	sbc	r19, r19
    3ff0:	8d 85       	ldd	r24, Y+13	; 0x0d
    3ff2:	9e 85       	ldd	r25, Y+14	; 0x0e
    3ff4:	fc 01       	movw	r30, r24
    3ff6:	85 8d       	ldd	r24, Z+29	; 0x1d
    3ff8:	96 8d       	ldd	r25, Z+30	; 0x1e
    3ffa:	b9 01       	movw	r22, r18
    3ffc:	0e 94 4f 0d 	call	0x1a9e	; 0x1a9e <_ZN7TwoWire17beginTransmissionEi>
    4000:	8d 85       	ldd	r24, Y+13	; 0x0d
    4002:	9e 85       	ldd	r25, Y+14	; 0x0e
    4004:	fc 01       	movw	r30, r24
    4006:	85 8d       	ldd	r24, Z+29	; 0x1d
    4008:	96 8d       	ldd	r25, Z+30	; 0x1e
    400a:	fc 01       	movw	r30, r24
    400c:	80 81       	ld	r24, Z
    400e:	91 81       	ldd	r25, Z+1	; 0x01
    4010:	fc 01       	movw	r30, r24
    4012:	20 81       	ld	r18, Z
    4014:	31 81       	ldd	r19, Z+1	; 0x01
    4016:	8d 85       	ldd	r24, Y+13	; 0x0d
    4018:	9e 85       	ldd	r25, Y+14	; 0x0e
    401a:	fc 01       	movw	r30, r24
    401c:	85 8d       	ldd	r24, Z+29	; 0x1d
    401e:	96 8d       	ldd	r25, Z+30	; 0x1e
    4020:	60 e0       	ldi	r22, 0x00	; 0
    4022:	f9 01       	movw	r30, r18
    4024:	19 95       	eicall
    4026:	81 e0       	ldi	r24, 0x01	; 1
    4028:	90 e0       	ldi	r25, 0x00	; 0
    402a:	9a 83       	std	Y+2, r25	; 0x02
    402c:	89 83       	std	Y+1, r24	; 0x01
    402e:	8d 85       	ldd	r24, Y+13	; 0x0d
    4030:	9e 85       	ldd	r25, Y+14	; 0x0e
    4032:	fc 01       	movw	r30, r24
    4034:	85 8d       	ldd	r24, Z+29	; 0x1d
    4036:	96 8d       	ldd	r25, Z+30	; 0x1e
    4038:	fc 01       	movw	r30, r24
    403a:	80 81       	ld	r24, Z
    403c:	91 81       	ldd	r25, Z+1	; 0x01
    403e:	fc 01       	movw	r30, r24
    4040:	20 81       	ld	r18, Z
    4042:	31 81       	ldd	r19, Z+1	; 0x01
    4044:	8f 85       	ldd	r24, Y+15	; 0x0f
    4046:	98 89       	ldd	r25, Y+16	; 0x10
    4048:	ac 01       	movw	r20, r24
    404a:	4f 5f       	subi	r20, 0xFF	; 255
    404c:	5f 4f       	sbci	r21, 0xFF	; 255
    404e:	58 8b       	std	Y+16, r21	; 0x10
    4050:	4f 87       	std	Y+15, r20	; 0x0f
    4052:	9c 83       	std	Y+4, r25	; 0x04
    4054:	8b 83       	std	Y+3, r24	; 0x03
    4056:	8b 81       	ldd	r24, Y+3	; 0x03
    4058:	9c 81       	ldd	r25, Y+4	; 0x04
    405a:	fc 01       	movw	r30, r24
    405c:	84 91       	lpm	r24, Z
    405e:	8d 83       	std	Y+5, r24	; 0x05
    4060:	4d 81       	ldd	r20, Y+5	; 0x05
    4062:	8d 85       	ldd	r24, Y+13	; 0x0d
    4064:	9e 85       	ldd	r25, Y+14	; 0x0e
    4066:	fc 01       	movw	r30, r24
    4068:	85 8d       	ldd	r24, Z+29	; 0x1d
    406a:	96 8d       	ldd	r25, Z+30	; 0x1e
    406c:	64 2f       	mov	r22, r20
    406e:	f9 01       	movw	r30, r18
    4070:	19 95       	eicall
    4072:	89 81       	ldd	r24, Y+1	; 0x01
    4074:	9a 81       	ldd	r25, Y+2	; 0x02
    4076:	01 96       	adiw	r24, 0x01	; 1
    4078:	9a 83       	std	Y+2, r25	; 0x02
    407a:	89 83       	std	Y+1, r24	; 0x01
    407c:	9c cf       	rjmp	.-200    	; 0x3fb6 <_ZN16Adafruit_SSD130619ssd1306_commandListEPKhh+0x7a>
    407e:	8d 85       	ldd	r24, Y+13	; 0x0d
    4080:	9e 85       	ldd	r25, Y+14	; 0x0e
    4082:	fc 01       	movw	r30, r24
    4084:	85 8d       	ldd	r24, Z+29	; 0x1d
    4086:	96 8d       	ldd	r25, Z+30	; 0x1e
    4088:	0e 94 8a 0d 	call	0x1b14	; 0x1b14 <_ZN7TwoWire15endTransmissionEv>
    408c:	a0 c0       	rjmp	.+320    	; 0x41ce <_ZN16Adafruit_SSD130619ssd1306_commandListEPKhh+0x292>
    408e:	8d 85       	ldd	r24, Y+13	; 0x0d
    4090:	9e 85       	ldd	r25, Y+14	; 0x0e
    4092:	fc 01       	movw	r30, r24
    4094:	85 a5       	ldd	r24, Z+45	; 0x2d
    4096:	96 a5       	ldd	r25, Z+46	; 0x2e
    4098:	2d 85       	ldd	r18, Y+13	; 0x0d
    409a:	3e 85       	ldd	r19, Y+14	; 0x0e
    409c:	f9 01       	movw	r30, r18
    409e:	25 a5       	ldd	r18, Z+45	; 0x2d
    40a0:	36 a5       	ldd	r19, Z+46	; 0x2e
    40a2:	f9 01       	movw	r30, r18
    40a4:	20 81       	ld	r18, Z
    40a6:	42 2f       	mov	r20, r18
    40a8:	2d 85       	ldd	r18, Y+13	; 0x0d
    40aa:	3e 85       	ldd	r19, Y+14	; 0x0e
    40ac:	f9 01       	movw	r30, r18
    40ae:	23 a9       	ldd	r18, Z+51	; 0x33
    40b0:	20 95       	com	r18
    40b2:	24 23       	and	r18, r20
    40b4:	fc 01       	movw	r30, r24
    40b6:	20 83       	st	Z, r18
    40b8:	89 89       	ldd	r24, Y+17	; 0x11
    40ba:	9f ef       	ldi	r25, 0xFF	; 255
    40bc:	98 0f       	add	r25, r24
    40be:	99 8b       	std	Y+17, r25	; 0x11
    40c0:	91 e0       	ldi	r25, 0x01	; 1
    40c2:	88 23       	and	r24, r24
    40c4:	09 f4       	brne	.+2      	; 0x40c8 <_ZN16Adafruit_SSD130619ssd1306_commandListEPKhh+0x18c>
    40c6:	90 e0       	ldi	r25, 0x00	; 0
    40c8:	99 23       	and	r25, r25
    40ca:	09 f4       	brne	.+2      	; 0x40ce <_ZN16Adafruit_SSD130619ssd1306_commandListEPKhh+0x192>
    40cc:	80 c0       	rjmp	.+256    	; 0x41ce <_ZN16Adafruit_SSD130619ssd1306_commandListEPKhh+0x292>
    40ce:	8f 85       	ldd	r24, Y+15	; 0x0f
    40d0:	98 89       	ldd	r25, Y+16	; 0x10
    40d2:	9c 01       	movw	r18, r24
    40d4:	2f 5f       	subi	r18, 0xFF	; 255
    40d6:	3f 4f       	sbci	r19, 0xFF	; 255
    40d8:	38 8b       	std	Y+16, r19	; 0x10
    40da:	2f 87       	std	Y+15, r18	; 0x0f
    40dc:	9f 83       	std	Y+7, r25	; 0x07
    40de:	8e 83       	std	Y+6, r24	; 0x06
    40e0:	8e 81       	ldd	r24, Y+6	; 0x06
    40e2:	9f 81       	ldd	r25, Y+7	; 0x07
    40e4:	fc 01       	movw	r30, r24
    40e6:	84 91       	lpm	r24, Z
    40e8:	88 87       	std	Y+8, r24	; 0x08
    40ea:	28 85       	ldd	r18, Y+8	; 0x08
    40ec:	8d 85       	ldd	r24, Y+13	; 0x0d
    40ee:	9e 85       	ldd	r25, Y+14	; 0x0e
    40f0:	9a 87       	std	Y+10, r25	; 0x0a
    40f2:	89 87       	std	Y+9, r24	; 0x09
    40f4:	2b 87       	std	Y+11, r18	; 0x0b
    40f6:	89 85       	ldd	r24, Y+9	; 0x09
    40f8:	9a 85       	ldd	r25, Y+10	; 0x0a
    40fa:	fc 01       	movw	r30, r24
    40fc:	83 8d       	ldd	r24, Z+27	; 0x1b
    40fe:	94 8d       	ldd	r25, Z+28	; 0x1c
    4100:	89 2b       	or	r24, r25
    4102:	19 f0       	breq	.+6      	; 0x410a <_ZN16Adafruit_SSD130619ssd1306_commandListEPKhh+0x1ce>
    4104:	8b 85       	ldd	r24, Y+11	; 0x0b
    4106:	ea dc       	rcall	.-1580   	; 0x3adc <_ZN8SPIClass8transferEh>
    4108:	d7 cf       	rjmp	.-82     	; 0x40b8 <_ZN16Adafruit_SSD130619ssd1306_commandListEPKhh+0x17c>
    410a:	80 e8       	ldi	r24, 0x80	; 128
    410c:	8c 87       	std	Y+12, r24	; 0x0c
    410e:	8c 85       	ldd	r24, Y+12	; 0x0c
    4110:	88 23       	and	r24, r24
    4112:	91 f2       	breq	.-92     	; 0x40b8 <_ZN16Adafruit_SSD130619ssd1306_commandListEPKhh+0x17c>
    4114:	9b 85       	ldd	r25, Y+11	; 0x0b
    4116:	8c 85       	ldd	r24, Y+12	; 0x0c
    4118:	89 23       	and	r24, r25
    411a:	88 23       	and	r24, r24
    411c:	a1 f0       	breq	.+40     	; 0x4146 <_ZN16Adafruit_SSD130619ssd1306_commandListEPKhh+0x20a>
    411e:	89 85       	ldd	r24, Y+9	; 0x09
    4120:	9a 85       	ldd	r25, Y+10	; 0x0a
    4122:	fc 01       	movw	r30, r24
    4124:	81 a5       	ldd	r24, Z+41	; 0x29
    4126:	92 a5       	ldd	r25, Z+42	; 0x2a
    4128:	29 85       	ldd	r18, Y+9	; 0x09
    412a:	3a 85       	ldd	r19, Y+10	; 0x0a
    412c:	f9 01       	movw	r30, r18
    412e:	21 a5       	ldd	r18, Z+41	; 0x29
    4130:	32 a5       	ldd	r19, Z+42	; 0x2a
    4132:	f9 01       	movw	r30, r18
    4134:	40 81       	ld	r20, Z
    4136:	29 85       	ldd	r18, Y+9	; 0x09
    4138:	3a 85       	ldd	r19, Y+10	; 0x0a
    413a:	f9 01       	movw	r30, r18
    413c:	21 a9       	ldd	r18, Z+49	; 0x31
    413e:	24 2b       	or	r18, r20
    4140:	fc 01       	movw	r30, r24
    4142:	20 83       	st	Z, r18
    4144:	15 c0       	rjmp	.+42     	; 0x4170 <_ZN16Adafruit_SSD130619ssd1306_commandListEPKhh+0x234>
    4146:	89 85       	ldd	r24, Y+9	; 0x09
    4148:	9a 85       	ldd	r25, Y+10	; 0x0a
    414a:	fc 01       	movw	r30, r24
    414c:	81 a5       	ldd	r24, Z+41	; 0x29
    414e:	92 a5       	ldd	r25, Z+42	; 0x2a
    4150:	29 85       	ldd	r18, Y+9	; 0x09
    4152:	3a 85       	ldd	r19, Y+10	; 0x0a
    4154:	f9 01       	movw	r30, r18
    4156:	21 a5       	ldd	r18, Z+41	; 0x29
    4158:	32 a5       	ldd	r19, Z+42	; 0x2a
    415a:	f9 01       	movw	r30, r18
    415c:	20 81       	ld	r18, Z
    415e:	42 2f       	mov	r20, r18
    4160:	29 85       	ldd	r18, Y+9	; 0x09
    4162:	3a 85       	ldd	r19, Y+10	; 0x0a
    4164:	f9 01       	movw	r30, r18
    4166:	21 a9       	ldd	r18, Z+49	; 0x31
    4168:	20 95       	com	r18
    416a:	24 23       	and	r18, r20
    416c:	fc 01       	movw	r30, r24
    416e:	20 83       	st	Z, r18
    4170:	89 85       	ldd	r24, Y+9	; 0x09
    4172:	9a 85       	ldd	r25, Y+10	; 0x0a
    4174:	fc 01       	movw	r30, r24
    4176:	83 a5       	ldd	r24, Z+43	; 0x2b
    4178:	94 a5       	ldd	r25, Z+44	; 0x2c
    417a:	29 85       	ldd	r18, Y+9	; 0x09
    417c:	3a 85       	ldd	r19, Y+10	; 0x0a
    417e:	f9 01       	movw	r30, r18
    4180:	23 a5       	ldd	r18, Z+43	; 0x2b
    4182:	34 a5       	ldd	r19, Z+44	; 0x2c
    4184:	f9 01       	movw	r30, r18
    4186:	40 81       	ld	r20, Z
    4188:	29 85       	ldd	r18, Y+9	; 0x09
    418a:	3a 85       	ldd	r19, Y+10	; 0x0a
    418c:	f9 01       	movw	r30, r18
    418e:	22 a9       	ldd	r18, Z+50	; 0x32
    4190:	24 2b       	or	r18, r20
    4192:	fc 01       	movw	r30, r24
    4194:	20 83       	st	Z, r18
    4196:	89 85       	ldd	r24, Y+9	; 0x09
    4198:	9a 85       	ldd	r25, Y+10	; 0x0a
    419a:	fc 01       	movw	r30, r24
    419c:	83 a5       	ldd	r24, Z+43	; 0x2b
    419e:	94 a5       	ldd	r25, Z+44	; 0x2c
    41a0:	29 85       	ldd	r18, Y+9	; 0x09
    41a2:	3a 85       	ldd	r19, Y+10	; 0x0a
    41a4:	f9 01       	movw	r30, r18
    41a6:	23 a5       	ldd	r18, Z+43	; 0x2b
    41a8:	34 a5       	ldd	r19, Z+44	; 0x2c
    41aa:	f9 01       	movw	r30, r18
    41ac:	20 81       	ld	r18, Z
    41ae:	42 2f       	mov	r20, r18
    41b0:	29 85       	ldd	r18, Y+9	; 0x09
    41b2:	3a 85       	ldd	r19, Y+10	; 0x0a
    41b4:	f9 01       	movw	r30, r18
    41b6:	22 a9       	ldd	r18, Z+50	; 0x32
    41b8:	20 95       	com	r18
    41ba:	24 23       	and	r18, r20
    41bc:	fc 01       	movw	r30, r24
    41be:	20 83       	st	Z, r18
    41c0:	8c 85       	ldd	r24, Y+12	; 0x0c
    41c2:	88 2f       	mov	r24, r24
    41c4:	90 e0       	ldi	r25, 0x00	; 0
    41c6:	95 95       	asr	r25
    41c8:	87 95       	ror	r24
    41ca:	8c 87       	std	Y+12, r24	; 0x0c
    41cc:	a0 cf       	rjmp	.-192    	; 0x410e <_ZN16Adafruit_SSD130619ssd1306_commandListEPKhh+0x1d2>
    41ce:	00 00       	nop
    41d0:	61 96       	adiw	r28, 0x11	; 17
    41d2:	0f b6       	in	r0, 0x3f	; 63
    41d4:	f8 94       	cli
    41d6:	de bf       	out	0x3e, r29	; 62
    41d8:	0f be       	out	0x3f, r0	; 63
    41da:	cd bf       	out	0x3d, r28	; 61
    41dc:	df 91       	pop	r29
    41de:	cf 91       	pop	r28
    41e0:	08 95       	ret

000041e2 <_ZN16Adafruit_SSD13065beginEhhbb>:
    41e2:	cf 92       	push	r12
    41e4:	df 92       	push	r13
    41e6:	ef 92       	push	r14
    41e8:	ff 92       	push	r15
    41ea:	0f 93       	push	r16
    41ec:	1f 93       	push	r17
    41ee:	cf 93       	push	r28
    41f0:	df 93       	push	r29
    41f2:	cd b7       	in	r28, 0x3d	; 61
    41f4:	de b7       	in	r29, 0x3e	; 62
    41f6:	af 97       	sbiw	r28, 0x2f	; 47
    41f8:	0f b6       	in	r0, 0x3f	; 63
    41fa:	f8 94       	cli
    41fc:	de bf       	out	0x3e, r29	; 62
    41fe:	0f be       	out	0x3f, r0	; 63
    4200:	cd bf       	out	0x3d, r28	; 61
    4202:	9b a7       	std	Y+43, r25	; 0x2b
    4204:	8a a7       	std	Y+42, r24	; 0x2a
    4206:	6c a7       	std	Y+44, r22	; 0x2c
    4208:	4d a7       	std	Y+45, r20	; 0x2d
    420a:	2e a7       	std	Y+46, r18	; 0x2e
    420c:	0f a7       	std	Y+47, r16	; 0x2f
    420e:	8a a5       	ldd	r24, Y+42	; 0x2a
    4210:	9b a5       	ldd	r25, Y+43	; 0x2b
    4212:	fc 01       	movw	r30, r24
    4214:	87 8d       	ldd	r24, Z+31	; 0x1f
    4216:	90 a1       	ldd	r25, Z+32	; 0x20
    4218:	89 2b       	or	r24, r25
    421a:	69 f5       	brne	.+90     	; 0x4276 <_ZN16Adafruit_SSD13065beginEhhbb+0x94>
    421c:	8a a5       	ldd	r24, Y+42	; 0x2a
    421e:	9b a5       	ldd	r25, Y+43	; 0x2b
    4220:	fc 01       	movw	r30, r24
    4222:	24 81       	ldd	r18, Z+4	; 0x04
    4224:	35 81       	ldd	r19, Z+5	; 0x05
    4226:	8a a5       	ldd	r24, Y+42	; 0x2a
    4228:	9b a5       	ldd	r25, Y+43	; 0x2b
    422a:	fc 01       	movw	r30, r24
    422c:	86 81       	ldd	r24, Z+6	; 0x06
    422e:	97 81       	ldd	r25, Z+7	; 0x07
    4230:	07 96       	adiw	r24, 0x07	; 7
    4232:	99 23       	and	r25, r25
    4234:	0c f4       	brge	.+2      	; 0x4238 <_ZN16Adafruit_SSD13065beginEhhbb+0x56>
    4236:	07 96       	adiw	r24, 0x07	; 7
    4238:	95 95       	asr	r25
    423a:	87 95       	ror	r24
    423c:	95 95       	asr	r25
    423e:	87 95       	ror	r24
    4240:	95 95       	asr	r25
    4242:	87 95       	ror	r24
    4244:	ac 01       	movw	r20, r24
    4246:	24 9f       	mul	r18, r20
    4248:	c0 01       	movw	r24, r0
    424a:	25 9f       	mul	r18, r21
    424c:	90 0d       	add	r25, r0
    424e:	34 9f       	mul	r19, r20
    4250:	90 0d       	add	r25, r0
    4252:	11 24       	eor	r1, r1
    4254:	0e 94 e2 35 	call	0x6bc4	; 0x6bc4 <malloc>
    4258:	9c 01       	movw	r18, r24
    425a:	8a a5       	ldd	r24, Y+42	; 0x2a
    425c:	9b a5       	ldd	r25, Y+43	; 0x2b
    425e:	fc 01       	movw	r30, r24
    4260:	30 a3       	std	Z+32, r19	; 0x20
    4262:	27 8f       	std	Z+31, r18	; 0x1f
    4264:	8a a5       	ldd	r24, Y+42	; 0x2a
    4266:	9b a5       	ldd	r25, Y+43	; 0x2b
    4268:	fc 01       	movw	r30, r24
    426a:	87 8d       	ldd	r24, Z+31	; 0x1f
    426c:	90 a1       	ldd	r25, Z+32	; 0x20
    426e:	89 2b       	or	r24, r25
    4270:	11 f4       	brne	.+4      	; 0x4276 <_ZN16Adafruit_SSD13065beginEhhbb+0x94>
    4272:	81 e0       	ldi	r24, 0x01	; 1
    4274:	01 c0       	rjmp	.+2      	; 0x4278 <_ZN16Adafruit_SSD13065beginEhhbb+0x96>
    4276:	80 e0       	ldi	r24, 0x00	; 0
    4278:	88 23       	and	r24, r24
    427a:	11 f0       	breq	.+4      	; 0x4280 <_ZN16Adafruit_SSD13065beginEhhbb+0x9e>
    427c:	80 e0       	ldi	r24, 0x00	; 0
    427e:	31 c3       	rjmp	.+1634   	; 0x48e2 <_ZN16Adafruit_SSD13065beginEhhbb+0x700>
    4280:	8a a5       	ldd	r24, Y+42	; 0x2a
    4282:	9b a5       	ldd	r25, Y+43	; 0x2b
    4284:	fe d4       	rcall	.+2556   	; 0x4c82 <_ZN16Adafruit_SSD130612clearDisplayEv>
    4286:	8a a5       	ldd	r24, Y+42	; 0x2a
    4288:	9b a5       	ldd	r25, Y+43	; 0x2b
    428a:	fc 01       	movw	r30, r24
    428c:	86 81       	ldd	r24, Z+6	; 0x06
    428e:	97 81       	ldd	r25, Z+7	; 0x07
    4290:	81 97       	sbiw	r24, 0x21	; 33
    4292:	54 f1       	brlt	.+84     	; 0x42e8 <_ZN16Adafruit_SSD13065beginEhhbb+0x106>
    4294:	8a a5       	ldd	r24, Y+42	; 0x2a
    4296:	9b a5       	ldd	r25, Y+43	; 0x2b
    4298:	fc 01       	movw	r30, r24
    429a:	86 81       	ldd	r24, Z+6	; 0x06
    429c:	97 81       	ldd	r25, Z+7	; 0x07
    429e:	80 54       	subi	r24, 0x40	; 64
    42a0:	91 09       	sbc	r25, r1
    42a2:	99 23       	and	r25, r25
    42a4:	0c f4       	brge	.+2      	; 0x42a8 <_ZN16Adafruit_SSD13065beginEhhbb+0xc6>
    42a6:	01 96       	adiw	r24, 0x01	; 1
    42a8:	95 95       	asr	r25
    42aa:	87 95       	ror	r24
    42ac:	ac 01       	movw	r20, r24
    42ae:	8a a5       	ldd	r24, Y+42	; 0x2a
    42b0:	9b a5       	ldd	r25, Y+43	; 0x2b
    42b2:	fc 01       	movw	r30, r24
    42b4:	84 81       	ldd	r24, Z+4	; 0x04
    42b6:	95 81       	ldd	r25, Z+5	; 0x05
    42b8:	82 55       	subi	r24, 0x52	; 82
    42ba:	91 09       	sbc	r25, r1
    42bc:	99 23       	and	r25, r25
    42be:	0c f4       	brge	.+2      	; 0x42c2 <_ZN16Adafruit_SSD13065beginEhhbb+0xe0>
    42c0:	01 96       	adiw	r24, 0x01	; 1
    42c2:	95 95       	asr	r25
    42c4:	87 95       	ror	r24
    42c6:	bc 01       	movw	r22, r24
    42c8:	8a a5       	ldd	r24, Y+42	; 0x2a
    42ca:	9b a5       	ldd	r25, Y+43	; 0x2b
    42cc:	cc 24       	eor	r12, r12
    42ce:	c3 94       	inc	r12
    42d0:	d1 2c       	mov	r13, r1
    42d2:	68 94       	set
    42d4:	ee 24       	eor	r14, r14
    42d6:	e6 f8       	bld	r14, 6
    42d8:	f1 2c       	mov	r15, r1
    42da:	02 e5       	ldi	r16, 0x52	; 82
    42dc:	10 e0       	ldi	r17, 0x00	; 0
    42de:	2c e7       	ldi	r18, 0x7C	; 124
    42e0:	38 e0       	ldi	r19, 0x08	; 8
    42e2:	0e 94 a0 16 	call	0x2d40	; 0x2d40 <_ZN12Adafruit_GFX10drawBitmapEiiPKhiij>
    42e6:	28 c0       	rjmp	.+80     	; 0x4338 <_ZN16Adafruit_SSD13065beginEhhbb+0x156>
    42e8:	8a a5       	ldd	r24, Y+42	; 0x2a
    42ea:	9b a5       	ldd	r25, Y+43	; 0x2b
    42ec:	fc 01       	movw	r30, r24
    42ee:	86 81       	ldd	r24, Z+6	; 0x06
    42f0:	97 81       	ldd	r25, Z+7	; 0x07
    42f2:	80 97       	sbiw	r24, 0x20	; 32
    42f4:	99 23       	and	r25, r25
    42f6:	0c f4       	brge	.+2      	; 0x42fa <_ZN16Adafruit_SSD13065beginEhhbb+0x118>
    42f8:	01 96       	adiw	r24, 0x01	; 1
    42fa:	95 95       	asr	r25
    42fc:	87 95       	ror	r24
    42fe:	ac 01       	movw	r20, r24
    4300:	8a a5       	ldd	r24, Y+42	; 0x2a
    4302:	9b a5       	ldd	r25, Y+43	; 0x2b
    4304:	fc 01       	movw	r30, r24
    4306:	84 81       	ldd	r24, Z+4	; 0x04
    4308:	95 81       	ldd	r25, Z+5	; 0x05
    430a:	83 57       	subi	r24, 0x73	; 115
    430c:	91 09       	sbc	r25, r1
    430e:	99 23       	and	r25, r25
    4310:	0c f4       	brge	.+2      	; 0x4314 <_ZN16Adafruit_SSD13065beginEhhbb+0x132>
    4312:	01 96       	adiw	r24, 0x01	; 1
    4314:	95 95       	asr	r25
    4316:	87 95       	ror	r24
    4318:	bc 01       	movw	r22, r24
    431a:	8a a5       	ldd	r24, Y+42	; 0x2a
    431c:	9b a5       	ldd	r25, Y+43	; 0x2b
    431e:	cc 24       	eor	r12, r12
    4320:	c3 94       	inc	r12
    4322:	d1 2c       	mov	r13, r1
    4324:	68 94       	set
    4326:	ee 24       	eor	r14, r14
    4328:	e5 f8       	bld	r14, 5
    432a:	f1 2c       	mov	r15, r1
    432c:	03 e7       	ldi	r16, 0x73	; 115
    432e:	10 e0       	ldi	r17, 0x00	; 0
    4330:	2c e3       	ldi	r18, 0x3C	; 60
    4332:	3b e0       	ldi	r19, 0x0B	; 11
    4334:	0e 94 a0 16 	call	0x2d40	; 0x2d40 <_ZN12Adafruit_GFX10drawBitmapEiiPKhiij>
    4338:	2c a5       	ldd	r18, Y+44	; 0x2c
    433a:	8a a5       	ldd	r24, Y+42	; 0x2a
    433c:	9b a5       	ldd	r25, Y+43	; 0x2b
    433e:	fc 01       	movw	r30, r24
    4340:	22 a3       	std	Z+34, r18	; 0x22
    4342:	8a a5       	ldd	r24, Y+42	; 0x2a
    4344:	9b a5       	ldd	r25, Y+43	; 0x2b
    4346:	fc 01       	movw	r30, r24
    4348:	85 8d       	ldd	r24, Z+29	; 0x1d
    434a:	96 8d       	ldd	r25, Z+30	; 0x1e
    434c:	89 2b       	or	r24, r25
    434e:	f9 f0       	breq	.+62     	; 0x438e <_ZN16Adafruit_SSD13065beginEhhbb+0x1ac>
    4350:	8d a5       	ldd	r24, Y+45	; 0x2d
    4352:	88 23       	and	r24, r24
    4354:	59 f4       	brne	.+22     	; 0x436c <_ZN16Adafruit_SSD13065beginEhhbb+0x18a>
    4356:	8a a5       	ldd	r24, Y+42	; 0x2a
    4358:	9b a5       	ldd	r25, Y+43	; 0x2b
    435a:	fc 01       	movw	r30, r24
    435c:	86 81       	ldd	r24, Z+6	; 0x06
    435e:	97 81       	ldd	r25, Z+7	; 0x07
    4360:	80 97       	sbiw	r24, 0x20	; 32
    4362:	11 f4       	brne	.+4      	; 0x4368 <_ZN16Adafruit_SSD13065beginEhhbb+0x186>
    4364:	2c e3       	ldi	r18, 0x3C	; 60
    4366:	03 c0       	rjmp	.+6      	; 0x436e <_ZN16Adafruit_SSD13065beginEhhbb+0x18c>
    4368:	2d e3       	ldi	r18, 0x3D	; 61
    436a:	01 c0       	rjmp	.+2      	; 0x436e <_ZN16Adafruit_SSD13065beginEhhbb+0x18c>
    436c:	2d a5       	ldd	r18, Y+45	; 0x2d
    436e:	8a a5       	ldd	r24, Y+42	; 0x2a
    4370:	9b a5       	ldd	r25, Y+43	; 0x2b
    4372:	fc 01       	movw	r30, r24
    4374:	21 a3       	std	Z+33, r18	; 0x21
    4376:	8f a5       	ldd	r24, Y+47	; 0x2f
    4378:	88 23       	and	r24, r24
    437a:	09 f4       	brne	.+2      	; 0x437e <_ZN16Adafruit_SSD13065beginEhhbb+0x19c>
    437c:	5a c1       	rjmp	.+692    	; 0x4632 <_ZN16Adafruit_SSD13065beginEhhbb+0x450>
    437e:	8a a5       	ldd	r24, Y+42	; 0x2a
    4380:	9b a5       	ldd	r25, Y+43	; 0x2b
    4382:	fc 01       	movw	r30, r24
    4384:	85 8d       	ldd	r24, Z+29	; 0x1d
    4386:	96 8d       	ldd	r25, Z+30	; 0x1e
    4388:	0e 94 fc 0c 	call	0x19f8	; 0x19f8 <_ZN7TwoWire5beginEv>
    438c:	52 c1       	rjmp	.+676    	; 0x4632 <_ZN16Adafruit_SSD13065beginEhhbb+0x450>
    438e:	8a a5       	ldd	r24, Y+42	; 0x2a
    4390:	9b a5       	ldd	r25, Y+43	; 0x2b
    4392:	fc 01       	movw	r30, r24
    4394:	86 a1       	ldd	r24, Z+38	; 0x26
    4396:	61 e0       	ldi	r22, 0x01	; 1
    4398:	0e 94 4e 35 	call	0x6a9c	; 0x6a9c <pinMode>
    439c:	8a a5       	ldd	r24, Y+42	; 0x2a
    439e:	9b a5       	ldd	r25, Y+43	; 0x2b
    43a0:	fc 01       	movw	r30, r24
    43a2:	87 a1       	ldd	r24, Z+39	; 0x27
    43a4:	61 e0       	ldi	r22, 0x01	; 1
    43a6:	0e 94 4e 35 	call	0x6a9c	; 0x6a9c <pinMode>
    43aa:	8a a5       	ldd	r24, Y+42	; 0x2a
    43ac:	9b a5       	ldd	r25, Y+43	; 0x2b
    43ae:	fc 01       	movw	r30, r24
    43b0:	86 a1       	ldd	r24, Z+38	; 0x26
    43b2:	08 2e       	mov	r0, r24
    43b4:	00 0c       	add	r0, r0
    43b6:	99 0b       	sbc	r25, r25
    43b8:	81 53       	subi	r24, 0x31	; 49
    43ba:	92 4f       	sbci	r25, 0xF2	; 242
    43bc:	9b 83       	std	Y+3, r25	; 0x03
    43be:	8a 83       	std	Y+2, r24	; 0x02
    43c0:	8a 81       	ldd	r24, Y+2	; 0x02
    43c2:	9b 81       	ldd	r25, Y+3	; 0x03
    43c4:	fc 01       	movw	r30, r24
    43c6:	84 91       	lpm	r24, Z
    43c8:	8c 83       	std	Y+4, r24	; 0x04
    43ca:	8c 81       	ldd	r24, Y+4	; 0x04
    43cc:	88 2f       	mov	r24, r24
    43ce:	90 e0       	ldi	r25, 0x00	; 0
    43d0:	88 0f       	add	r24, r24
    43d2:	99 1f       	adc	r25, r25
    43d4:	8b 5e       	subi	r24, 0xEB	; 235
    43d6:	91 4f       	sbci	r25, 0xF1	; 241
    43d8:	9e 83       	std	Y+6, r25	; 0x06
    43da:	8d 83       	std	Y+5, r24	; 0x05
    43dc:	8d 81       	ldd	r24, Y+5	; 0x05
    43de:	9e 81       	ldd	r25, Y+6	; 0x06
    43e0:	fc 01       	movw	r30, r24
    43e2:	25 91       	lpm	r18, Z+
    43e4:	34 91       	lpm	r19, Z
    43e6:	cf 01       	movw	r24, r30
    43e8:	38 87       	std	Y+8, r19	; 0x08
    43ea:	2f 83       	std	Y+7, r18	; 0x07
    43ec:	9e 83       	std	Y+6, r25	; 0x06
    43ee:	8d 83       	std	Y+5, r24	; 0x05
    43f0:	8f 81       	ldd	r24, Y+7	; 0x07
    43f2:	98 85       	ldd	r25, Y+8	; 0x08
    43f4:	9c 01       	movw	r18, r24
    43f6:	8a a5       	ldd	r24, Y+42	; 0x2a
    43f8:	9b a5       	ldd	r25, Y+43	; 0x2b
    43fa:	fc 01       	movw	r30, r24
    43fc:	36 a7       	std	Z+46, r19	; 0x2e
    43fe:	25 a7       	std	Z+45, r18	; 0x2d
    4400:	8a a5       	ldd	r24, Y+42	; 0x2a
    4402:	9b a5       	ldd	r25, Y+43	; 0x2b
    4404:	fc 01       	movw	r30, r24
    4406:	86 a1       	ldd	r24, Z+38	; 0x26
    4408:	08 2e       	mov	r0, r24
    440a:	00 0c       	add	r0, r0
    440c:	99 0b       	sbc	r25, r25
    440e:	87 57       	subi	r24, 0x77	; 119
    4410:	92 4f       	sbci	r25, 0xF2	; 242
    4412:	9a 87       	std	Y+10, r25	; 0x0a
    4414:	89 87       	std	Y+9, r24	; 0x09
    4416:	89 85       	ldd	r24, Y+9	; 0x09
    4418:	9a 85       	ldd	r25, Y+10	; 0x0a
    441a:	fc 01       	movw	r30, r24
    441c:	84 91       	lpm	r24, Z
    441e:	8b 87       	std	Y+11, r24	; 0x0b
    4420:	8a a5       	ldd	r24, Y+42	; 0x2a
    4422:	9b a5       	ldd	r25, Y+43	; 0x2b
    4424:	2b 85       	ldd	r18, Y+11	; 0x0b
    4426:	fc 01       	movw	r30, r24
    4428:	23 ab       	std	Z+51, r18	; 0x33
    442a:	8a a5       	ldd	r24, Y+42	; 0x2a
    442c:	9b a5       	ldd	r25, Y+43	; 0x2b
    442e:	fc 01       	movw	r30, r24
    4430:	87 a1       	ldd	r24, Z+39	; 0x27
    4432:	08 2e       	mov	r0, r24
    4434:	00 0c       	add	r0, r0
    4436:	99 0b       	sbc	r25, r25
    4438:	81 53       	subi	r24, 0x31	; 49
    443a:	92 4f       	sbci	r25, 0xF2	; 242
    443c:	9d 87       	std	Y+13, r25	; 0x0d
    443e:	8c 87       	std	Y+12, r24	; 0x0c
    4440:	8c 85       	ldd	r24, Y+12	; 0x0c
    4442:	9d 85       	ldd	r25, Y+13	; 0x0d
    4444:	fc 01       	movw	r30, r24
    4446:	84 91       	lpm	r24, Z
    4448:	8e 87       	std	Y+14, r24	; 0x0e
    444a:	8e 85       	ldd	r24, Y+14	; 0x0e
    444c:	88 2f       	mov	r24, r24
    444e:	90 e0       	ldi	r25, 0x00	; 0
    4450:	88 0f       	add	r24, r24
    4452:	99 1f       	adc	r25, r25
    4454:	8b 5e       	subi	r24, 0xEB	; 235
    4456:	91 4f       	sbci	r25, 0xF1	; 241
    4458:	98 8b       	std	Y+16, r25	; 0x10
    445a:	8f 87       	std	Y+15, r24	; 0x0f
    445c:	8f 85       	ldd	r24, Y+15	; 0x0f
    445e:	98 89       	ldd	r25, Y+16	; 0x10
    4460:	fc 01       	movw	r30, r24
    4462:	25 91       	lpm	r18, Z+
    4464:	34 91       	lpm	r19, Z
    4466:	cf 01       	movw	r24, r30
    4468:	3a 8b       	std	Y+18, r19	; 0x12
    446a:	29 8b       	std	Y+17, r18	; 0x11
    446c:	98 8b       	std	Y+16, r25	; 0x10
    446e:	8f 87       	std	Y+15, r24	; 0x0f
    4470:	89 89       	ldd	r24, Y+17	; 0x11
    4472:	9a 89       	ldd	r25, Y+18	; 0x12
    4474:	9c 01       	movw	r18, r24
    4476:	8a a5       	ldd	r24, Y+42	; 0x2a
    4478:	9b a5       	ldd	r25, Y+43	; 0x2b
    447a:	fc 01       	movw	r30, r24
    447c:	30 ab       	std	Z+48, r19	; 0x30
    447e:	27 a7       	std	Z+47, r18	; 0x2f
    4480:	8a a5       	ldd	r24, Y+42	; 0x2a
    4482:	9b a5       	ldd	r25, Y+43	; 0x2b
    4484:	fc 01       	movw	r30, r24
    4486:	87 a1       	ldd	r24, Z+39	; 0x27
    4488:	08 2e       	mov	r0, r24
    448a:	00 0c       	add	r0, r0
    448c:	99 0b       	sbc	r25, r25
    448e:	87 57       	subi	r24, 0x77	; 119
    4490:	92 4f       	sbci	r25, 0xF2	; 242
    4492:	9c 8b       	std	Y+20, r25	; 0x14
    4494:	8b 8b       	std	Y+19, r24	; 0x13
    4496:	8b 89       	ldd	r24, Y+19	; 0x13
    4498:	9c 89       	ldd	r25, Y+20	; 0x14
    449a:	fc 01       	movw	r30, r24
    449c:	84 91       	lpm	r24, Z
    449e:	8d 8b       	std	Y+21, r24	; 0x15
    44a0:	8a a5       	ldd	r24, Y+42	; 0x2a
    44a2:	9b a5       	ldd	r25, Y+43	; 0x2b
    44a4:	2d 89       	ldd	r18, Y+21	; 0x15
    44a6:	fc 01       	movw	r30, r24
    44a8:	24 ab       	std	Z+52, r18	; 0x34
    44aa:	8a a5       	ldd	r24, Y+42	; 0x2a
    44ac:	9b a5       	ldd	r25, Y+43	; 0x2b
    44ae:	fc 01       	movw	r30, r24
    44b0:	87 a5       	ldd	r24, Z+47	; 0x2f
    44b2:	90 a9       	ldd	r25, Z+48	; 0x30
    44b4:	2a a5       	ldd	r18, Y+42	; 0x2a
    44b6:	3b a5       	ldd	r19, Y+43	; 0x2b
    44b8:	f9 01       	movw	r30, r18
    44ba:	27 a5       	ldd	r18, Z+47	; 0x2f
    44bc:	30 a9       	ldd	r19, Z+48	; 0x30
    44be:	f9 01       	movw	r30, r18
    44c0:	40 81       	ld	r20, Z
    44c2:	2a a5       	ldd	r18, Y+42	; 0x2a
    44c4:	3b a5       	ldd	r19, Y+43	; 0x2b
    44c6:	f9 01       	movw	r30, r18
    44c8:	24 a9       	ldd	r18, Z+52	; 0x34
    44ca:	24 2b       	or	r18, r20
    44cc:	fc 01       	movw	r30, r24
    44ce:	20 83       	st	Z, r18
    44d0:	8a a5       	ldd	r24, Y+42	; 0x2a
    44d2:	9b a5       	ldd	r25, Y+43	; 0x2b
    44d4:	fc 01       	movw	r30, r24
    44d6:	83 8d       	ldd	r24, Z+27	; 0x1b
    44d8:	94 8d       	ldd	r25, Z+28	; 0x1c
    44da:	89 2b       	or	r24, r25
    44dc:	39 f0       	breq	.+14     	; 0x44ec <_ZN16Adafruit_SSD13065beginEhhbb+0x30a>
    44de:	8f a5       	ldd	r24, Y+47	; 0x2f
    44e0:	88 23       	and	r24, r24
    44e2:	09 f4       	brne	.+2      	; 0x44e6 <_ZN16Adafruit_SSD13065beginEhhbb+0x304>
    44e4:	a6 c0       	rjmp	.+332    	; 0x4632 <_ZN16Adafruit_SSD13065beginEhhbb+0x450>
    44e6:	0e 94 1d 2d 	call	0x5a3a	; 0x5a3a <_ZN8SPIClass5beginEv>
    44ea:	a3 c0       	rjmp	.+326    	; 0x4632 <_ZN16Adafruit_SSD13065beginEhhbb+0x450>
    44ec:	8a a5       	ldd	r24, Y+42	; 0x2a
    44ee:	9b a5       	ldd	r25, Y+43	; 0x2b
    44f0:	fc 01       	movw	r30, r24
    44f2:	84 a1       	ldd	r24, Z+36	; 0x24
    44f4:	61 e0       	ldi	r22, 0x01	; 1
    44f6:	0e 94 4e 35 	call	0x6a9c	; 0x6a9c <pinMode>
    44fa:	8a a5       	ldd	r24, Y+42	; 0x2a
    44fc:	9b a5       	ldd	r25, Y+43	; 0x2b
    44fe:	fc 01       	movw	r30, r24
    4500:	85 a1       	ldd	r24, Z+37	; 0x25
    4502:	61 e0       	ldi	r22, 0x01	; 1
    4504:	0e 94 4e 35 	call	0x6a9c	; 0x6a9c <pinMode>
    4508:	8a a5       	ldd	r24, Y+42	; 0x2a
    450a:	9b a5       	ldd	r25, Y+43	; 0x2b
    450c:	fc 01       	movw	r30, r24
    450e:	84 a1       	ldd	r24, Z+36	; 0x24
    4510:	08 2e       	mov	r0, r24
    4512:	00 0c       	add	r0, r0
    4514:	99 0b       	sbc	r25, r25
    4516:	81 53       	subi	r24, 0x31	; 49
    4518:	92 4f       	sbci	r25, 0xF2	; 242
    451a:	9f 8b       	std	Y+23, r25	; 0x17
    451c:	8e 8b       	std	Y+22, r24	; 0x16
    451e:	8e 89       	ldd	r24, Y+22	; 0x16
    4520:	9f 89       	ldd	r25, Y+23	; 0x17
    4522:	fc 01       	movw	r30, r24
    4524:	84 91       	lpm	r24, Z
    4526:	88 8f       	std	Y+24, r24	; 0x18
    4528:	88 8d       	ldd	r24, Y+24	; 0x18
    452a:	88 2f       	mov	r24, r24
    452c:	90 e0       	ldi	r25, 0x00	; 0
    452e:	88 0f       	add	r24, r24
    4530:	99 1f       	adc	r25, r25
    4532:	8b 5e       	subi	r24, 0xEB	; 235
    4534:	91 4f       	sbci	r25, 0xF1	; 241
    4536:	9a 8f       	std	Y+26, r25	; 0x1a
    4538:	89 8f       	std	Y+25, r24	; 0x19
    453a:	89 8d       	ldd	r24, Y+25	; 0x19
    453c:	9a 8d       	ldd	r25, Y+26	; 0x1a
    453e:	fc 01       	movw	r30, r24
    4540:	25 91       	lpm	r18, Z+
    4542:	34 91       	lpm	r19, Z
    4544:	cf 01       	movw	r24, r30
    4546:	3c 8f       	std	Y+28, r19	; 0x1c
    4548:	2b 8f       	std	Y+27, r18	; 0x1b
    454a:	9a 8f       	std	Y+26, r25	; 0x1a
    454c:	89 8f       	std	Y+25, r24	; 0x19
    454e:	8b 8d       	ldd	r24, Y+27	; 0x1b
    4550:	9c 8d       	ldd	r25, Y+28	; 0x1c
    4552:	9c 01       	movw	r18, r24
    4554:	8a a5       	ldd	r24, Y+42	; 0x2a
    4556:	9b a5       	ldd	r25, Y+43	; 0x2b
    4558:	fc 01       	movw	r30, r24
    455a:	32 a7       	std	Z+42, r19	; 0x2a
    455c:	21 a7       	std	Z+41, r18	; 0x29
    455e:	8a a5       	ldd	r24, Y+42	; 0x2a
    4560:	9b a5       	ldd	r25, Y+43	; 0x2b
    4562:	fc 01       	movw	r30, r24
    4564:	84 a1       	ldd	r24, Z+36	; 0x24
    4566:	08 2e       	mov	r0, r24
    4568:	00 0c       	add	r0, r0
    456a:	99 0b       	sbc	r25, r25
    456c:	87 57       	subi	r24, 0x77	; 119
    456e:	92 4f       	sbci	r25, 0xF2	; 242
    4570:	9e 8f       	std	Y+30, r25	; 0x1e
    4572:	8d 8f       	std	Y+29, r24	; 0x1d
    4574:	8d 8d       	ldd	r24, Y+29	; 0x1d
    4576:	9e 8d       	ldd	r25, Y+30	; 0x1e
    4578:	fc 01       	movw	r30, r24
    457a:	84 91       	lpm	r24, Z
    457c:	8f 8f       	std	Y+31, r24	; 0x1f
    457e:	8a a5       	ldd	r24, Y+42	; 0x2a
    4580:	9b a5       	ldd	r25, Y+43	; 0x2b
    4582:	2f 8d       	ldd	r18, Y+31	; 0x1f
    4584:	fc 01       	movw	r30, r24
    4586:	21 ab       	std	Z+49, r18	; 0x31
    4588:	8a a5       	ldd	r24, Y+42	; 0x2a
    458a:	9b a5       	ldd	r25, Y+43	; 0x2b
    458c:	fc 01       	movw	r30, r24
    458e:	85 a1       	ldd	r24, Z+37	; 0x25
    4590:	08 2e       	mov	r0, r24
    4592:	00 0c       	add	r0, r0
    4594:	99 0b       	sbc	r25, r25
    4596:	81 53       	subi	r24, 0x31	; 49
    4598:	92 4f       	sbci	r25, 0xF2	; 242
    459a:	99 a3       	std	Y+33, r25	; 0x21
    459c:	88 a3       	std	Y+32, r24	; 0x20
    459e:	88 a1       	ldd	r24, Y+32	; 0x20
    45a0:	99 a1       	ldd	r25, Y+33	; 0x21
    45a2:	fc 01       	movw	r30, r24
    45a4:	84 91       	lpm	r24, Z
    45a6:	8a a3       	std	Y+34, r24	; 0x22
    45a8:	8a a1       	ldd	r24, Y+34	; 0x22
    45aa:	88 2f       	mov	r24, r24
    45ac:	90 e0       	ldi	r25, 0x00	; 0
    45ae:	88 0f       	add	r24, r24
    45b0:	99 1f       	adc	r25, r25
    45b2:	8b 5e       	subi	r24, 0xEB	; 235
    45b4:	91 4f       	sbci	r25, 0xF1	; 241
    45b6:	9c a3       	std	Y+36, r25	; 0x24
    45b8:	8b a3       	std	Y+35, r24	; 0x23
    45ba:	8b a1       	ldd	r24, Y+35	; 0x23
    45bc:	9c a1       	ldd	r25, Y+36	; 0x24
    45be:	fc 01       	movw	r30, r24
    45c0:	25 91       	lpm	r18, Z+
    45c2:	34 91       	lpm	r19, Z
    45c4:	cf 01       	movw	r24, r30
    45c6:	3e a3       	std	Y+38, r19	; 0x26
    45c8:	2d a3       	std	Y+37, r18	; 0x25
    45ca:	9c a3       	std	Y+36, r25	; 0x24
    45cc:	8b a3       	std	Y+35, r24	; 0x23
    45ce:	8d a1       	ldd	r24, Y+37	; 0x25
    45d0:	9e a1       	ldd	r25, Y+38	; 0x26
    45d2:	9c 01       	movw	r18, r24
    45d4:	8a a5       	ldd	r24, Y+42	; 0x2a
    45d6:	9b a5       	ldd	r25, Y+43	; 0x2b
    45d8:	fc 01       	movw	r30, r24
    45da:	34 a7       	std	Z+44, r19	; 0x2c
    45dc:	23 a7       	std	Z+43, r18	; 0x2b
    45de:	8a a5       	ldd	r24, Y+42	; 0x2a
    45e0:	9b a5       	ldd	r25, Y+43	; 0x2b
    45e2:	fc 01       	movw	r30, r24
    45e4:	85 a1       	ldd	r24, Z+37	; 0x25
    45e6:	08 2e       	mov	r0, r24
    45e8:	00 0c       	add	r0, r0
    45ea:	99 0b       	sbc	r25, r25
    45ec:	87 57       	subi	r24, 0x77	; 119
    45ee:	92 4f       	sbci	r25, 0xF2	; 242
    45f0:	98 a7       	std	Y+40, r25	; 0x28
    45f2:	8f a3       	std	Y+39, r24	; 0x27
    45f4:	8f a1       	ldd	r24, Y+39	; 0x27
    45f6:	98 a5       	ldd	r25, Y+40	; 0x28
    45f8:	fc 01       	movw	r30, r24
    45fa:	84 91       	lpm	r24, Z
    45fc:	89 a7       	std	Y+41, r24	; 0x29
    45fe:	8a a5       	ldd	r24, Y+42	; 0x2a
    4600:	9b a5       	ldd	r25, Y+43	; 0x2b
    4602:	29 a5       	ldd	r18, Y+41	; 0x29
    4604:	fc 01       	movw	r30, r24
    4606:	22 ab       	std	Z+50, r18	; 0x32
    4608:	8a a5       	ldd	r24, Y+42	; 0x2a
    460a:	9b a5       	ldd	r25, Y+43	; 0x2b
    460c:	fc 01       	movw	r30, r24
    460e:	83 a5       	ldd	r24, Z+43	; 0x2b
    4610:	94 a5       	ldd	r25, Z+44	; 0x2c
    4612:	2a a5       	ldd	r18, Y+42	; 0x2a
    4614:	3b a5       	ldd	r19, Y+43	; 0x2b
    4616:	f9 01       	movw	r30, r18
    4618:	23 a5       	ldd	r18, Z+43	; 0x2b
    461a:	34 a5       	ldd	r19, Z+44	; 0x2c
    461c:	f9 01       	movw	r30, r18
    461e:	20 81       	ld	r18, Z
    4620:	42 2f       	mov	r20, r18
    4622:	2a a5       	ldd	r18, Y+42	; 0x2a
    4624:	3b a5       	ldd	r19, Y+43	; 0x2b
    4626:	f9 01       	movw	r30, r18
    4628:	22 a9       	ldd	r18, Z+50	; 0x32
    462a:	20 95       	com	r18
    462c:	24 23       	and	r18, r20
    462e:	fc 01       	movw	r30, r24
    4630:	20 83       	st	Z, r18
    4632:	8e a5       	ldd	r24, Y+46	; 0x2e
    4634:	88 23       	and	r24, r24
    4636:	71 f1       	breq	.+92     	; 0x4694 <_ZN16Adafruit_SSD13065beginEhhbb+0x4b2>
    4638:	8a a5       	ldd	r24, Y+42	; 0x2a
    463a:	9b a5       	ldd	r25, Y+43	; 0x2b
    463c:	fc 01       	movw	r30, r24
    463e:	80 a5       	ldd	r24, Z+40	; 0x28
    4640:	88 23       	and	r24, r24
    4642:	44 f1       	brlt	.+80     	; 0x4694 <_ZN16Adafruit_SSD13065beginEhhbb+0x4b2>
    4644:	8a a5       	ldd	r24, Y+42	; 0x2a
    4646:	9b a5       	ldd	r25, Y+43	; 0x2b
    4648:	fc 01       	movw	r30, r24
    464a:	80 a5       	ldd	r24, Z+40	; 0x28
    464c:	61 e0       	ldi	r22, 0x01	; 1
    464e:	0e 94 4e 35 	call	0x6a9c	; 0x6a9c <pinMode>
    4652:	8a a5       	ldd	r24, Y+42	; 0x2a
    4654:	9b a5       	ldd	r25, Y+43	; 0x2b
    4656:	fc 01       	movw	r30, r24
    4658:	80 a5       	ldd	r24, Z+40	; 0x28
    465a:	61 e0       	ldi	r22, 0x01	; 1
    465c:	0e 94 8a 35 	call	0x6b14	; 0x6b14 <digitalWrite>
    4660:	61 e0       	ldi	r22, 0x01	; 1
    4662:	70 e0       	ldi	r23, 0x00	; 0
    4664:	80 e0       	ldi	r24, 0x00	; 0
    4666:	90 e0       	ldi	r25, 0x00	; 0
    4668:	0e 94 5e 34 	call	0x68bc	; 0x68bc <delay>
    466c:	8a a5       	ldd	r24, Y+42	; 0x2a
    466e:	9b a5       	ldd	r25, Y+43	; 0x2b
    4670:	fc 01       	movw	r30, r24
    4672:	80 a5       	ldd	r24, Z+40	; 0x28
    4674:	60 e0       	ldi	r22, 0x00	; 0
    4676:	0e 94 8a 35 	call	0x6b14	; 0x6b14 <digitalWrite>
    467a:	6a e0       	ldi	r22, 0x0A	; 10
    467c:	70 e0       	ldi	r23, 0x00	; 0
    467e:	80 e0       	ldi	r24, 0x00	; 0
    4680:	90 e0       	ldi	r25, 0x00	; 0
    4682:	0e 94 5e 34 	call	0x68bc	; 0x68bc <delay>
    4686:	8a a5       	ldd	r24, Y+42	; 0x2a
    4688:	9b a5       	ldd	r25, Y+43	; 0x2b
    468a:	fc 01       	movw	r30, r24
    468c:	80 a5       	ldd	r24, Z+40	; 0x28
    468e:	61 e0       	ldi	r22, 0x01	; 1
    4690:	0e 94 8a 35 	call	0x6b14	; 0x6b14 <digitalWrite>
    4694:	8a a5       	ldd	r24, Y+42	; 0x2a
    4696:	9b a5       	ldd	r25, Y+43	; 0x2b
    4698:	fc 01       	movw	r30, r24
    469a:	85 8d       	ldd	r24, Z+29	; 0x1d
    469c:	96 8d       	ldd	r25, Z+30	; 0x1e
    469e:	89 2b       	or	r24, r25
    46a0:	91 f0       	breq	.+36     	; 0x46c6 <_ZN16Adafruit_SSD13065beginEhhbb+0x4e4>
    46a2:	8a a5       	ldd	r24, Y+42	; 0x2a
    46a4:	9b a5       	ldd	r25, Y+43	; 0x2b
    46a6:	fc 01       	movw	r30, r24
    46a8:	85 a9       	ldd	r24, Z+53	; 0x35
    46aa:	96 a9       	ldd	r25, Z+54	; 0x36
    46ac:	a7 a9       	ldd	r26, Z+55	; 0x37
    46ae:	b0 ad       	ldd	r27, Z+56	; 0x38
    46b0:	2a a5       	ldd	r18, Y+42	; 0x2a
    46b2:	3b a5       	ldd	r19, Y+43	; 0x2b
    46b4:	f9 01       	movw	r30, r18
    46b6:	25 8d       	ldd	r18, Z+29	; 0x1d
    46b8:	36 8d       	ldd	r19, Z+30	; 0x1e
    46ba:	ac 01       	movw	r20, r24
    46bc:	bd 01       	movw	r22, r26
    46be:	c9 01       	movw	r24, r18
    46c0:	0e 94 19 0d 	call	0x1a32	; 0x1a32 <_ZN7TwoWire8setClockEm>
    46c4:	23 c0       	rjmp	.+70     	; 0x470c <_ZN16Adafruit_SSD13065beginEhhbb+0x52a>
    46c6:	8a a5       	ldd	r24, Y+42	; 0x2a
    46c8:	9b a5       	ldd	r25, Y+43	; 0x2b
    46ca:	fc 01       	movw	r30, r24
    46cc:	83 8d       	ldd	r24, Z+27	; 0x1b
    46ce:	94 8d       	ldd	r25, Z+28	; 0x1c
    46d0:	89 2b       	or	r24, r25
    46d2:	39 f0       	breq	.+14     	; 0x46e2 <_ZN16Adafruit_SSD13065beginEhhbb+0x500>
    46d4:	8a a5       	ldd	r24, Y+42	; 0x2a
    46d6:	9b a5       	ldd	r25, Y+43	; 0x2b
    46d8:	fc 01       	movw	r30, r24
    46da:	86 ad       	ldd	r24, Z+62	; 0x3e
    46dc:	97 ad       	ldd	r25, Z+63	; 0x3f
    46de:	0e 94 4b 10 	call	0x2096	; 0x2096 <_ZN8SPIClass16beginTransactionE11SPISettings>
    46e2:	8a a5       	ldd	r24, Y+42	; 0x2a
    46e4:	9b a5       	ldd	r25, Y+43	; 0x2b
    46e6:	fc 01       	movw	r30, r24
    46e8:	87 a5       	ldd	r24, Z+47	; 0x2f
    46ea:	90 a9       	ldd	r25, Z+48	; 0x30
    46ec:	2a a5       	ldd	r18, Y+42	; 0x2a
    46ee:	3b a5       	ldd	r19, Y+43	; 0x2b
    46f0:	f9 01       	movw	r30, r18
    46f2:	27 a5       	ldd	r18, Z+47	; 0x2f
    46f4:	30 a9       	ldd	r19, Z+48	; 0x30
    46f6:	f9 01       	movw	r30, r18
    46f8:	20 81       	ld	r18, Z
    46fa:	42 2f       	mov	r20, r18
    46fc:	2a a5       	ldd	r18, Y+42	; 0x2a
    46fe:	3b a5       	ldd	r19, Y+43	; 0x2b
    4700:	f9 01       	movw	r30, r18
    4702:	24 a9       	ldd	r18, Z+52	; 0x34
    4704:	20 95       	com	r18
    4706:	24 23       	and	r18, r20
    4708:	fc 01       	movw	r30, r24
    470a:	20 83       	st	Z, r18
    470c:	24 e0       	ldi	r18, 0x04	; 4
    470e:	8a a5       	ldd	r24, Y+42	; 0x2a
    4710:	9b a5       	ldd	r25, Y+43	; 0x2b
    4712:	42 2f       	mov	r20, r18
    4714:	6c e1       	ldi	r22, 0x1C	; 28
    4716:	7d e0       	ldi	r23, 0x0D	; 13
    4718:	11 dc       	rcall	.-2014   	; 0x3f3c <_ZN16Adafruit_SSD130619ssd1306_commandListEPKhh>
    471a:	8a a5       	ldd	r24, Y+42	; 0x2a
    471c:	9b a5       	ldd	r25, Y+43	; 0x2b
    471e:	fc 01       	movw	r30, r24
    4720:	86 81       	ldd	r24, Z+6	; 0x06
    4722:	97 81       	ldd	r25, Z+7	; 0x07
    4724:	2f ef       	ldi	r18, 0xFF	; 255
    4726:	28 0f       	add	r18, r24
    4728:	8a a5       	ldd	r24, Y+42	; 0x2a
    472a:	9b a5       	ldd	r25, Y+43	; 0x2b
    472c:	62 2f       	mov	r22, r18
    472e:	23 db       	rcall	.-2490   	; 0x3d76 <_ZN16Adafruit_SSD130616ssd1306_command1Eh>
    4730:	24 e0       	ldi	r18, 0x04	; 4
    4732:	8a a5       	ldd	r24, Y+42	; 0x2a
    4734:	9b a5       	ldd	r25, Y+43	; 0x2b
    4736:	42 2f       	mov	r20, r18
    4738:	60 e2       	ldi	r22, 0x20	; 32
    473a:	7d e0       	ldi	r23, 0x0D	; 13
    473c:	ff db       	rcall	.-2050   	; 0x3f3c <_ZN16Adafruit_SSD130619ssd1306_commandListEPKhh>
    473e:	8a a5       	ldd	r24, Y+42	; 0x2a
    4740:	9b a5       	ldd	r25, Y+43	; 0x2b
    4742:	fc 01       	movw	r30, r24
    4744:	82 a1       	ldd	r24, Z+34	; 0x22
    4746:	81 30       	cpi	r24, 0x01	; 1
    4748:	11 f4       	brne	.+4      	; 0x474e <_ZN16Adafruit_SSD13065beginEhhbb+0x56c>
    474a:	20 e1       	ldi	r18, 0x10	; 16
    474c:	01 c0       	rjmp	.+2      	; 0x4750 <_ZN16Adafruit_SSD13065beginEhhbb+0x56e>
    474e:	24 e1       	ldi	r18, 0x14	; 20
    4750:	8a a5       	ldd	r24, Y+42	; 0x2a
    4752:	9b a5       	ldd	r25, Y+43	; 0x2b
    4754:	62 2f       	mov	r22, r18
    4756:	0f db       	rcall	.-2530   	; 0x3d76 <_ZN16Adafruit_SSD130616ssd1306_command1Eh>
    4758:	24 e0       	ldi	r18, 0x04	; 4
    475a:	8a a5       	ldd	r24, Y+42	; 0x2a
    475c:	9b a5       	ldd	r25, Y+43	; 0x2b
    475e:	42 2f       	mov	r20, r18
    4760:	64 e2       	ldi	r22, 0x24	; 36
    4762:	7d e0       	ldi	r23, 0x0D	; 13
    4764:	eb db       	rcall	.-2090   	; 0x3f3c <_ZN16Adafruit_SSD130619ssd1306_commandListEPKhh>
    4766:	82 e0       	ldi	r24, 0x02	; 2
    4768:	89 83       	std	Y+1, r24	; 0x01
    476a:	8a a5       	ldd	r24, Y+42	; 0x2a
    476c:	9b a5       	ldd	r25, Y+43	; 0x2b
    476e:	2f e8       	ldi	r18, 0x8F	; 143
    4770:	fc 01       	movw	r30, r24
    4772:	25 af       	std	Z+61, r18	; 0x3d
    4774:	8a a5       	ldd	r24, Y+42	; 0x2a
    4776:	9b a5       	ldd	r25, Y+43	; 0x2b
    4778:	fc 01       	movw	r30, r24
    477a:	84 81       	ldd	r24, Z+4	; 0x04
    477c:	95 81       	ldd	r25, Z+5	; 0x05
    477e:	80 38       	cpi	r24, 0x80	; 128
    4780:	91 05       	cpc	r25, r1
    4782:	79 f4       	brne	.+30     	; 0x47a2 <_ZN16Adafruit_SSD13065beginEhhbb+0x5c0>
    4784:	8a a5       	ldd	r24, Y+42	; 0x2a
    4786:	9b a5       	ldd	r25, Y+43	; 0x2b
    4788:	fc 01       	movw	r30, r24
    478a:	86 81       	ldd	r24, Z+6	; 0x06
    478c:	97 81       	ldd	r25, Z+7	; 0x07
    478e:	80 97       	sbiw	r24, 0x20	; 32
    4790:	41 f4       	brne	.+16     	; 0x47a2 <_ZN16Adafruit_SSD13065beginEhhbb+0x5c0>
    4792:	82 e0       	ldi	r24, 0x02	; 2
    4794:	89 83       	std	Y+1, r24	; 0x01
    4796:	8a a5       	ldd	r24, Y+42	; 0x2a
    4798:	9b a5       	ldd	r25, Y+43	; 0x2b
    479a:	2f e8       	ldi	r18, 0x8F	; 143
    479c:	fc 01       	movw	r30, r24
    479e:	25 af       	std	Z+61, r18	; 0x3d
    47a0:	3e c0       	rjmp	.+124    	; 0x481e <_ZN16Adafruit_SSD13065beginEhhbb+0x63c>
    47a2:	8a a5       	ldd	r24, Y+42	; 0x2a
    47a4:	9b a5       	ldd	r25, Y+43	; 0x2b
    47a6:	fc 01       	movw	r30, r24
    47a8:	84 81       	ldd	r24, Z+4	; 0x04
    47aa:	95 81       	ldd	r25, Z+5	; 0x05
    47ac:	80 38       	cpi	r24, 0x80	; 128
    47ae:	91 05       	cpc	r25, r1
    47b0:	c1 f4       	brne	.+48     	; 0x47e2 <_ZN16Adafruit_SSD13065beginEhhbb+0x600>
    47b2:	8a a5       	ldd	r24, Y+42	; 0x2a
    47b4:	9b a5       	ldd	r25, Y+43	; 0x2b
    47b6:	fc 01       	movw	r30, r24
    47b8:	86 81       	ldd	r24, Z+6	; 0x06
    47ba:	97 81       	ldd	r25, Z+7	; 0x07
    47bc:	80 34       	cpi	r24, 0x40	; 64
    47be:	91 05       	cpc	r25, r1
    47c0:	81 f4       	brne	.+32     	; 0x47e2 <_ZN16Adafruit_SSD13065beginEhhbb+0x600>
    47c2:	82 e1       	ldi	r24, 0x12	; 18
    47c4:	89 83       	std	Y+1, r24	; 0x01
    47c6:	8a a5       	ldd	r24, Y+42	; 0x2a
    47c8:	9b a5       	ldd	r25, Y+43	; 0x2b
    47ca:	fc 01       	movw	r30, r24
    47cc:	82 a1       	ldd	r24, Z+34	; 0x22
    47ce:	81 30       	cpi	r24, 0x01	; 1
    47d0:	11 f4       	brne	.+4      	; 0x47d6 <_ZN16Adafruit_SSD13065beginEhhbb+0x5f4>
    47d2:	2f e9       	ldi	r18, 0x9F	; 159
    47d4:	01 c0       	rjmp	.+2      	; 0x47d8 <_ZN16Adafruit_SSD13065beginEhhbb+0x5f6>
    47d6:	2f ec       	ldi	r18, 0xCF	; 207
    47d8:	8a a5       	ldd	r24, Y+42	; 0x2a
    47da:	9b a5       	ldd	r25, Y+43	; 0x2b
    47dc:	fc 01       	movw	r30, r24
    47de:	25 af       	std	Z+61, r18	; 0x3d
    47e0:	1e c0       	rjmp	.+60     	; 0x481e <_ZN16Adafruit_SSD13065beginEhhbb+0x63c>
    47e2:	8a a5       	ldd	r24, Y+42	; 0x2a
    47e4:	9b a5       	ldd	r25, Y+43	; 0x2b
    47e6:	fc 01       	movw	r30, r24
    47e8:	84 81       	ldd	r24, Z+4	; 0x04
    47ea:	95 81       	ldd	r25, Z+5	; 0x05
    47ec:	80 36       	cpi	r24, 0x60	; 96
    47ee:	91 05       	cpc	r25, r1
    47f0:	b1 f4       	brne	.+44     	; 0x481e <_ZN16Adafruit_SSD13065beginEhhbb+0x63c>
    47f2:	8a a5       	ldd	r24, Y+42	; 0x2a
    47f4:	9b a5       	ldd	r25, Y+43	; 0x2b
    47f6:	fc 01       	movw	r30, r24
    47f8:	86 81       	ldd	r24, Z+6	; 0x06
    47fa:	97 81       	ldd	r25, Z+7	; 0x07
    47fc:	40 97       	sbiw	r24, 0x10	; 16
    47fe:	79 f4       	brne	.+30     	; 0x481e <_ZN16Adafruit_SSD13065beginEhhbb+0x63c>
    4800:	82 e0       	ldi	r24, 0x02	; 2
    4802:	89 83       	std	Y+1, r24	; 0x01
    4804:	8a a5       	ldd	r24, Y+42	; 0x2a
    4806:	9b a5       	ldd	r25, Y+43	; 0x2b
    4808:	fc 01       	movw	r30, r24
    480a:	82 a1       	ldd	r24, Z+34	; 0x22
    480c:	81 30       	cpi	r24, 0x01	; 1
    480e:	11 f4       	brne	.+4      	; 0x4814 <_ZN16Adafruit_SSD13065beginEhhbb+0x632>
    4810:	20 e1       	ldi	r18, 0x10	; 16
    4812:	01 c0       	rjmp	.+2      	; 0x4816 <_ZN16Adafruit_SSD13065beginEhhbb+0x634>
    4814:	2f ea       	ldi	r18, 0xAF	; 175
    4816:	8a a5       	ldd	r24, Y+42	; 0x2a
    4818:	9b a5       	ldd	r25, Y+43	; 0x2b
    481a:	fc 01       	movw	r30, r24
    481c:	25 af       	std	Z+61, r18	; 0x3d
    481e:	8a a5       	ldd	r24, Y+42	; 0x2a
    4820:	9b a5       	ldd	r25, Y+43	; 0x2b
    4822:	6a ed       	ldi	r22, 0xDA	; 218
    4824:	a8 da       	rcall	.-2736   	; 0x3d76 <_ZN16Adafruit_SSD130616ssd1306_command1Eh>
    4826:	8a a5       	ldd	r24, Y+42	; 0x2a
    4828:	9b a5       	ldd	r25, Y+43	; 0x2b
    482a:	69 81       	ldd	r22, Y+1	; 0x01
    482c:	a4 da       	rcall	.-2744   	; 0x3d76 <_ZN16Adafruit_SSD130616ssd1306_command1Eh>
    482e:	8a a5       	ldd	r24, Y+42	; 0x2a
    4830:	9b a5       	ldd	r25, Y+43	; 0x2b
    4832:	61 e8       	ldi	r22, 0x81	; 129
    4834:	a0 da       	rcall	.-2752   	; 0x3d76 <_ZN16Adafruit_SSD130616ssd1306_command1Eh>
    4836:	8a a5       	ldd	r24, Y+42	; 0x2a
    4838:	9b a5       	ldd	r25, Y+43	; 0x2b
    483a:	fc 01       	movw	r30, r24
    483c:	25 ad       	ldd	r18, Z+61	; 0x3d
    483e:	8a a5       	ldd	r24, Y+42	; 0x2a
    4840:	9b a5       	ldd	r25, Y+43	; 0x2b
    4842:	62 2f       	mov	r22, r18
    4844:	98 da       	rcall	.-2768   	; 0x3d76 <_ZN16Adafruit_SSD130616ssd1306_command1Eh>
    4846:	8a a5       	ldd	r24, Y+42	; 0x2a
    4848:	9b a5       	ldd	r25, Y+43	; 0x2b
    484a:	69 ed       	ldi	r22, 0xD9	; 217
    484c:	94 da       	rcall	.-2776   	; 0x3d76 <_ZN16Adafruit_SSD130616ssd1306_command1Eh>
    484e:	8a a5       	ldd	r24, Y+42	; 0x2a
    4850:	9b a5       	ldd	r25, Y+43	; 0x2b
    4852:	fc 01       	movw	r30, r24
    4854:	82 a1       	ldd	r24, Z+34	; 0x22
    4856:	81 30       	cpi	r24, 0x01	; 1
    4858:	11 f4       	brne	.+4      	; 0x485e <_ZN16Adafruit_SSD13065beginEhhbb+0x67c>
    485a:	22 e2       	ldi	r18, 0x22	; 34
    485c:	01 c0       	rjmp	.+2      	; 0x4860 <_ZN16Adafruit_SSD13065beginEhhbb+0x67e>
    485e:	21 ef       	ldi	r18, 0xF1	; 241
    4860:	8a a5       	ldd	r24, Y+42	; 0x2a
    4862:	9b a5       	ldd	r25, Y+43	; 0x2b
    4864:	62 2f       	mov	r22, r18
    4866:	87 da       	rcall	.-2802   	; 0x3d76 <_ZN16Adafruit_SSD130616ssd1306_command1Eh>
    4868:	26 e0       	ldi	r18, 0x06	; 6
    486a:	8a a5       	ldd	r24, Y+42	; 0x2a
    486c:	9b a5       	ldd	r25, Y+43	; 0x2b
    486e:	42 2f       	mov	r20, r18
    4870:	68 e2       	ldi	r22, 0x28	; 40
    4872:	7d e0       	ldi	r23, 0x0D	; 13
    4874:	63 db       	rcall	.-2362   	; 0x3f3c <_ZN16Adafruit_SSD130619ssd1306_commandListEPKhh>
    4876:	8a a5       	ldd	r24, Y+42	; 0x2a
    4878:	9b a5       	ldd	r25, Y+43	; 0x2b
    487a:	fc 01       	movw	r30, r24
    487c:	85 8d       	ldd	r24, Z+29	; 0x1d
    487e:	96 8d       	ldd	r25, Z+30	; 0x1e
    4880:	89 2b       	or	r24, r25
    4882:	91 f0       	breq	.+36     	; 0x48a8 <_ZN16Adafruit_SSD13065beginEhhbb+0x6c6>
    4884:	8a a5       	ldd	r24, Y+42	; 0x2a
    4886:	9b a5       	ldd	r25, Y+43	; 0x2b
    4888:	fc 01       	movw	r30, r24
    488a:	81 ad       	ldd	r24, Z+57	; 0x39
    488c:	92 ad       	ldd	r25, Z+58	; 0x3a
    488e:	a3 ad       	ldd	r26, Z+59	; 0x3b
    4890:	b4 ad       	ldd	r27, Z+60	; 0x3c
    4892:	2a a5       	ldd	r18, Y+42	; 0x2a
    4894:	3b a5       	ldd	r19, Y+43	; 0x2b
    4896:	f9 01       	movw	r30, r18
    4898:	25 8d       	ldd	r18, Z+29	; 0x1d
    489a:	36 8d       	ldd	r19, Z+30	; 0x1e
    489c:	ac 01       	movw	r20, r24
    489e:	bd 01       	movw	r22, r26
    48a0:	c9 01       	movw	r24, r18
    48a2:	0e 94 19 0d 	call	0x1a32	; 0x1a32 <_ZN7TwoWire8setClockEm>
    48a6:	1c c0       	rjmp	.+56     	; 0x48e0 <_ZN16Adafruit_SSD13065beginEhhbb+0x6fe>
    48a8:	8a a5       	ldd	r24, Y+42	; 0x2a
    48aa:	9b a5       	ldd	r25, Y+43	; 0x2b
    48ac:	fc 01       	movw	r30, r24
    48ae:	87 a5       	ldd	r24, Z+47	; 0x2f
    48b0:	90 a9       	ldd	r25, Z+48	; 0x30
    48b2:	2a a5       	ldd	r18, Y+42	; 0x2a
    48b4:	3b a5       	ldd	r19, Y+43	; 0x2b
    48b6:	f9 01       	movw	r30, r18
    48b8:	27 a5       	ldd	r18, Z+47	; 0x2f
    48ba:	30 a9       	ldd	r19, Z+48	; 0x30
    48bc:	f9 01       	movw	r30, r18
    48be:	40 81       	ld	r20, Z
    48c0:	2a a5       	ldd	r18, Y+42	; 0x2a
    48c2:	3b a5       	ldd	r19, Y+43	; 0x2b
    48c4:	f9 01       	movw	r30, r18
    48c6:	24 a9       	ldd	r18, Z+52	; 0x34
    48c8:	24 2b       	or	r18, r20
    48ca:	fc 01       	movw	r30, r24
    48cc:	20 83       	st	Z, r18
    48ce:	8a a5       	ldd	r24, Y+42	; 0x2a
    48d0:	9b a5       	ldd	r25, Y+43	; 0x2b
    48d2:	fc 01       	movw	r30, r24
    48d4:	83 8d       	ldd	r24, Z+27	; 0x1b
    48d6:	94 8d       	ldd	r25, Z+28	; 0x1c
    48d8:	89 2b       	or	r24, r25
    48da:	11 f0       	breq	.+4      	; 0x48e0 <_ZN16Adafruit_SSD13065beginEhhbb+0x6fe>
    48dc:	0e 94 8d 10 	call	0x211a	; 0x211a <_ZN8SPIClass14endTransactionEv>
    48e0:	81 e0       	ldi	r24, 0x01	; 1
    48e2:	af 96       	adiw	r28, 0x2f	; 47
    48e4:	0f b6       	in	r0, 0x3f	; 63
    48e6:	f8 94       	cli
    48e8:	de bf       	out	0x3e, r29	; 62
    48ea:	0f be       	out	0x3f, r0	; 63
    48ec:	cd bf       	out	0x3d, r28	; 61
    48ee:	df 91       	pop	r29
    48f0:	cf 91       	pop	r28
    48f2:	1f 91       	pop	r17
    48f4:	0f 91       	pop	r16
    48f6:	ff 90       	pop	r15
    48f8:	ef 90       	pop	r14
    48fa:	df 90       	pop	r13
    48fc:	cf 90       	pop	r12
    48fe:	08 95       	ret

00004900 <_ZN16Adafruit_SSD13069drawPixelEiij>:
    4900:	cf 93       	push	r28
    4902:	df 93       	push	r29
    4904:	cd b7       	in	r28, 0x3d	; 61
    4906:	de b7       	in	r29, 0x3e	; 62
    4908:	28 97       	sbiw	r28, 0x08	; 8
    490a:	0f b6       	in	r0, 0x3f	; 63
    490c:	f8 94       	cli
    490e:	de bf       	out	0x3e, r29	; 62
    4910:	0f be       	out	0x3f, r0	; 63
    4912:	cd bf       	out	0x3d, r28	; 61
    4914:	9a 83       	std	Y+2, r25	; 0x02
    4916:	89 83       	std	Y+1, r24	; 0x01
    4918:	7c 83       	std	Y+4, r23	; 0x04
    491a:	6b 83       	std	Y+3, r22	; 0x03
    491c:	5e 83       	std	Y+6, r21	; 0x06
    491e:	4d 83       	std	Y+5, r20	; 0x05
    4920:	38 87       	std	Y+8, r19	; 0x08
    4922:	2f 83       	std	Y+7, r18	; 0x07
    4924:	8b 81       	ldd	r24, Y+3	; 0x03
    4926:	9c 81       	ldd	r25, Y+4	; 0x04
    4928:	99 23       	and	r25, r25
    492a:	d4 f0       	brlt	.+52     	; 0x4960 <_ZN16Adafruit_SSD13069drawPixelEiij+0x60>
    492c:	89 81       	ldd	r24, Y+1	; 0x01
    492e:	9a 81       	ldd	r25, Y+2	; 0x02
    4930:	0e 94 b7 10 	call	0x216e	; 0x216e <_ZNK12Adafruit_GFX5widthEv>
    4934:	9c 01       	movw	r18, r24
    4936:	8b 81       	ldd	r24, Y+3	; 0x03
    4938:	9c 81       	ldd	r25, Y+4	; 0x04
    493a:	82 17       	cp	r24, r18
    493c:	93 07       	cpc	r25, r19
    493e:	84 f4       	brge	.+32     	; 0x4960 <_ZN16Adafruit_SSD13069drawPixelEiij+0x60>
    4940:	8d 81       	ldd	r24, Y+5	; 0x05
    4942:	9e 81       	ldd	r25, Y+6	; 0x06
    4944:	99 23       	and	r25, r25
    4946:	64 f0       	brlt	.+24     	; 0x4960 <_ZN16Adafruit_SSD13069drawPixelEiij+0x60>
    4948:	89 81       	ldd	r24, Y+1	; 0x01
    494a:	9a 81       	ldd	r25, Y+2	; 0x02
    494c:	0e 94 c9 10 	call	0x2192	; 0x2192 <_ZNK12Adafruit_GFX6heightEv>
    4950:	9c 01       	movw	r18, r24
    4952:	8d 81       	ldd	r24, Y+5	; 0x05
    4954:	9e 81       	ldd	r25, Y+6	; 0x06
    4956:	82 17       	cp	r24, r18
    4958:	93 07       	cpc	r25, r19
    495a:	14 f4       	brge	.+4      	; 0x4960 <_ZN16Adafruit_SSD13069drawPixelEiij+0x60>
    495c:	81 e0       	ldi	r24, 0x01	; 1
    495e:	01 c0       	rjmp	.+2      	; 0x4962 <_ZN16Adafruit_SSD13069drawPixelEiij+0x62>
    4960:	80 e0       	ldi	r24, 0x00	; 0
    4962:	88 23       	and	r24, r24
    4964:	09 f4       	brne	.+2      	; 0x4968 <_ZN16Adafruit_SSD13069drawPixelEiij+0x68>
    4966:	83 c1       	rjmp	.+774    	; 0x4c6e <_ZN16Adafruit_SSD13069drawPixelEiij+0x36e>
    4968:	89 81       	ldd	r24, Y+1	; 0x01
    496a:	9a 81       	ldd	r25, Y+2	; 0x02
    496c:	0e 94 db 10 	call	0x21b6	; 0x21b6 <_ZNK12Adafruit_GFX11getRotationEv>
    4970:	88 2f       	mov	r24, r24
    4972:	90 e0       	ldi	r25, 0x00	; 0
    4974:	82 30       	cpi	r24, 0x02	; 2
    4976:	91 05       	cpc	r25, r1
    4978:	81 f1       	breq	.+96     	; 0x49da <_ZN16Adafruit_SSD13069drawPixelEiij+0xda>
    497a:	83 30       	cpi	r24, 0x03	; 3
    497c:	91 05       	cpc	r25, r1
    497e:	09 f4       	brne	.+2      	; 0x4982 <_ZN16Adafruit_SSD13069drawPixelEiij+0x82>
    4980:	4d c0       	rjmp	.+154    	; 0x4a1c <_ZN16Adafruit_SSD13069drawPixelEiij+0x11c>
    4982:	01 97       	sbiw	r24, 0x01	; 1
    4984:	09 f0       	breq	.+2      	; 0x4988 <_ZN16Adafruit_SSD13069drawPixelEiij+0x88>
    4986:	73 c0       	rjmp	.+230    	; 0x4a6e <_ZN16Adafruit_SSD13069drawPixelEiij+0x16e>
    4988:	2b 81       	ldd	r18, Y+3	; 0x03
    498a:	3c 81       	ldd	r19, Y+4	; 0x04
    498c:	8d 81       	ldd	r24, Y+5	; 0x05
    498e:	9e 81       	ldd	r25, Y+6	; 0x06
    4990:	82 27       	eor	r24, r18
    4992:	93 27       	eor	r25, r19
    4994:	9c 83       	std	Y+4, r25	; 0x04
    4996:	8b 83       	std	Y+3, r24	; 0x03
    4998:	2d 81       	ldd	r18, Y+5	; 0x05
    499a:	3e 81       	ldd	r19, Y+6	; 0x06
    499c:	8b 81       	ldd	r24, Y+3	; 0x03
    499e:	9c 81       	ldd	r25, Y+4	; 0x04
    49a0:	82 27       	eor	r24, r18
    49a2:	93 27       	eor	r25, r19
    49a4:	9e 83       	std	Y+6, r25	; 0x06
    49a6:	8d 83       	std	Y+5, r24	; 0x05
    49a8:	2b 81       	ldd	r18, Y+3	; 0x03
    49aa:	3c 81       	ldd	r19, Y+4	; 0x04
    49ac:	8d 81       	ldd	r24, Y+5	; 0x05
    49ae:	9e 81       	ldd	r25, Y+6	; 0x06
    49b0:	82 27       	eor	r24, r18
    49b2:	93 27       	eor	r25, r19
    49b4:	9c 83       	std	Y+4, r25	; 0x04
    49b6:	8b 83       	std	Y+3, r24	; 0x03
    49b8:	89 81       	ldd	r24, Y+1	; 0x01
    49ba:	9a 81       	ldd	r25, Y+2	; 0x02
    49bc:	dc 01       	movw	r26, r24
    49be:	14 96       	adiw	r26, 0x04	; 4
    49c0:	2d 91       	ld	r18, X+
    49c2:	3c 91       	ld	r19, X
    49c4:	15 97       	sbiw	r26, 0x05	; 5
    49c6:	8b 81       	ldd	r24, Y+3	; 0x03
    49c8:	9c 81       	ldd	r25, Y+4	; 0x04
    49ca:	f9 01       	movw	r30, r18
    49cc:	e8 1b       	sub	r30, r24
    49ce:	f9 0b       	sbc	r31, r25
    49d0:	cf 01       	movw	r24, r30
    49d2:	01 97       	sbiw	r24, 0x01	; 1
    49d4:	9c 83       	std	Y+4, r25	; 0x04
    49d6:	8b 83       	std	Y+3, r24	; 0x03
    49d8:	4a c0       	rjmp	.+148    	; 0x4a6e <_ZN16Adafruit_SSD13069drawPixelEiij+0x16e>
    49da:	89 81       	ldd	r24, Y+1	; 0x01
    49dc:	9a 81       	ldd	r25, Y+2	; 0x02
    49de:	dc 01       	movw	r26, r24
    49e0:	14 96       	adiw	r26, 0x04	; 4
    49e2:	2d 91       	ld	r18, X+
    49e4:	3c 91       	ld	r19, X
    49e6:	15 97       	sbiw	r26, 0x05	; 5
    49e8:	8b 81       	ldd	r24, Y+3	; 0x03
    49ea:	9c 81       	ldd	r25, Y+4	; 0x04
    49ec:	f9 01       	movw	r30, r18
    49ee:	e8 1b       	sub	r30, r24
    49f0:	f9 0b       	sbc	r31, r25
    49f2:	cf 01       	movw	r24, r30
    49f4:	01 97       	sbiw	r24, 0x01	; 1
    49f6:	9c 83       	std	Y+4, r25	; 0x04
    49f8:	8b 83       	std	Y+3, r24	; 0x03
    49fa:	89 81       	ldd	r24, Y+1	; 0x01
    49fc:	9a 81       	ldd	r25, Y+2	; 0x02
    49fe:	dc 01       	movw	r26, r24
    4a00:	16 96       	adiw	r26, 0x06	; 6
    4a02:	2d 91       	ld	r18, X+
    4a04:	3c 91       	ld	r19, X
    4a06:	17 97       	sbiw	r26, 0x07	; 7
    4a08:	8d 81       	ldd	r24, Y+5	; 0x05
    4a0a:	9e 81       	ldd	r25, Y+6	; 0x06
    4a0c:	f9 01       	movw	r30, r18
    4a0e:	e8 1b       	sub	r30, r24
    4a10:	f9 0b       	sbc	r31, r25
    4a12:	cf 01       	movw	r24, r30
    4a14:	01 97       	sbiw	r24, 0x01	; 1
    4a16:	9e 83       	std	Y+6, r25	; 0x06
    4a18:	8d 83       	std	Y+5, r24	; 0x05
    4a1a:	29 c0       	rjmp	.+82     	; 0x4a6e <_ZN16Adafruit_SSD13069drawPixelEiij+0x16e>
    4a1c:	2b 81       	ldd	r18, Y+3	; 0x03
    4a1e:	3c 81       	ldd	r19, Y+4	; 0x04
    4a20:	8d 81       	ldd	r24, Y+5	; 0x05
    4a22:	9e 81       	ldd	r25, Y+6	; 0x06
    4a24:	82 27       	eor	r24, r18
    4a26:	93 27       	eor	r25, r19
    4a28:	9c 83       	std	Y+4, r25	; 0x04
    4a2a:	8b 83       	std	Y+3, r24	; 0x03
    4a2c:	2d 81       	ldd	r18, Y+5	; 0x05
    4a2e:	3e 81       	ldd	r19, Y+6	; 0x06
    4a30:	8b 81       	ldd	r24, Y+3	; 0x03
    4a32:	9c 81       	ldd	r25, Y+4	; 0x04
    4a34:	82 27       	eor	r24, r18
    4a36:	93 27       	eor	r25, r19
    4a38:	9e 83       	std	Y+6, r25	; 0x06
    4a3a:	8d 83       	std	Y+5, r24	; 0x05
    4a3c:	2b 81       	ldd	r18, Y+3	; 0x03
    4a3e:	3c 81       	ldd	r19, Y+4	; 0x04
    4a40:	8d 81       	ldd	r24, Y+5	; 0x05
    4a42:	9e 81       	ldd	r25, Y+6	; 0x06
    4a44:	82 27       	eor	r24, r18
    4a46:	93 27       	eor	r25, r19
    4a48:	9c 83       	std	Y+4, r25	; 0x04
    4a4a:	8b 83       	std	Y+3, r24	; 0x03
    4a4c:	89 81       	ldd	r24, Y+1	; 0x01
    4a4e:	9a 81       	ldd	r25, Y+2	; 0x02
    4a50:	dc 01       	movw	r26, r24
    4a52:	16 96       	adiw	r26, 0x06	; 6
    4a54:	2d 91       	ld	r18, X+
    4a56:	3c 91       	ld	r19, X
    4a58:	17 97       	sbiw	r26, 0x07	; 7
    4a5a:	8d 81       	ldd	r24, Y+5	; 0x05
    4a5c:	9e 81       	ldd	r25, Y+6	; 0x06
    4a5e:	f9 01       	movw	r30, r18
    4a60:	e8 1b       	sub	r30, r24
    4a62:	f9 0b       	sbc	r31, r25
    4a64:	cf 01       	movw	r24, r30
    4a66:	01 97       	sbiw	r24, 0x01	; 1
    4a68:	9e 83       	std	Y+6, r25	; 0x06
    4a6a:	8d 83       	std	Y+5, r24	; 0x05
    4a6c:	00 00       	nop
    4a6e:	8f 81       	ldd	r24, Y+7	; 0x07
    4a70:	98 85       	ldd	r25, Y+8	; 0x08
    4a72:	81 30       	cpi	r24, 0x01	; 1
    4a74:	91 05       	cpc	r25, r1
    4a76:	41 f0       	breq	.+16     	; 0x4a88 <_ZN16Adafruit_SSD13069drawPixelEiij+0x188>
    4a78:	81 30       	cpi	r24, 0x01	; 1
    4a7a:	91 05       	cpc	r25, r1
    4a7c:	08 f4       	brcc	.+2      	; 0x4a80 <_ZN16Adafruit_SSD13069drawPixelEiij+0x180>
    4a7e:	56 c0       	rjmp	.+172    	; 0x4b2c <_ZN16Adafruit_SSD13069drawPixelEiij+0x22c>
    4a80:	02 97       	sbiw	r24, 0x02	; 2
    4a82:	09 f4       	brne	.+2      	; 0x4a86 <_ZN16Adafruit_SSD13069drawPixelEiij+0x186>
    4a84:	a4 c0       	rjmp	.+328    	; 0x4bce <_ZN16Adafruit_SSD13069drawPixelEiij+0x2ce>
    4a86:	f3 c0       	rjmp	.+486    	; 0x4c6e <_ZN16Adafruit_SSD13069drawPixelEiij+0x36e>
    4a88:	89 81       	ldd	r24, Y+1	; 0x01
    4a8a:	9a 81       	ldd	r25, Y+2	; 0x02
    4a8c:	dc 01       	movw	r26, r24
    4a8e:	5f 96       	adiw	r26, 0x1f	; 31
    4a90:	2d 91       	ld	r18, X+
    4a92:	3c 91       	ld	r19, X
    4a94:	90 97       	sbiw	r26, 0x20	; 32
    4a96:	8d 81       	ldd	r24, Y+5	; 0x05
    4a98:	9e 81       	ldd	r25, Y+6	; 0x06
    4a9a:	99 23       	and	r25, r25
    4a9c:	0c f4       	brge	.+2      	; 0x4aa0 <_ZN16Adafruit_SSD13069drawPixelEiij+0x1a0>
    4a9e:	07 96       	adiw	r24, 0x07	; 7
    4aa0:	95 95       	asr	r25
    4aa2:	87 95       	ror	r24
    4aa4:	95 95       	asr	r25
    4aa6:	87 95       	ror	r24
    4aa8:	95 95       	asr	r25
    4aaa:	87 95       	ror	r24
    4aac:	49 81       	ldd	r20, Y+1	; 0x01
    4aae:	5a 81       	ldd	r21, Y+2	; 0x02
    4ab0:	fa 01       	movw	r30, r20
    4ab2:	44 81       	ldd	r20, Z+4	; 0x04
    4ab4:	55 81       	ldd	r21, Z+5	; 0x05
    4ab6:	84 9f       	mul	r24, r20
    4ab8:	b0 01       	movw	r22, r0
    4aba:	85 9f       	mul	r24, r21
    4abc:	70 0d       	add	r23, r0
    4abe:	94 9f       	mul	r25, r20
    4ac0:	70 0d       	add	r23, r0
    4ac2:	11 24       	eor	r1, r1
    4ac4:	4b 81       	ldd	r20, Y+3	; 0x03
    4ac6:	5c 81       	ldd	r21, Y+4	; 0x04
    4ac8:	46 0f       	add	r20, r22
    4aca:	57 1f       	adc	r21, r23
    4acc:	24 0f       	add	r18, r20
    4ace:	35 1f       	adc	r19, r21
    4ad0:	49 81       	ldd	r20, Y+1	; 0x01
    4ad2:	5a 81       	ldd	r21, Y+2	; 0x02
    4ad4:	da 01       	movw	r26, r20
    4ad6:	5f 96       	adiw	r26, 0x1f	; 31
    4ad8:	4d 91       	ld	r20, X+
    4ada:	5c 91       	ld	r21, X
    4adc:	90 97       	sbiw	r26, 0x20	; 32
    4ade:	69 81       	ldd	r22, Y+1	; 0x01
    4ae0:	7a 81       	ldd	r23, Y+2	; 0x02
    4ae2:	db 01       	movw	r26, r22
    4ae4:	14 96       	adiw	r26, 0x04	; 4
    4ae6:	ed 91       	ld	r30, X+
    4ae8:	fc 91       	ld	r31, X
    4aea:	15 97       	sbiw	r26, 0x05	; 5
    4aec:	8e 9f       	mul	r24, r30
    4aee:	b0 01       	movw	r22, r0
    4af0:	8f 9f       	mul	r24, r31
    4af2:	70 0d       	add	r23, r0
    4af4:	9e 9f       	mul	r25, r30
    4af6:	70 0d       	add	r23, r0
    4af8:	11 24       	eor	r1, r1
    4afa:	8b 81       	ldd	r24, Y+3	; 0x03
    4afc:	9c 81       	ldd	r25, Y+4	; 0x04
    4afe:	86 0f       	add	r24, r22
    4b00:	97 1f       	adc	r25, r23
    4b02:	84 0f       	add	r24, r20
    4b04:	95 1f       	adc	r25, r21
    4b06:	fc 01       	movw	r30, r24
    4b08:	80 81       	ld	r24, Z
    4b0a:	68 2f       	mov	r22, r24
    4b0c:	8d 81       	ldd	r24, Y+5	; 0x05
    4b0e:	9e 81       	ldd	r25, Y+6	; 0x06
    4b10:	ac 01       	movw	r20, r24
    4b12:	47 70       	andi	r20, 0x07	; 7
    4b14:	55 27       	eor	r21, r21
    4b16:	81 e0       	ldi	r24, 0x01	; 1
    4b18:	90 e0       	ldi	r25, 0x00	; 0
    4b1a:	02 c0       	rjmp	.+4      	; 0x4b20 <_ZN16Adafruit_SSD13069drawPixelEiij+0x220>
    4b1c:	88 0f       	add	r24, r24
    4b1e:	99 1f       	adc	r25, r25
    4b20:	4a 95       	dec	r20
    4b22:	e2 f7       	brpl	.-8      	; 0x4b1c <_ZN16Adafruit_SSD13069drawPixelEiij+0x21c>
    4b24:	86 2b       	or	r24, r22
    4b26:	d9 01       	movw	r26, r18
    4b28:	8c 93       	st	X, r24
    4b2a:	a1 c0       	rjmp	.+322    	; 0x4c6e <_ZN16Adafruit_SSD13069drawPixelEiij+0x36e>
    4b2c:	89 81       	ldd	r24, Y+1	; 0x01
    4b2e:	9a 81       	ldd	r25, Y+2	; 0x02
    4b30:	fc 01       	movw	r30, r24
    4b32:	27 8d       	ldd	r18, Z+31	; 0x1f
    4b34:	30 a1       	ldd	r19, Z+32	; 0x20
    4b36:	8d 81       	ldd	r24, Y+5	; 0x05
    4b38:	9e 81       	ldd	r25, Y+6	; 0x06
    4b3a:	99 23       	and	r25, r25
    4b3c:	0c f4       	brge	.+2      	; 0x4b40 <_ZN16Adafruit_SSD13069drawPixelEiij+0x240>
    4b3e:	07 96       	adiw	r24, 0x07	; 7
    4b40:	95 95       	asr	r25
    4b42:	87 95       	ror	r24
    4b44:	95 95       	asr	r25
    4b46:	87 95       	ror	r24
    4b48:	95 95       	asr	r25
    4b4a:	87 95       	ror	r24
    4b4c:	49 81       	ldd	r20, Y+1	; 0x01
    4b4e:	5a 81       	ldd	r21, Y+2	; 0x02
    4b50:	da 01       	movw	r26, r20
    4b52:	14 96       	adiw	r26, 0x04	; 4
    4b54:	4d 91       	ld	r20, X+
    4b56:	5c 91       	ld	r21, X
    4b58:	15 97       	sbiw	r26, 0x05	; 5
    4b5a:	84 9f       	mul	r24, r20
    4b5c:	b0 01       	movw	r22, r0
    4b5e:	85 9f       	mul	r24, r21
    4b60:	70 0d       	add	r23, r0
    4b62:	94 9f       	mul	r25, r20
    4b64:	70 0d       	add	r23, r0
    4b66:	11 24       	eor	r1, r1
    4b68:	4b 81       	ldd	r20, Y+3	; 0x03
    4b6a:	5c 81       	ldd	r21, Y+4	; 0x04
    4b6c:	46 0f       	add	r20, r22
    4b6e:	57 1f       	adc	r21, r23
    4b70:	24 0f       	add	r18, r20
    4b72:	35 1f       	adc	r19, r21
    4b74:	49 81       	ldd	r20, Y+1	; 0x01
    4b76:	5a 81       	ldd	r21, Y+2	; 0x02
    4b78:	fa 01       	movw	r30, r20
    4b7a:	47 8d       	ldd	r20, Z+31	; 0x1f
    4b7c:	50 a1       	ldd	r21, Z+32	; 0x20
    4b7e:	69 81       	ldd	r22, Y+1	; 0x01
    4b80:	7a 81       	ldd	r23, Y+2	; 0x02
    4b82:	db 01       	movw	r26, r22
    4b84:	14 96       	adiw	r26, 0x04	; 4
    4b86:	ed 91       	ld	r30, X+
    4b88:	fc 91       	ld	r31, X
    4b8a:	15 97       	sbiw	r26, 0x05	; 5
    4b8c:	8e 9f       	mul	r24, r30
    4b8e:	b0 01       	movw	r22, r0
    4b90:	8f 9f       	mul	r24, r31
    4b92:	70 0d       	add	r23, r0
    4b94:	9e 9f       	mul	r25, r30
    4b96:	70 0d       	add	r23, r0
    4b98:	11 24       	eor	r1, r1
    4b9a:	8b 81       	ldd	r24, Y+3	; 0x03
    4b9c:	9c 81       	ldd	r25, Y+4	; 0x04
    4b9e:	86 0f       	add	r24, r22
    4ba0:	97 1f       	adc	r25, r23
    4ba2:	84 0f       	add	r24, r20
    4ba4:	95 1f       	adc	r25, r21
    4ba6:	fc 01       	movw	r30, r24
    4ba8:	80 81       	ld	r24, Z
    4baa:	68 2f       	mov	r22, r24
    4bac:	8d 81       	ldd	r24, Y+5	; 0x05
    4bae:	9e 81       	ldd	r25, Y+6	; 0x06
    4bb0:	ac 01       	movw	r20, r24
    4bb2:	47 70       	andi	r20, 0x07	; 7
    4bb4:	55 27       	eor	r21, r21
    4bb6:	81 e0       	ldi	r24, 0x01	; 1
    4bb8:	90 e0       	ldi	r25, 0x00	; 0
    4bba:	02 c0       	rjmp	.+4      	; 0x4bc0 <_ZN16Adafruit_SSD13069drawPixelEiij+0x2c0>
    4bbc:	88 0f       	add	r24, r24
    4bbe:	99 1f       	adc	r25, r25
    4bc0:	4a 95       	dec	r20
    4bc2:	e2 f7       	brpl	.-8      	; 0x4bbc <_ZN16Adafruit_SSD13069drawPixelEiij+0x2bc>
    4bc4:	80 95       	com	r24
    4bc6:	86 23       	and	r24, r22
    4bc8:	d9 01       	movw	r26, r18
    4bca:	8c 93       	st	X, r24
    4bcc:	50 c0       	rjmp	.+160    	; 0x4c6e <_ZN16Adafruit_SSD13069drawPixelEiij+0x36e>
    4bce:	89 81       	ldd	r24, Y+1	; 0x01
    4bd0:	9a 81       	ldd	r25, Y+2	; 0x02
    4bd2:	fc 01       	movw	r30, r24
    4bd4:	27 8d       	ldd	r18, Z+31	; 0x1f
    4bd6:	30 a1       	ldd	r19, Z+32	; 0x20
    4bd8:	8d 81       	ldd	r24, Y+5	; 0x05
    4bda:	9e 81       	ldd	r25, Y+6	; 0x06
    4bdc:	99 23       	and	r25, r25
    4bde:	0c f4       	brge	.+2      	; 0x4be2 <_ZN16Adafruit_SSD13069drawPixelEiij+0x2e2>
    4be0:	07 96       	adiw	r24, 0x07	; 7
    4be2:	95 95       	asr	r25
    4be4:	87 95       	ror	r24
    4be6:	95 95       	asr	r25
    4be8:	87 95       	ror	r24
    4bea:	95 95       	asr	r25
    4bec:	87 95       	ror	r24
    4bee:	49 81       	ldd	r20, Y+1	; 0x01
    4bf0:	5a 81       	ldd	r21, Y+2	; 0x02
    4bf2:	da 01       	movw	r26, r20
    4bf4:	14 96       	adiw	r26, 0x04	; 4
    4bf6:	4d 91       	ld	r20, X+
    4bf8:	5c 91       	ld	r21, X
    4bfa:	15 97       	sbiw	r26, 0x05	; 5
    4bfc:	84 9f       	mul	r24, r20
    4bfe:	b0 01       	movw	r22, r0
    4c00:	85 9f       	mul	r24, r21
    4c02:	70 0d       	add	r23, r0
    4c04:	94 9f       	mul	r25, r20
    4c06:	70 0d       	add	r23, r0
    4c08:	11 24       	eor	r1, r1
    4c0a:	4b 81       	ldd	r20, Y+3	; 0x03
    4c0c:	5c 81       	ldd	r21, Y+4	; 0x04
    4c0e:	46 0f       	add	r20, r22
    4c10:	57 1f       	adc	r21, r23
    4c12:	24 0f       	add	r18, r20
    4c14:	35 1f       	adc	r19, r21
    4c16:	49 81       	ldd	r20, Y+1	; 0x01
    4c18:	5a 81       	ldd	r21, Y+2	; 0x02
    4c1a:	fa 01       	movw	r30, r20
    4c1c:	47 8d       	ldd	r20, Z+31	; 0x1f
    4c1e:	50 a1       	ldd	r21, Z+32	; 0x20
    4c20:	69 81       	ldd	r22, Y+1	; 0x01
    4c22:	7a 81       	ldd	r23, Y+2	; 0x02
    4c24:	db 01       	movw	r26, r22
    4c26:	14 96       	adiw	r26, 0x04	; 4
    4c28:	ed 91       	ld	r30, X+
    4c2a:	fc 91       	ld	r31, X
    4c2c:	15 97       	sbiw	r26, 0x05	; 5
    4c2e:	8e 9f       	mul	r24, r30
    4c30:	b0 01       	movw	r22, r0
    4c32:	8f 9f       	mul	r24, r31
    4c34:	70 0d       	add	r23, r0
    4c36:	9e 9f       	mul	r25, r30
    4c38:	70 0d       	add	r23, r0
    4c3a:	11 24       	eor	r1, r1
    4c3c:	8b 81       	ldd	r24, Y+3	; 0x03
    4c3e:	9c 81       	ldd	r25, Y+4	; 0x04
    4c40:	86 0f       	add	r24, r22
    4c42:	97 1f       	adc	r25, r23
    4c44:	84 0f       	add	r24, r20
    4c46:	95 1f       	adc	r25, r21
    4c48:	fc 01       	movw	r30, r24
    4c4a:	80 81       	ld	r24, Z
    4c4c:	68 2f       	mov	r22, r24
    4c4e:	8d 81       	ldd	r24, Y+5	; 0x05
    4c50:	9e 81       	ldd	r25, Y+6	; 0x06
    4c52:	ac 01       	movw	r20, r24
    4c54:	47 70       	andi	r20, 0x07	; 7
    4c56:	55 27       	eor	r21, r21
    4c58:	81 e0       	ldi	r24, 0x01	; 1
    4c5a:	90 e0       	ldi	r25, 0x00	; 0
    4c5c:	02 c0       	rjmp	.+4      	; 0x4c62 <_ZN16Adafruit_SSD13069drawPixelEiij+0x362>
    4c5e:	88 0f       	add	r24, r24
    4c60:	99 1f       	adc	r25, r25
    4c62:	4a 95       	dec	r20
    4c64:	e2 f7       	brpl	.-8      	; 0x4c5e <_ZN16Adafruit_SSD13069drawPixelEiij+0x35e>
    4c66:	86 27       	eor	r24, r22
    4c68:	d9 01       	movw	r26, r18
    4c6a:	8c 93       	st	X, r24
    4c6c:	00 00       	nop
    4c6e:	00 00       	nop
    4c70:	28 96       	adiw	r28, 0x08	; 8
    4c72:	0f b6       	in	r0, 0x3f	; 63
    4c74:	f8 94       	cli
    4c76:	de bf       	out	0x3e, r29	; 62
    4c78:	0f be       	out	0x3f, r0	; 63
    4c7a:	cd bf       	out	0x3d, r28	; 61
    4c7c:	df 91       	pop	r29
    4c7e:	cf 91       	pop	r28
    4c80:	08 95       	ret

00004c82 <_ZN16Adafruit_SSD130612clearDisplayEv>:
    4c82:	cf 93       	push	r28
    4c84:	df 93       	push	r29
    4c86:	1f 92       	push	r1
    4c88:	1f 92       	push	r1
    4c8a:	cd b7       	in	r28, 0x3d	; 61
    4c8c:	de b7       	in	r29, 0x3e	; 62
    4c8e:	9a 83       	std	Y+2, r25	; 0x02
    4c90:	89 83       	std	Y+1, r24	; 0x01
    4c92:	89 81       	ldd	r24, Y+1	; 0x01
    4c94:	9a 81       	ldd	r25, Y+2	; 0x02
    4c96:	fc 01       	movw	r30, r24
    4c98:	24 81       	ldd	r18, Z+4	; 0x04
    4c9a:	35 81       	ldd	r19, Z+5	; 0x05
    4c9c:	89 81       	ldd	r24, Y+1	; 0x01
    4c9e:	9a 81       	ldd	r25, Y+2	; 0x02
    4ca0:	fc 01       	movw	r30, r24
    4ca2:	86 81       	ldd	r24, Z+6	; 0x06
    4ca4:	97 81       	ldd	r25, Z+7	; 0x07
    4ca6:	07 96       	adiw	r24, 0x07	; 7
    4ca8:	99 23       	and	r25, r25
    4caa:	0c f4       	brge	.+2      	; 0x4cae <_ZN16Adafruit_SSD130612clearDisplayEv+0x2c>
    4cac:	07 96       	adiw	r24, 0x07	; 7
    4cae:	95 95       	asr	r25
    4cb0:	87 95       	ror	r24
    4cb2:	95 95       	asr	r25
    4cb4:	87 95       	ror	r24
    4cb6:	95 95       	asr	r25
    4cb8:	87 95       	ror	r24
    4cba:	ac 01       	movw	r20, r24
    4cbc:	24 9f       	mul	r18, r20
    4cbe:	c0 01       	movw	r24, r0
    4cc0:	25 9f       	mul	r18, r21
    4cc2:	90 0d       	add	r25, r0
    4cc4:	34 9f       	mul	r19, r20
    4cc6:	90 0d       	add	r25, r0
    4cc8:	11 24       	eor	r1, r1
    4cca:	9c 01       	movw	r18, r24
    4ccc:	89 81       	ldd	r24, Y+1	; 0x01
    4cce:	9a 81       	ldd	r25, Y+2	; 0x02
    4cd0:	fc 01       	movw	r30, r24
    4cd2:	87 8d       	ldd	r24, Z+31	; 0x1f
    4cd4:	90 a1       	ldd	r25, Z+32	; 0x20
    4cd6:	a9 01       	movw	r20, r18
    4cd8:	60 e0       	ldi	r22, 0x00	; 0
    4cda:	70 e0       	ldi	r23, 0x00	; 0
    4cdc:	0e 94 07 37 	call	0x6e0e	; 0x6e0e <memset>
    4ce0:	00 00       	nop
    4ce2:	0f 90       	pop	r0
    4ce4:	0f 90       	pop	r0
    4ce6:	df 91       	pop	r29
    4ce8:	cf 91       	pop	r28
    4cea:	08 95       	ret

00004cec <_ZN16Adafruit_SSD130613drawFastHLineEiiij>:
    4cec:	0f 93       	push	r16
    4cee:	1f 93       	push	r17
    4cf0:	cf 93       	push	r28
    4cf2:	df 93       	push	r29
    4cf4:	cd b7       	in	r28, 0x3d	; 61
    4cf6:	de b7       	in	r29, 0x3e	; 62
    4cf8:	2b 97       	sbiw	r28, 0x0b	; 11
    4cfa:	0f b6       	in	r0, 0x3f	; 63
    4cfc:	f8 94       	cli
    4cfe:	de bf       	out	0x3e, r29	; 62
    4d00:	0f be       	out	0x3f, r0	; 63
    4d02:	cd bf       	out	0x3d, r28	; 61
    4d04:	9b 83       	std	Y+3, r25	; 0x03
    4d06:	8a 83       	std	Y+2, r24	; 0x02
    4d08:	7d 83       	std	Y+5, r23	; 0x05
    4d0a:	6c 83       	std	Y+4, r22	; 0x04
    4d0c:	5f 83       	std	Y+7, r21	; 0x07
    4d0e:	4e 83       	std	Y+6, r20	; 0x06
    4d10:	39 87       	std	Y+9, r19	; 0x09
    4d12:	28 87       	std	Y+8, r18	; 0x08
    4d14:	1b 87       	std	Y+11, r17	; 0x0b
    4d16:	0a 87       	std	Y+10, r16	; 0x0a
    4d18:	19 82       	std	Y+1, r1	; 0x01
    4d1a:	8a 81       	ldd	r24, Y+2	; 0x02
    4d1c:	9b 81       	ldd	r25, Y+3	; 0x03
    4d1e:	fc 01       	movw	r30, r24
    4d20:	86 89       	ldd	r24, Z+22	; 0x16
    4d22:	88 2f       	mov	r24, r24
    4d24:	90 e0       	ldi	r25, 0x00	; 0
    4d26:	82 30       	cpi	r24, 0x02	; 2
    4d28:	91 05       	cpc	r25, r1
    4d2a:	81 f1       	breq	.+96     	; 0x4d8c <_ZN16Adafruit_SSD130613drawFastHLineEiiij+0xa0>
    4d2c:	83 30       	cpi	r24, 0x03	; 3
    4d2e:	91 05       	cpc	r25, r1
    4d30:	09 f4       	brne	.+2      	; 0x4d34 <_ZN16Adafruit_SSD130613drawFastHLineEiiij+0x48>
    4d32:	54 c0       	rjmp	.+168    	; 0x4ddc <_ZN16Adafruit_SSD130613drawFastHLineEiiij+0xf0>
    4d34:	01 97       	sbiw	r24, 0x01	; 1
    4d36:	09 f0       	breq	.+2      	; 0x4d3a <_ZN16Adafruit_SSD130613drawFastHLineEiiij+0x4e>
    4d38:	85 c0       	rjmp	.+266    	; 0x4e44 <_ZN16Adafruit_SSD130613drawFastHLineEiiij+0x158>
    4d3a:	81 e0       	ldi	r24, 0x01	; 1
    4d3c:	89 83       	std	Y+1, r24	; 0x01
    4d3e:	2c 81       	ldd	r18, Y+4	; 0x04
    4d40:	3d 81       	ldd	r19, Y+5	; 0x05
    4d42:	8e 81       	ldd	r24, Y+6	; 0x06
    4d44:	9f 81       	ldd	r25, Y+7	; 0x07
    4d46:	82 27       	eor	r24, r18
    4d48:	93 27       	eor	r25, r19
    4d4a:	9d 83       	std	Y+5, r25	; 0x05
    4d4c:	8c 83       	std	Y+4, r24	; 0x04
    4d4e:	2e 81       	ldd	r18, Y+6	; 0x06
    4d50:	3f 81       	ldd	r19, Y+7	; 0x07
    4d52:	8c 81       	ldd	r24, Y+4	; 0x04
    4d54:	9d 81       	ldd	r25, Y+5	; 0x05
    4d56:	82 27       	eor	r24, r18
    4d58:	93 27       	eor	r25, r19
    4d5a:	9f 83       	std	Y+7, r25	; 0x07
    4d5c:	8e 83       	std	Y+6, r24	; 0x06
    4d5e:	2c 81       	ldd	r18, Y+4	; 0x04
    4d60:	3d 81       	ldd	r19, Y+5	; 0x05
    4d62:	8e 81       	ldd	r24, Y+6	; 0x06
    4d64:	9f 81       	ldd	r25, Y+7	; 0x07
    4d66:	82 27       	eor	r24, r18
    4d68:	93 27       	eor	r25, r19
    4d6a:	9d 83       	std	Y+5, r25	; 0x05
    4d6c:	8c 83       	std	Y+4, r24	; 0x04
    4d6e:	8a 81       	ldd	r24, Y+2	; 0x02
    4d70:	9b 81       	ldd	r25, Y+3	; 0x03
    4d72:	fc 01       	movw	r30, r24
    4d74:	24 81       	ldd	r18, Z+4	; 0x04
    4d76:	35 81       	ldd	r19, Z+5	; 0x05
    4d78:	8c 81       	ldd	r24, Y+4	; 0x04
    4d7a:	9d 81       	ldd	r25, Y+5	; 0x05
    4d7c:	a9 01       	movw	r20, r18
    4d7e:	48 1b       	sub	r20, r24
    4d80:	59 0b       	sbc	r21, r25
    4d82:	ca 01       	movw	r24, r20
    4d84:	01 97       	sbiw	r24, 0x01	; 1
    4d86:	9d 83       	std	Y+5, r25	; 0x05
    4d88:	8c 83       	std	Y+4, r24	; 0x04
    4d8a:	5c c0       	rjmp	.+184    	; 0x4e44 <_ZN16Adafruit_SSD130613drawFastHLineEiiij+0x158>
    4d8c:	8a 81       	ldd	r24, Y+2	; 0x02
    4d8e:	9b 81       	ldd	r25, Y+3	; 0x03
    4d90:	fc 01       	movw	r30, r24
    4d92:	24 81       	ldd	r18, Z+4	; 0x04
    4d94:	35 81       	ldd	r19, Z+5	; 0x05
    4d96:	8c 81       	ldd	r24, Y+4	; 0x04
    4d98:	9d 81       	ldd	r25, Y+5	; 0x05
    4d9a:	a9 01       	movw	r20, r18
    4d9c:	48 1b       	sub	r20, r24
    4d9e:	59 0b       	sbc	r21, r25
    4da0:	ca 01       	movw	r24, r20
    4da2:	01 97       	sbiw	r24, 0x01	; 1
    4da4:	9d 83       	std	Y+5, r25	; 0x05
    4da6:	8c 83       	std	Y+4, r24	; 0x04
    4da8:	8a 81       	ldd	r24, Y+2	; 0x02
    4daa:	9b 81       	ldd	r25, Y+3	; 0x03
    4dac:	fc 01       	movw	r30, r24
    4dae:	26 81       	ldd	r18, Z+6	; 0x06
    4db0:	37 81       	ldd	r19, Z+7	; 0x07
    4db2:	8e 81       	ldd	r24, Y+6	; 0x06
    4db4:	9f 81       	ldd	r25, Y+7	; 0x07
    4db6:	a9 01       	movw	r20, r18
    4db8:	48 1b       	sub	r20, r24
    4dba:	59 0b       	sbc	r21, r25
    4dbc:	ca 01       	movw	r24, r20
    4dbe:	01 97       	sbiw	r24, 0x01	; 1
    4dc0:	9f 83       	std	Y+7, r25	; 0x07
    4dc2:	8e 83       	std	Y+6, r24	; 0x06
    4dc4:	88 85       	ldd	r24, Y+8	; 0x08
    4dc6:	99 85       	ldd	r25, Y+9	; 0x09
    4dc8:	01 97       	sbiw	r24, 0x01	; 1
    4dca:	2c 81       	ldd	r18, Y+4	; 0x04
    4dcc:	3d 81       	ldd	r19, Y+5	; 0x05
    4dce:	f9 01       	movw	r30, r18
    4dd0:	e8 1b       	sub	r30, r24
    4dd2:	f9 0b       	sbc	r31, r25
    4dd4:	cf 01       	movw	r24, r30
    4dd6:	9d 83       	std	Y+5, r25	; 0x05
    4dd8:	8c 83       	std	Y+4, r24	; 0x04
    4dda:	34 c0       	rjmp	.+104    	; 0x4e44 <_ZN16Adafruit_SSD130613drawFastHLineEiiij+0x158>
    4ddc:	81 e0       	ldi	r24, 0x01	; 1
    4dde:	89 83       	std	Y+1, r24	; 0x01
    4de0:	2c 81       	ldd	r18, Y+4	; 0x04
    4de2:	3d 81       	ldd	r19, Y+5	; 0x05
    4de4:	8e 81       	ldd	r24, Y+6	; 0x06
    4de6:	9f 81       	ldd	r25, Y+7	; 0x07
    4de8:	82 27       	eor	r24, r18
    4dea:	93 27       	eor	r25, r19
    4dec:	9d 83       	std	Y+5, r25	; 0x05
    4dee:	8c 83       	std	Y+4, r24	; 0x04
    4df0:	2e 81       	ldd	r18, Y+6	; 0x06
    4df2:	3f 81       	ldd	r19, Y+7	; 0x07
    4df4:	8c 81       	ldd	r24, Y+4	; 0x04
    4df6:	9d 81       	ldd	r25, Y+5	; 0x05
    4df8:	82 27       	eor	r24, r18
    4dfa:	93 27       	eor	r25, r19
    4dfc:	9f 83       	std	Y+7, r25	; 0x07
    4dfe:	8e 83       	std	Y+6, r24	; 0x06
    4e00:	2c 81       	ldd	r18, Y+4	; 0x04
    4e02:	3d 81       	ldd	r19, Y+5	; 0x05
    4e04:	8e 81       	ldd	r24, Y+6	; 0x06
    4e06:	9f 81       	ldd	r25, Y+7	; 0x07
    4e08:	82 27       	eor	r24, r18
    4e0a:	93 27       	eor	r25, r19
    4e0c:	9d 83       	std	Y+5, r25	; 0x05
    4e0e:	8c 83       	std	Y+4, r24	; 0x04
    4e10:	8a 81       	ldd	r24, Y+2	; 0x02
    4e12:	9b 81       	ldd	r25, Y+3	; 0x03
    4e14:	fc 01       	movw	r30, r24
    4e16:	26 81       	ldd	r18, Z+6	; 0x06
    4e18:	37 81       	ldd	r19, Z+7	; 0x07
    4e1a:	8e 81       	ldd	r24, Y+6	; 0x06
    4e1c:	9f 81       	ldd	r25, Y+7	; 0x07
    4e1e:	a9 01       	movw	r20, r18
    4e20:	48 1b       	sub	r20, r24
    4e22:	59 0b       	sbc	r21, r25
    4e24:	ca 01       	movw	r24, r20
    4e26:	01 97       	sbiw	r24, 0x01	; 1
    4e28:	9f 83       	std	Y+7, r25	; 0x07
    4e2a:	8e 83       	std	Y+6, r24	; 0x06
    4e2c:	88 85       	ldd	r24, Y+8	; 0x08
    4e2e:	99 85       	ldd	r25, Y+9	; 0x09
    4e30:	01 97       	sbiw	r24, 0x01	; 1
    4e32:	2e 81       	ldd	r18, Y+6	; 0x06
    4e34:	3f 81       	ldd	r19, Y+7	; 0x07
    4e36:	f9 01       	movw	r30, r18
    4e38:	e8 1b       	sub	r30, r24
    4e3a:	f9 0b       	sbc	r31, r25
    4e3c:	cf 01       	movw	r24, r30
    4e3e:	9f 83       	std	Y+7, r25	; 0x07
    4e40:	8e 83       	std	Y+6, r24	; 0x06
    4e42:	00 00       	nop
    4e44:	89 81       	ldd	r24, Y+1	; 0x01
    4e46:	88 23       	and	r24, r24
    4e48:	69 f0       	breq	.+26     	; 0x4e64 <_ZN16Adafruit_SSD130613drawFastHLineEiiij+0x178>
    4e4a:	ea 85       	ldd	r30, Y+10	; 0x0a
    4e4c:	fb 85       	ldd	r31, Y+11	; 0x0b
    4e4e:	28 85       	ldd	r18, Y+8	; 0x08
    4e50:	39 85       	ldd	r19, Y+9	; 0x09
    4e52:	4e 81       	ldd	r20, Y+6	; 0x06
    4e54:	5f 81       	ldd	r21, Y+7	; 0x07
    4e56:	6c 81       	ldd	r22, Y+4	; 0x04
    4e58:	7d 81       	ldd	r23, Y+5	; 0x05
    4e5a:	8a 81       	ldd	r24, Y+2	; 0x02
    4e5c:	9b 81       	ldd	r25, Y+3	; 0x03
    4e5e:	8f 01       	movw	r16, r30
    4e60:	e5 d1       	rcall	.+970    	; 0x522c <_ZN16Adafruit_SSD130621drawFastVLineInternalEiiij>
    4e62:	0c c0       	rjmp	.+24     	; 0x4e7c <_ZN16Adafruit_SSD130613drawFastHLineEiiij+0x190>
    4e64:	ea 85       	ldd	r30, Y+10	; 0x0a
    4e66:	fb 85       	ldd	r31, Y+11	; 0x0b
    4e68:	28 85       	ldd	r18, Y+8	; 0x08
    4e6a:	39 85       	ldd	r19, Y+9	; 0x09
    4e6c:	4e 81       	ldd	r20, Y+6	; 0x06
    4e6e:	5f 81       	ldd	r21, Y+7	; 0x07
    4e70:	6c 81       	ldd	r22, Y+4	; 0x04
    4e72:	7d 81       	ldd	r23, Y+5	; 0x05
    4e74:	8a 81       	ldd	r24, Y+2	; 0x02
    4e76:	9b 81       	ldd	r25, Y+3	; 0x03
    4e78:	8f 01       	movw	r16, r30
    4e7a:	0c d0       	rcall	.+24     	; 0x4e94 <_ZN16Adafruit_SSD130621drawFastHLineInternalEiiij>
    4e7c:	00 00       	nop
    4e7e:	2b 96       	adiw	r28, 0x0b	; 11
    4e80:	0f b6       	in	r0, 0x3f	; 63
    4e82:	f8 94       	cli
    4e84:	de bf       	out	0x3e, r29	; 62
    4e86:	0f be       	out	0x3f, r0	; 63
    4e88:	cd bf       	out	0x3d, r28	; 61
    4e8a:	df 91       	pop	r29
    4e8c:	cf 91       	pop	r28
    4e8e:	1f 91       	pop	r17
    4e90:	0f 91       	pop	r16
    4e92:	08 95       	ret

00004e94 <_ZN16Adafruit_SSD130621drawFastHLineInternalEiiij>:
    4e94:	0f 93       	push	r16
    4e96:	1f 93       	push	r17
    4e98:	cf 93       	push	r28
    4e9a:	df 93       	push	r29
    4e9c:	cd b7       	in	r28, 0x3d	; 61
    4e9e:	de b7       	in	r29, 0x3e	; 62
    4ea0:	2d 97       	sbiw	r28, 0x0d	; 13
    4ea2:	0f b6       	in	r0, 0x3f	; 63
    4ea4:	f8 94       	cli
    4ea6:	de bf       	out	0x3e, r29	; 62
    4ea8:	0f be       	out	0x3f, r0	; 63
    4eaa:	cd bf       	out	0x3d, r28	; 61
    4eac:	9d 83       	std	Y+5, r25	; 0x05
    4eae:	8c 83       	std	Y+4, r24	; 0x04
    4eb0:	7f 83       	std	Y+7, r23	; 0x07
    4eb2:	6e 83       	std	Y+6, r22	; 0x06
    4eb4:	59 87       	std	Y+9, r21	; 0x09
    4eb6:	48 87       	std	Y+8, r20	; 0x08
    4eb8:	3b 87       	std	Y+11, r19	; 0x0b
    4eba:	2a 87       	std	Y+10, r18	; 0x0a
    4ebc:	1d 87       	std	Y+13, r17	; 0x0d
    4ebe:	0c 87       	std	Y+12, r16	; 0x0c
    4ec0:	88 85       	ldd	r24, Y+8	; 0x08
    4ec2:	99 85       	ldd	r25, Y+9	; 0x09
    4ec4:	99 23       	and	r25, r25
    4ec6:	0c f4       	brge	.+2      	; 0x4eca <_ZN16Adafruit_SSD130621drawFastHLineInternalEiiij+0x36>
    4ec8:	d1 c0       	rjmp	.+418    	; 0x506c <_ZN16Adafruit_SSD130621drawFastHLineInternalEiiij+0x1d8>
    4eca:	8c 81       	ldd	r24, Y+4	; 0x04
    4ecc:	9d 81       	ldd	r25, Y+5	; 0x05
    4ece:	fc 01       	movw	r30, r24
    4ed0:	26 81       	ldd	r18, Z+6	; 0x06
    4ed2:	37 81       	ldd	r19, Z+7	; 0x07
    4ed4:	88 85       	ldd	r24, Y+8	; 0x08
    4ed6:	99 85       	ldd	r25, Y+9	; 0x09
    4ed8:	82 17       	cp	r24, r18
    4eda:	93 07       	cpc	r25, r19
    4edc:	0c f0       	brlt	.+2      	; 0x4ee0 <_ZN16Adafruit_SSD130621drawFastHLineInternalEiiij+0x4c>
    4ede:	c6 c0       	rjmp	.+396    	; 0x506c <_ZN16Adafruit_SSD130621drawFastHLineInternalEiiij+0x1d8>
    4ee0:	8e 81       	ldd	r24, Y+6	; 0x06
    4ee2:	9f 81       	ldd	r25, Y+7	; 0x07
    4ee4:	99 23       	and	r25, r25
    4ee6:	54 f4       	brge	.+20     	; 0x4efc <_ZN16Adafruit_SSD130621drawFastHLineInternalEiiij+0x68>
    4ee8:	2a 85       	ldd	r18, Y+10	; 0x0a
    4eea:	3b 85       	ldd	r19, Y+11	; 0x0b
    4eec:	8e 81       	ldd	r24, Y+6	; 0x06
    4eee:	9f 81       	ldd	r25, Y+7	; 0x07
    4ef0:	82 0f       	add	r24, r18
    4ef2:	93 1f       	adc	r25, r19
    4ef4:	9b 87       	std	Y+11, r25	; 0x0b
    4ef6:	8a 87       	std	Y+10, r24	; 0x0a
    4ef8:	1f 82       	std	Y+7, r1	; 0x07
    4efa:	1e 82       	std	Y+6, r1	; 0x06
    4efc:	2e 81       	ldd	r18, Y+6	; 0x06
    4efe:	3f 81       	ldd	r19, Y+7	; 0x07
    4f00:	8a 85       	ldd	r24, Y+10	; 0x0a
    4f02:	9b 85       	ldd	r25, Y+11	; 0x0b
    4f04:	28 0f       	add	r18, r24
    4f06:	39 1f       	adc	r19, r25
    4f08:	8c 81       	ldd	r24, Y+4	; 0x04
    4f0a:	9d 81       	ldd	r25, Y+5	; 0x05
    4f0c:	fc 01       	movw	r30, r24
    4f0e:	84 81       	ldd	r24, Z+4	; 0x04
    4f10:	95 81       	ldd	r25, Z+5	; 0x05
    4f12:	82 17       	cp	r24, r18
    4f14:	93 07       	cpc	r25, r19
    4f16:	6c f4       	brge	.+26     	; 0x4f32 <_ZN16Adafruit_SSD130621drawFastHLineInternalEiiij+0x9e>
    4f18:	8c 81       	ldd	r24, Y+4	; 0x04
    4f1a:	9d 81       	ldd	r25, Y+5	; 0x05
    4f1c:	fc 01       	movw	r30, r24
    4f1e:	24 81       	ldd	r18, Z+4	; 0x04
    4f20:	35 81       	ldd	r19, Z+5	; 0x05
    4f22:	8e 81       	ldd	r24, Y+6	; 0x06
    4f24:	9f 81       	ldd	r25, Y+7	; 0x07
    4f26:	a9 01       	movw	r20, r18
    4f28:	48 1b       	sub	r20, r24
    4f2a:	59 0b       	sbc	r21, r25
    4f2c:	ca 01       	movw	r24, r20
    4f2e:	9b 87       	std	Y+11, r25	; 0x0b
    4f30:	8a 87       	std	Y+10, r24	; 0x0a
    4f32:	8a 85       	ldd	r24, Y+10	; 0x0a
    4f34:	9b 85       	ldd	r25, Y+11	; 0x0b
    4f36:	18 16       	cp	r1, r24
    4f38:	19 06       	cpc	r1, r25
    4f3a:	0c f0       	brlt	.+2      	; 0x4f3e <_ZN16Adafruit_SSD130621drawFastHLineInternalEiiij+0xaa>
    4f3c:	97 c0       	rjmp	.+302    	; 0x506c <_ZN16Adafruit_SSD130621drawFastHLineInternalEiiij+0x1d8>
    4f3e:	8c 81       	ldd	r24, Y+4	; 0x04
    4f40:	9d 81       	ldd	r25, Y+5	; 0x05
    4f42:	fc 01       	movw	r30, r24
    4f44:	27 8d       	ldd	r18, Z+31	; 0x1f
    4f46:	30 a1       	ldd	r19, Z+32	; 0x20
    4f48:	88 85       	ldd	r24, Y+8	; 0x08
    4f4a:	99 85       	ldd	r25, Y+9	; 0x09
    4f4c:	99 23       	and	r25, r25
    4f4e:	0c f4       	brge	.+2      	; 0x4f52 <_ZN16Adafruit_SSD130621drawFastHLineInternalEiiij+0xbe>
    4f50:	07 96       	adiw	r24, 0x07	; 7
    4f52:	95 95       	asr	r25
    4f54:	87 95       	ror	r24
    4f56:	95 95       	asr	r25
    4f58:	87 95       	ror	r24
    4f5a:	95 95       	asr	r25
    4f5c:	87 95       	ror	r24
    4f5e:	bc 01       	movw	r22, r24
    4f60:	8c 81       	ldd	r24, Y+4	; 0x04
    4f62:	9d 81       	ldd	r25, Y+5	; 0x05
    4f64:	fc 01       	movw	r30, r24
    4f66:	84 81       	ldd	r24, Z+4	; 0x04
    4f68:	95 81       	ldd	r25, Z+5	; 0x05
    4f6a:	68 9f       	mul	r22, r24
    4f6c:	a0 01       	movw	r20, r0
    4f6e:	69 9f       	mul	r22, r25
    4f70:	50 0d       	add	r21, r0
    4f72:	78 9f       	mul	r23, r24
    4f74:	50 0d       	add	r21, r0
    4f76:	11 24       	eor	r1, r1
    4f78:	8e 81       	ldd	r24, Y+6	; 0x06
    4f7a:	9f 81       	ldd	r25, Y+7	; 0x07
    4f7c:	84 0f       	add	r24, r20
    4f7e:	95 1f       	adc	r25, r21
    4f80:	82 0f       	add	r24, r18
    4f82:	93 1f       	adc	r25, r19
    4f84:	9a 83       	std	Y+2, r25	; 0x02
    4f86:	89 83       	std	Y+1, r24	; 0x01
    4f88:	88 85       	ldd	r24, Y+8	; 0x08
    4f8a:	99 85       	ldd	r25, Y+9	; 0x09
    4f8c:	9c 01       	movw	r18, r24
    4f8e:	27 70       	andi	r18, 0x07	; 7
    4f90:	33 27       	eor	r19, r19
    4f92:	81 e0       	ldi	r24, 0x01	; 1
    4f94:	90 e0       	ldi	r25, 0x00	; 0
    4f96:	02 c0       	rjmp	.+4      	; 0x4f9c <_ZN16Adafruit_SSD130621drawFastHLineInternalEiiij+0x108>
    4f98:	88 0f       	add	r24, r24
    4f9a:	99 1f       	adc	r25, r25
    4f9c:	2a 95       	dec	r18
    4f9e:	e2 f7       	brpl	.-8      	; 0x4f98 <_ZN16Adafruit_SSD130621drawFastHLineInternalEiiij+0x104>
    4fa0:	8b 83       	std	Y+3, r24	; 0x03
    4fa2:	8c 85       	ldd	r24, Y+12	; 0x0c
    4fa4:	9d 85       	ldd	r25, Y+13	; 0x0d
    4fa6:	81 30       	cpi	r24, 0x01	; 1
    4fa8:	91 05       	cpc	r25, r1
    4faa:	31 f0       	breq	.+12     	; 0x4fb8 <_ZN16Adafruit_SSD130621drawFastHLineInternalEiiij+0x124>
    4fac:	81 30       	cpi	r24, 0x01	; 1
    4fae:	91 05       	cpc	r25, r1
    4fb0:	f8 f0       	brcs	.+62     	; 0x4ff0 <_ZN16Adafruit_SSD130621drawFastHLineInternalEiiij+0x15c>
    4fb2:	02 97       	sbiw	r24, 0x02	; 2
    4fb4:	d9 f1       	breq	.+118    	; 0x502c <_ZN16Adafruit_SSD130621drawFastHLineInternalEiiij+0x198>
    4fb6:	5a c0       	rjmp	.+180    	; 0x506c <_ZN16Adafruit_SSD130621drawFastHLineInternalEiiij+0x1d8>
    4fb8:	8a 85       	ldd	r24, Y+10	; 0x0a
    4fba:	9b 85       	ldd	r25, Y+11	; 0x0b
    4fbc:	9c 01       	movw	r18, r24
    4fbe:	21 50       	subi	r18, 0x01	; 1
    4fc0:	31 09       	sbc	r19, r1
    4fc2:	3b 87       	std	Y+11, r19	; 0x0b
    4fc4:	2a 87       	std	Y+10, r18	; 0x0a
    4fc6:	21 e0       	ldi	r18, 0x01	; 1
    4fc8:	89 2b       	or	r24, r25
    4fca:	09 f4       	brne	.+2      	; 0x4fce <_ZN16Adafruit_SSD130621drawFastHLineInternalEiiij+0x13a>
    4fcc:	20 e0       	ldi	r18, 0x00	; 0
    4fce:	22 23       	and	r18, r18
    4fd0:	09 f4       	brne	.+2      	; 0x4fd4 <_ZN16Adafruit_SSD130621drawFastHLineInternalEiiij+0x140>
    4fd2:	47 c0       	rjmp	.+142    	; 0x5062 <_ZN16Adafruit_SSD130621drawFastHLineInternalEiiij+0x1ce>
    4fd4:	89 81       	ldd	r24, Y+1	; 0x01
    4fd6:	9a 81       	ldd	r25, Y+2	; 0x02
    4fd8:	9c 01       	movw	r18, r24
    4fda:	2f 5f       	subi	r18, 0xFF	; 255
    4fdc:	3f 4f       	sbci	r19, 0xFF	; 255
    4fde:	3a 83       	std	Y+2, r19	; 0x02
    4fe0:	29 83       	std	Y+1, r18	; 0x01
    4fe2:	fc 01       	movw	r30, r24
    4fe4:	30 81       	ld	r19, Z
    4fe6:	2b 81       	ldd	r18, Y+3	; 0x03
    4fe8:	23 2b       	or	r18, r19
    4fea:	fc 01       	movw	r30, r24
    4fec:	20 83       	st	Z, r18
    4fee:	e4 cf       	rjmp	.-56     	; 0x4fb8 <_ZN16Adafruit_SSD130621drawFastHLineInternalEiiij+0x124>
    4ff0:	8b 81       	ldd	r24, Y+3	; 0x03
    4ff2:	80 95       	com	r24
    4ff4:	8b 83       	std	Y+3, r24	; 0x03
    4ff6:	8a 85       	ldd	r24, Y+10	; 0x0a
    4ff8:	9b 85       	ldd	r25, Y+11	; 0x0b
    4ffa:	9c 01       	movw	r18, r24
    4ffc:	21 50       	subi	r18, 0x01	; 1
    4ffe:	31 09       	sbc	r19, r1
    5000:	3b 87       	std	Y+11, r19	; 0x0b
    5002:	2a 87       	std	Y+10, r18	; 0x0a
    5004:	21 e0       	ldi	r18, 0x01	; 1
    5006:	89 2b       	or	r24, r25
    5008:	09 f4       	brne	.+2      	; 0x500c <_ZN16Adafruit_SSD130621drawFastHLineInternalEiiij+0x178>
    500a:	20 e0       	ldi	r18, 0x00	; 0
    500c:	22 23       	and	r18, r18
    500e:	59 f1       	breq	.+86     	; 0x5066 <_ZN16Adafruit_SSD130621drawFastHLineInternalEiiij+0x1d2>
    5010:	89 81       	ldd	r24, Y+1	; 0x01
    5012:	9a 81       	ldd	r25, Y+2	; 0x02
    5014:	9c 01       	movw	r18, r24
    5016:	2f 5f       	subi	r18, 0xFF	; 255
    5018:	3f 4f       	sbci	r19, 0xFF	; 255
    501a:	3a 83       	std	Y+2, r19	; 0x02
    501c:	29 83       	std	Y+1, r18	; 0x01
    501e:	fc 01       	movw	r30, r24
    5020:	30 81       	ld	r19, Z
    5022:	2b 81       	ldd	r18, Y+3	; 0x03
    5024:	23 23       	and	r18, r19
    5026:	fc 01       	movw	r30, r24
    5028:	20 83       	st	Z, r18
    502a:	e5 cf       	rjmp	.-54     	; 0x4ff6 <_ZN16Adafruit_SSD130621drawFastHLineInternalEiiij+0x162>
    502c:	8a 85       	ldd	r24, Y+10	; 0x0a
    502e:	9b 85       	ldd	r25, Y+11	; 0x0b
    5030:	9c 01       	movw	r18, r24
    5032:	21 50       	subi	r18, 0x01	; 1
    5034:	31 09       	sbc	r19, r1
    5036:	3b 87       	std	Y+11, r19	; 0x0b
    5038:	2a 87       	std	Y+10, r18	; 0x0a
    503a:	21 e0       	ldi	r18, 0x01	; 1
    503c:	89 2b       	or	r24, r25
    503e:	09 f4       	brne	.+2      	; 0x5042 <_ZN16Adafruit_SSD130621drawFastHLineInternalEiiij+0x1ae>
    5040:	20 e0       	ldi	r18, 0x00	; 0
    5042:	22 23       	and	r18, r18
    5044:	91 f0       	breq	.+36     	; 0x506a <_ZN16Adafruit_SSD130621drawFastHLineInternalEiiij+0x1d6>
    5046:	89 81       	ldd	r24, Y+1	; 0x01
    5048:	9a 81       	ldd	r25, Y+2	; 0x02
    504a:	9c 01       	movw	r18, r24
    504c:	2f 5f       	subi	r18, 0xFF	; 255
    504e:	3f 4f       	sbci	r19, 0xFF	; 255
    5050:	3a 83       	std	Y+2, r19	; 0x02
    5052:	29 83       	std	Y+1, r18	; 0x01
    5054:	fc 01       	movw	r30, r24
    5056:	30 81       	ld	r19, Z
    5058:	2b 81       	ldd	r18, Y+3	; 0x03
    505a:	23 27       	eor	r18, r19
    505c:	fc 01       	movw	r30, r24
    505e:	20 83       	st	Z, r18
    5060:	e5 cf       	rjmp	.-54     	; 0x502c <_ZN16Adafruit_SSD130621drawFastHLineInternalEiiij+0x198>
    5062:	00 00       	nop
    5064:	03 c0       	rjmp	.+6      	; 0x506c <_ZN16Adafruit_SSD130621drawFastHLineInternalEiiij+0x1d8>
    5066:	00 00       	nop
    5068:	01 c0       	rjmp	.+2      	; 0x506c <_ZN16Adafruit_SSD130621drawFastHLineInternalEiiij+0x1d8>
    506a:	00 00       	nop
    506c:	00 00       	nop
    506e:	2d 96       	adiw	r28, 0x0d	; 13
    5070:	0f b6       	in	r0, 0x3f	; 63
    5072:	f8 94       	cli
    5074:	de bf       	out	0x3e, r29	; 62
    5076:	0f be       	out	0x3f, r0	; 63
    5078:	cd bf       	out	0x3d, r28	; 61
    507a:	df 91       	pop	r29
    507c:	cf 91       	pop	r28
    507e:	1f 91       	pop	r17
    5080:	0f 91       	pop	r16
    5082:	08 95       	ret

00005084 <_ZN16Adafruit_SSD130613drawFastVLineEiiij>:
    5084:	0f 93       	push	r16
    5086:	1f 93       	push	r17
    5088:	cf 93       	push	r28
    508a:	df 93       	push	r29
    508c:	cd b7       	in	r28, 0x3d	; 61
    508e:	de b7       	in	r29, 0x3e	; 62
    5090:	2b 97       	sbiw	r28, 0x0b	; 11
    5092:	0f b6       	in	r0, 0x3f	; 63
    5094:	f8 94       	cli
    5096:	de bf       	out	0x3e, r29	; 62
    5098:	0f be       	out	0x3f, r0	; 63
    509a:	cd bf       	out	0x3d, r28	; 61
    509c:	9b 83       	std	Y+3, r25	; 0x03
    509e:	8a 83       	std	Y+2, r24	; 0x02
    50a0:	7d 83       	std	Y+5, r23	; 0x05
    50a2:	6c 83       	std	Y+4, r22	; 0x04
    50a4:	5f 83       	std	Y+7, r21	; 0x07
    50a6:	4e 83       	std	Y+6, r20	; 0x06
    50a8:	39 87       	std	Y+9, r19	; 0x09
    50aa:	28 87       	std	Y+8, r18	; 0x08
    50ac:	1b 87       	std	Y+11, r17	; 0x0b
    50ae:	0a 87       	std	Y+10, r16	; 0x0a
    50b0:	19 82       	std	Y+1, r1	; 0x01
    50b2:	8a 81       	ldd	r24, Y+2	; 0x02
    50b4:	9b 81       	ldd	r25, Y+3	; 0x03
    50b6:	fc 01       	movw	r30, r24
    50b8:	86 89       	ldd	r24, Z+22	; 0x16
    50ba:	88 2f       	mov	r24, r24
    50bc:	90 e0       	ldi	r25, 0x00	; 0
    50be:	82 30       	cpi	r24, 0x02	; 2
    50c0:	91 05       	cpc	r25, r1
    50c2:	d9 f1       	breq	.+118    	; 0x513a <_ZN16Adafruit_SSD130613drawFastVLineEiiij+0xb6>
    50c4:	83 30       	cpi	r24, 0x03	; 3
    50c6:	91 05       	cpc	r25, r1
    50c8:	09 f4       	brne	.+2      	; 0x50cc <_ZN16Adafruit_SSD130613drawFastVLineEiiij+0x48>
    50ca:	5f c0       	rjmp	.+190    	; 0x518a <_ZN16Adafruit_SSD130613drawFastVLineEiiij+0x106>
    50cc:	01 97       	sbiw	r24, 0x01	; 1
    50ce:	09 f0       	breq	.+2      	; 0x50d2 <_ZN16Adafruit_SSD130613drawFastVLineEiiij+0x4e>
    50d0:	85 c0       	rjmp	.+266    	; 0x51dc <_ZN16Adafruit_SSD130613drawFastVLineEiiij+0x158>
    50d2:	81 e0       	ldi	r24, 0x01	; 1
    50d4:	89 83       	std	Y+1, r24	; 0x01
    50d6:	2c 81       	ldd	r18, Y+4	; 0x04
    50d8:	3d 81       	ldd	r19, Y+5	; 0x05
    50da:	8e 81       	ldd	r24, Y+6	; 0x06
    50dc:	9f 81       	ldd	r25, Y+7	; 0x07
    50de:	82 27       	eor	r24, r18
    50e0:	93 27       	eor	r25, r19
    50e2:	9d 83       	std	Y+5, r25	; 0x05
    50e4:	8c 83       	std	Y+4, r24	; 0x04
    50e6:	2e 81       	ldd	r18, Y+6	; 0x06
    50e8:	3f 81       	ldd	r19, Y+7	; 0x07
    50ea:	8c 81       	ldd	r24, Y+4	; 0x04
    50ec:	9d 81       	ldd	r25, Y+5	; 0x05
    50ee:	82 27       	eor	r24, r18
    50f0:	93 27       	eor	r25, r19
    50f2:	9f 83       	std	Y+7, r25	; 0x07
    50f4:	8e 83       	std	Y+6, r24	; 0x06
    50f6:	2c 81       	ldd	r18, Y+4	; 0x04
    50f8:	3d 81       	ldd	r19, Y+5	; 0x05
    50fa:	8e 81       	ldd	r24, Y+6	; 0x06
    50fc:	9f 81       	ldd	r25, Y+7	; 0x07
    50fe:	82 27       	eor	r24, r18
    5100:	93 27       	eor	r25, r19
    5102:	9d 83       	std	Y+5, r25	; 0x05
    5104:	8c 83       	std	Y+4, r24	; 0x04
    5106:	8a 81       	ldd	r24, Y+2	; 0x02
    5108:	9b 81       	ldd	r25, Y+3	; 0x03
    510a:	fc 01       	movw	r30, r24
    510c:	24 81       	ldd	r18, Z+4	; 0x04
    510e:	35 81       	ldd	r19, Z+5	; 0x05
    5110:	8c 81       	ldd	r24, Y+4	; 0x04
    5112:	9d 81       	ldd	r25, Y+5	; 0x05
    5114:	a9 01       	movw	r20, r18
    5116:	48 1b       	sub	r20, r24
    5118:	59 0b       	sbc	r21, r25
    511a:	ca 01       	movw	r24, r20
    511c:	01 97       	sbiw	r24, 0x01	; 1
    511e:	9d 83       	std	Y+5, r25	; 0x05
    5120:	8c 83       	std	Y+4, r24	; 0x04
    5122:	88 85       	ldd	r24, Y+8	; 0x08
    5124:	99 85       	ldd	r25, Y+9	; 0x09
    5126:	01 97       	sbiw	r24, 0x01	; 1
    5128:	2c 81       	ldd	r18, Y+4	; 0x04
    512a:	3d 81       	ldd	r19, Y+5	; 0x05
    512c:	f9 01       	movw	r30, r18
    512e:	e8 1b       	sub	r30, r24
    5130:	f9 0b       	sbc	r31, r25
    5132:	cf 01       	movw	r24, r30
    5134:	9d 83       	std	Y+5, r25	; 0x05
    5136:	8c 83       	std	Y+4, r24	; 0x04
    5138:	51 c0       	rjmp	.+162    	; 0x51dc <_ZN16Adafruit_SSD130613drawFastVLineEiiij+0x158>
    513a:	8a 81       	ldd	r24, Y+2	; 0x02
    513c:	9b 81       	ldd	r25, Y+3	; 0x03
    513e:	fc 01       	movw	r30, r24
    5140:	24 81       	ldd	r18, Z+4	; 0x04
    5142:	35 81       	ldd	r19, Z+5	; 0x05
    5144:	8c 81       	ldd	r24, Y+4	; 0x04
    5146:	9d 81       	ldd	r25, Y+5	; 0x05
    5148:	a9 01       	movw	r20, r18
    514a:	48 1b       	sub	r20, r24
    514c:	59 0b       	sbc	r21, r25
    514e:	ca 01       	movw	r24, r20
    5150:	01 97       	sbiw	r24, 0x01	; 1
    5152:	9d 83       	std	Y+5, r25	; 0x05
    5154:	8c 83       	std	Y+4, r24	; 0x04
    5156:	8a 81       	ldd	r24, Y+2	; 0x02
    5158:	9b 81       	ldd	r25, Y+3	; 0x03
    515a:	fc 01       	movw	r30, r24
    515c:	26 81       	ldd	r18, Z+6	; 0x06
    515e:	37 81       	ldd	r19, Z+7	; 0x07
    5160:	8e 81       	ldd	r24, Y+6	; 0x06
    5162:	9f 81       	ldd	r25, Y+7	; 0x07
    5164:	a9 01       	movw	r20, r18
    5166:	48 1b       	sub	r20, r24
    5168:	59 0b       	sbc	r21, r25
    516a:	ca 01       	movw	r24, r20
    516c:	01 97       	sbiw	r24, 0x01	; 1
    516e:	9f 83       	std	Y+7, r25	; 0x07
    5170:	8e 83       	std	Y+6, r24	; 0x06
    5172:	88 85       	ldd	r24, Y+8	; 0x08
    5174:	99 85       	ldd	r25, Y+9	; 0x09
    5176:	01 97       	sbiw	r24, 0x01	; 1
    5178:	2e 81       	ldd	r18, Y+6	; 0x06
    517a:	3f 81       	ldd	r19, Y+7	; 0x07
    517c:	f9 01       	movw	r30, r18
    517e:	e8 1b       	sub	r30, r24
    5180:	f9 0b       	sbc	r31, r25
    5182:	cf 01       	movw	r24, r30
    5184:	9f 83       	std	Y+7, r25	; 0x07
    5186:	8e 83       	std	Y+6, r24	; 0x06
    5188:	29 c0       	rjmp	.+82     	; 0x51dc <_ZN16Adafruit_SSD130613drawFastVLineEiiij+0x158>
    518a:	81 e0       	ldi	r24, 0x01	; 1
    518c:	89 83       	std	Y+1, r24	; 0x01
    518e:	2c 81       	ldd	r18, Y+4	; 0x04
    5190:	3d 81       	ldd	r19, Y+5	; 0x05
    5192:	8e 81       	ldd	r24, Y+6	; 0x06
    5194:	9f 81       	ldd	r25, Y+7	; 0x07
    5196:	82 27       	eor	r24, r18
    5198:	93 27       	eor	r25, r19
    519a:	9d 83       	std	Y+5, r25	; 0x05
    519c:	8c 83       	std	Y+4, r24	; 0x04
    519e:	2e 81       	ldd	r18, Y+6	; 0x06
    51a0:	3f 81       	ldd	r19, Y+7	; 0x07
    51a2:	8c 81       	ldd	r24, Y+4	; 0x04
    51a4:	9d 81       	ldd	r25, Y+5	; 0x05
    51a6:	82 27       	eor	r24, r18
    51a8:	93 27       	eor	r25, r19
    51aa:	9f 83       	std	Y+7, r25	; 0x07
    51ac:	8e 83       	std	Y+6, r24	; 0x06
    51ae:	2c 81       	ldd	r18, Y+4	; 0x04
    51b0:	3d 81       	ldd	r19, Y+5	; 0x05
    51b2:	8e 81       	ldd	r24, Y+6	; 0x06
    51b4:	9f 81       	ldd	r25, Y+7	; 0x07
    51b6:	82 27       	eor	r24, r18
    51b8:	93 27       	eor	r25, r19
    51ba:	9d 83       	std	Y+5, r25	; 0x05
    51bc:	8c 83       	std	Y+4, r24	; 0x04
    51be:	8a 81       	ldd	r24, Y+2	; 0x02
    51c0:	9b 81       	ldd	r25, Y+3	; 0x03
    51c2:	fc 01       	movw	r30, r24
    51c4:	26 81       	ldd	r18, Z+6	; 0x06
    51c6:	37 81       	ldd	r19, Z+7	; 0x07
    51c8:	8e 81       	ldd	r24, Y+6	; 0x06
    51ca:	9f 81       	ldd	r25, Y+7	; 0x07
    51cc:	a9 01       	movw	r20, r18
    51ce:	48 1b       	sub	r20, r24
    51d0:	59 0b       	sbc	r21, r25
    51d2:	ca 01       	movw	r24, r20
    51d4:	01 97       	sbiw	r24, 0x01	; 1
    51d6:	9f 83       	std	Y+7, r25	; 0x07
    51d8:	8e 83       	std	Y+6, r24	; 0x06
    51da:	00 00       	nop
    51dc:	89 81       	ldd	r24, Y+1	; 0x01
    51de:	88 23       	and	r24, r24
    51e0:	69 f0       	breq	.+26     	; 0x51fc <_ZN16Adafruit_SSD130613drawFastVLineEiiij+0x178>
    51e2:	ea 85       	ldd	r30, Y+10	; 0x0a
    51e4:	fb 85       	ldd	r31, Y+11	; 0x0b
    51e6:	28 85       	ldd	r18, Y+8	; 0x08
    51e8:	39 85       	ldd	r19, Y+9	; 0x09
    51ea:	4e 81       	ldd	r20, Y+6	; 0x06
    51ec:	5f 81       	ldd	r21, Y+7	; 0x07
    51ee:	6c 81       	ldd	r22, Y+4	; 0x04
    51f0:	7d 81       	ldd	r23, Y+5	; 0x05
    51f2:	8a 81       	ldd	r24, Y+2	; 0x02
    51f4:	9b 81       	ldd	r25, Y+3	; 0x03
    51f6:	8f 01       	movw	r16, r30
    51f8:	4d de       	rcall	.-870    	; 0x4e94 <_ZN16Adafruit_SSD130621drawFastHLineInternalEiiij>
    51fa:	0c c0       	rjmp	.+24     	; 0x5214 <_ZN16Adafruit_SSD130613drawFastVLineEiiij+0x190>
    51fc:	ea 85       	ldd	r30, Y+10	; 0x0a
    51fe:	fb 85       	ldd	r31, Y+11	; 0x0b
    5200:	28 85       	ldd	r18, Y+8	; 0x08
    5202:	39 85       	ldd	r19, Y+9	; 0x09
    5204:	4e 81       	ldd	r20, Y+6	; 0x06
    5206:	5f 81       	ldd	r21, Y+7	; 0x07
    5208:	6c 81       	ldd	r22, Y+4	; 0x04
    520a:	7d 81       	ldd	r23, Y+5	; 0x05
    520c:	8a 81       	ldd	r24, Y+2	; 0x02
    520e:	9b 81       	ldd	r25, Y+3	; 0x03
    5210:	8f 01       	movw	r16, r30
    5212:	0c d0       	rcall	.+24     	; 0x522c <_ZN16Adafruit_SSD130621drawFastVLineInternalEiiij>
    5214:	00 00       	nop
    5216:	2b 96       	adiw	r28, 0x0b	; 11
    5218:	0f b6       	in	r0, 0x3f	; 63
    521a:	f8 94       	cli
    521c:	de bf       	out	0x3e, r29	; 62
    521e:	0f be       	out	0x3f, r0	; 63
    5220:	cd bf       	out	0x3d, r28	; 61
    5222:	df 91       	pop	r29
    5224:	cf 91       	pop	r28
    5226:	1f 91       	pop	r17
    5228:	0f 91       	pop	r16
    522a:	08 95       	ret

0000522c <_ZN16Adafruit_SSD130621drawFastVLineInternalEiiij>:
    522c:	0f 93       	push	r16
    522e:	1f 93       	push	r17
    5230:	cf 93       	push	r28
    5232:	df 93       	push	r29
    5234:	cd b7       	in	r28, 0x3d	; 61
    5236:	de b7       	in	r29, 0x3e	; 62
    5238:	68 97       	sbiw	r28, 0x18	; 24
    523a:	0f b6       	in	r0, 0x3f	; 63
    523c:	f8 94       	cli
    523e:	de bf       	out	0x3e, r29	; 62
    5240:	0f be       	out	0x3f, r0	; 63
    5242:	cd bf       	out	0x3d, r28	; 61
    5244:	98 8b       	std	Y+16, r25	; 0x10
    5246:	8f 87       	std	Y+15, r24	; 0x0f
    5248:	7a 8b       	std	Y+18, r23	; 0x12
    524a:	69 8b       	std	Y+17, r22	; 0x11
    524c:	5c 8b       	std	Y+20, r21	; 0x14
    524e:	4b 8b       	std	Y+19, r20	; 0x13
    5250:	3e 8b       	std	Y+22, r19	; 0x16
    5252:	2d 8b       	std	Y+21, r18	; 0x15
    5254:	18 8f       	std	Y+24, r17	; 0x18
    5256:	0f 8b       	std	Y+23, r16	; 0x17
    5258:	89 89       	ldd	r24, Y+17	; 0x11
    525a:	9a 89       	ldd	r25, Y+18	; 0x12
    525c:	99 23       	and	r25, r25
    525e:	0c f4       	brge	.+2      	; 0x5262 <_ZN16Adafruit_SSD130621drawFastVLineInternalEiiij+0x36>
    5260:	62 c1       	rjmp	.+708    	; 0x5526 <_ZN16Adafruit_SSD130621drawFastVLineInternalEiiij+0x2fa>
    5262:	8f 85       	ldd	r24, Y+15	; 0x0f
    5264:	98 89       	ldd	r25, Y+16	; 0x10
    5266:	fc 01       	movw	r30, r24
    5268:	24 81       	ldd	r18, Z+4	; 0x04
    526a:	35 81       	ldd	r19, Z+5	; 0x05
    526c:	89 89       	ldd	r24, Y+17	; 0x11
    526e:	9a 89       	ldd	r25, Y+18	; 0x12
    5270:	82 17       	cp	r24, r18
    5272:	93 07       	cpc	r25, r19
    5274:	0c f0       	brlt	.+2      	; 0x5278 <_ZN16Adafruit_SSD130621drawFastVLineInternalEiiij+0x4c>
    5276:	57 c1       	rjmp	.+686    	; 0x5526 <_ZN16Adafruit_SSD130621drawFastVLineInternalEiiij+0x2fa>
    5278:	8b 89       	ldd	r24, Y+19	; 0x13
    527a:	9c 89       	ldd	r25, Y+20	; 0x14
    527c:	99 23       	and	r25, r25
    527e:	54 f4       	brge	.+20     	; 0x5294 <_ZN16Adafruit_SSD130621drawFastVLineInternalEiiij+0x68>
    5280:	2d 89       	ldd	r18, Y+21	; 0x15
    5282:	3e 89       	ldd	r19, Y+22	; 0x16
    5284:	8b 89       	ldd	r24, Y+19	; 0x13
    5286:	9c 89       	ldd	r25, Y+20	; 0x14
    5288:	82 0f       	add	r24, r18
    528a:	93 1f       	adc	r25, r19
    528c:	9e 8b       	std	Y+22, r25	; 0x16
    528e:	8d 8b       	std	Y+21, r24	; 0x15
    5290:	1c 8a       	std	Y+20, r1	; 0x14
    5292:	1b 8a       	std	Y+19, r1	; 0x13
    5294:	2b 89       	ldd	r18, Y+19	; 0x13
    5296:	3c 89       	ldd	r19, Y+20	; 0x14
    5298:	8d 89       	ldd	r24, Y+21	; 0x15
    529a:	9e 89       	ldd	r25, Y+22	; 0x16
    529c:	28 0f       	add	r18, r24
    529e:	39 1f       	adc	r19, r25
    52a0:	8f 85       	ldd	r24, Y+15	; 0x0f
    52a2:	98 89       	ldd	r25, Y+16	; 0x10
    52a4:	fc 01       	movw	r30, r24
    52a6:	86 81       	ldd	r24, Z+6	; 0x06
    52a8:	97 81       	ldd	r25, Z+7	; 0x07
    52aa:	82 17       	cp	r24, r18
    52ac:	93 07       	cpc	r25, r19
    52ae:	6c f4       	brge	.+26     	; 0x52ca <_ZN16Adafruit_SSD130621drawFastVLineInternalEiiij+0x9e>
    52b0:	8f 85       	ldd	r24, Y+15	; 0x0f
    52b2:	98 89       	ldd	r25, Y+16	; 0x10
    52b4:	fc 01       	movw	r30, r24
    52b6:	26 81       	ldd	r18, Z+6	; 0x06
    52b8:	37 81       	ldd	r19, Z+7	; 0x07
    52ba:	8b 89       	ldd	r24, Y+19	; 0x13
    52bc:	9c 89       	ldd	r25, Y+20	; 0x14
    52be:	a9 01       	movw	r20, r18
    52c0:	48 1b       	sub	r20, r24
    52c2:	59 0b       	sbc	r21, r25
    52c4:	ca 01       	movw	r24, r20
    52c6:	9e 8b       	std	Y+22, r25	; 0x16
    52c8:	8d 8b       	std	Y+21, r24	; 0x15
    52ca:	8d 89       	ldd	r24, Y+21	; 0x15
    52cc:	9e 89       	ldd	r25, Y+22	; 0x16
    52ce:	18 16       	cp	r1, r24
    52d0:	19 06       	cpc	r1, r25
    52d2:	0c f0       	brlt	.+2      	; 0x52d6 <_ZN16Adafruit_SSD130621drawFastVLineInternalEiiij+0xaa>
    52d4:	28 c1       	rjmp	.+592    	; 0x5526 <_ZN16Adafruit_SSD130621drawFastVLineInternalEiiij+0x2fa>
    52d6:	8b 89       	ldd	r24, Y+19	; 0x13
    52d8:	8e 83       	std	Y+6, r24	; 0x06
    52da:	8d 89       	ldd	r24, Y+21	; 0x15
    52dc:	89 83       	std	Y+1, r24	; 0x01
    52de:	8f 85       	ldd	r24, Y+15	; 0x0f
    52e0:	98 89       	ldd	r25, Y+16	; 0x10
    52e2:	fc 01       	movw	r30, r24
    52e4:	87 8d       	ldd	r24, Z+31	; 0x1f
    52e6:	90 a1       	ldd	r25, Z+32	; 0x20
    52e8:	2e 81       	ldd	r18, Y+6	; 0x06
    52ea:	26 95       	lsr	r18
    52ec:	26 95       	lsr	r18
    52ee:	26 95       	lsr	r18
    52f0:	62 2f       	mov	r22, r18
    52f2:	70 e0       	ldi	r23, 0x00	; 0
    52f4:	2f 85       	ldd	r18, Y+15	; 0x0f
    52f6:	38 89       	ldd	r19, Y+16	; 0x10
    52f8:	f9 01       	movw	r30, r18
    52fa:	24 81       	ldd	r18, Z+4	; 0x04
    52fc:	35 81       	ldd	r19, Z+5	; 0x05
    52fe:	62 9f       	mul	r22, r18
    5300:	a0 01       	movw	r20, r0
    5302:	63 9f       	mul	r22, r19
    5304:	50 0d       	add	r21, r0
    5306:	72 9f       	mul	r23, r18
    5308:	50 0d       	add	r21, r0
    530a:	11 24       	eor	r1, r1
    530c:	29 89       	ldd	r18, Y+17	; 0x11
    530e:	3a 89       	ldd	r19, Y+18	; 0x12
    5310:	24 0f       	add	r18, r20
    5312:	35 1f       	adc	r19, r21
    5314:	82 0f       	add	r24, r18
    5316:	93 1f       	adc	r25, r19
    5318:	9b 83       	std	Y+3, r25	; 0x03
    531a:	8a 83       	std	Y+2, r24	; 0x02
    531c:	8e 81       	ldd	r24, Y+6	; 0x06
    531e:	87 70       	andi	r24, 0x07	; 7
    5320:	8c 83       	std	Y+4, r24	; 0x04
    5322:	8c 81       	ldd	r24, Y+4	; 0x04
    5324:	88 23       	and	r24, r24
    5326:	09 f4       	brne	.+2      	; 0x532a <_ZN16Adafruit_SSD130621drawFastVLineInternalEiiij+0xfe>
    5328:	68 c0       	rjmp	.+208    	; 0x53fa <_ZN16Adafruit_SSD130621drawFastVLineInternalEiiij+0x1ce>
    532a:	98 e0       	ldi	r25, 0x08	; 8
    532c:	8c 81       	ldd	r24, Y+4	; 0x04
    532e:	f9 2f       	mov	r31, r25
    5330:	f8 1b       	sub	r31, r24
    5332:	8f 2f       	mov	r24, r31
    5334:	8c 83       	std	Y+4, r24	; 0x04
    5336:	8c 81       	ldd	r24, Y+4	; 0x04
    5338:	88 2f       	mov	r24, r24
    533a:	90 e0       	ldi	r25, 0x00	; 0
    533c:	82 5d       	subi	r24, 0xD2	; 210
    533e:	92 4f       	sbci	r25, 0xF2	; 242
    5340:	98 87       	std	Y+8, r25	; 0x08
    5342:	8f 83       	std	Y+7, r24	; 0x07
    5344:	8f 81       	ldd	r24, Y+7	; 0x07
    5346:	98 85       	ldd	r25, Y+8	; 0x08
    5348:	fc 01       	movw	r30, r24
    534a:	84 91       	lpm	r24, Z
    534c:	89 87       	std	Y+9, r24	; 0x09
    534e:	89 85       	ldd	r24, Y+9	; 0x09
    5350:	8d 83       	std	Y+5, r24	; 0x05
    5352:	99 81       	ldd	r25, Y+1	; 0x01
    5354:	8c 81       	ldd	r24, Y+4	; 0x04
    5356:	98 17       	cp	r25, r24
    5358:	98 f4       	brcc	.+38     	; 0x5380 <_ZN16Adafruit_SSD130621drawFastVLineInternalEiiij+0x154>
    535a:	8c 81       	ldd	r24, Y+4	; 0x04
    535c:	28 2f       	mov	r18, r24
    535e:	30 e0       	ldi	r19, 0x00	; 0
    5360:	89 81       	ldd	r24, Y+1	; 0x01
    5362:	88 2f       	mov	r24, r24
    5364:	90 e0       	ldi	r25, 0x00	; 0
    5366:	28 1b       	sub	r18, r24
    5368:	39 0b       	sbc	r19, r25
    536a:	8f ef       	ldi	r24, 0xFF	; 255
    536c:	90 e0       	ldi	r25, 0x00	; 0
    536e:	02 c0       	rjmp	.+4      	; 0x5374 <_ZN16Adafruit_SSD130621drawFastVLineInternalEiiij+0x148>
    5370:	95 95       	asr	r25
    5372:	87 95       	ror	r24
    5374:	2a 95       	dec	r18
    5376:	e2 f7       	brpl	.-8      	; 0x5370 <_ZN16Adafruit_SSD130621drawFastVLineInternalEiiij+0x144>
    5378:	98 2f       	mov	r25, r24
    537a:	8d 81       	ldd	r24, Y+5	; 0x05
    537c:	89 23       	and	r24, r25
    537e:	8d 83       	std	Y+5, r24	; 0x05
    5380:	8f 89       	ldd	r24, Y+23	; 0x17
    5382:	98 8d       	ldd	r25, Y+24	; 0x18
    5384:	81 30       	cpi	r24, 0x01	; 1
    5386:	91 05       	cpc	r25, r1
    5388:	31 f0       	breq	.+12     	; 0x5396 <_ZN16Adafruit_SSD130621drawFastVLineInternalEiiij+0x16a>
    538a:	81 30       	cpi	r24, 0x01	; 1
    538c:	91 05       	cpc	r25, r1
    538e:	78 f0       	brcs	.+30     	; 0x53ae <_ZN16Adafruit_SSD130621drawFastVLineInternalEiiij+0x182>
    5390:	02 97       	sbiw	r24, 0x02	; 2
    5392:	d9 f0       	breq	.+54     	; 0x53ca <_ZN16Adafruit_SSD130621drawFastVLineInternalEiiij+0x19e>
    5394:	26 c0       	rjmp	.+76     	; 0x53e2 <_ZN16Adafruit_SSD130621drawFastVLineInternalEiiij+0x1b6>
    5396:	8a 81       	ldd	r24, Y+2	; 0x02
    5398:	9b 81       	ldd	r25, Y+3	; 0x03
    539a:	fc 01       	movw	r30, r24
    539c:	90 81       	ld	r25, Z
    539e:	8d 81       	ldd	r24, Y+5	; 0x05
    53a0:	29 2f       	mov	r18, r25
    53a2:	28 2b       	or	r18, r24
    53a4:	8a 81       	ldd	r24, Y+2	; 0x02
    53a6:	9b 81       	ldd	r25, Y+3	; 0x03
    53a8:	fc 01       	movw	r30, r24
    53aa:	20 83       	st	Z, r18
    53ac:	1a c0       	rjmp	.+52     	; 0x53e2 <_ZN16Adafruit_SSD130621drawFastVLineInternalEiiij+0x1b6>
    53ae:	8a 81       	ldd	r24, Y+2	; 0x02
    53b0:	9b 81       	ldd	r25, Y+3	; 0x03
    53b2:	fc 01       	movw	r30, r24
    53b4:	80 81       	ld	r24, Z
    53b6:	98 2f       	mov	r25, r24
    53b8:	8d 81       	ldd	r24, Y+5	; 0x05
    53ba:	80 95       	com	r24
    53bc:	89 23       	and	r24, r25
    53be:	28 2f       	mov	r18, r24
    53c0:	8a 81       	ldd	r24, Y+2	; 0x02
    53c2:	9b 81       	ldd	r25, Y+3	; 0x03
    53c4:	fc 01       	movw	r30, r24
    53c6:	20 83       	st	Z, r18
    53c8:	0c c0       	rjmp	.+24     	; 0x53e2 <_ZN16Adafruit_SSD130621drawFastVLineInternalEiiij+0x1b6>
    53ca:	8a 81       	ldd	r24, Y+2	; 0x02
    53cc:	9b 81       	ldd	r25, Y+3	; 0x03
    53ce:	fc 01       	movw	r30, r24
    53d0:	90 81       	ld	r25, Z
    53d2:	8d 81       	ldd	r24, Y+5	; 0x05
    53d4:	29 2f       	mov	r18, r25
    53d6:	28 27       	eor	r18, r24
    53d8:	8a 81       	ldd	r24, Y+2	; 0x02
    53da:	9b 81       	ldd	r25, Y+3	; 0x03
    53dc:	fc 01       	movw	r30, r24
    53de:	20 83       	st	Z, r18
    53e0:	00 00       	nop
    53e2:	8f 85       	ldd	r24, Y+15	; 0x0f
    53e4:	98 89       	ldd	r25, Y+16	; 0x10
    53e6:	fc 01       	movw	r30, r24
    53e8:	84 81       	ldd	r24, Z+4	; 0x04
    53ea:	95 81       	ldd	r25, Z+5	; 0x05
    53ec:	9c 01       	movw	r18, r24
    53ee:	8a 81       	ldd	r24, Y+2	; 0x02
    53f0:	9b 81       	ldd	r25, Y+3	; 0x03
    53f2:	82 0f       	add	r24, r18
    53f4:	93 1f       	adc	r25, r19
    53f6:	9b 83       	std	Y+3, r25	; 0x03
    53f8:	8a 83       	std	Y+2, r24	; 0x02
    53fa:	99 81       	ldd	r25, Y+1	; 0x01
    53fc:	8c 81       	ldd	r24, Y+4	; 0x04
    53fe:	98 17       	cp	r25, r24
    5400:	08 f4       	brcc	.+2      	; 0x5404 <_ZN16Adafruit_SSD130621drawFastVLineInternalEiiij+0x1d8>
    5402:	91 c0       	rjmp	.+290    	; 0x5526 <_ZN16Adafruit_SSD130621drawFastVLineInternalEiiij+0x2fa>
    5404:	99 81       	ldd	r25, Y+1	; 0x01
    5406:	8c 81       	ldd	r24, Y+4	; 0x04
    5408:	f9 2f       	mov	r31, r25
    540a:	f8 1b       	sub	r31, r24
    540c:	8f 2f       	mov	r24, r31
    540e:	89 83       	std	Y+1, r24	; 0x01
    5410:	89 81       	ldd	r24, Y+1	; 0x01
    5412:	88 30       	cpi	r24, 0x08	; 8
    5414:	08 f4       	brcc	.+2      	; 0x5418 <_ZN16Adafruit_SSD130621drawFastVLineInternalEiiij+0x1ec>
    5416:	41 c0       	rjmp	.+130    	; 0x549a <_ZN16Adafruit_SSD130621drawFastVLineInternalEiiij+0x26e>
    5418:	8f 89       	ldd	r24, Y+23	; 0x17
    541a:	98 8d       	ldd	r25, Y+24	; 0x18
    541c:	02 97       	sbiw	r24, 0x02	; 2
    541e:	e9 f4       	brne	.+58     	; 0x545a <_ZN16Adafruit_SSD130621drawFastVLineInternalEiiij+0x22e>
    5420:	8a 81       	ldd	r24, Y+2	; 0x02
    5422:	9b 81       	ldd	r25, Y+3	; 0x03
    5424:	fc 01       	movw	r30, r24
    5426:	80 81       	ld	r24, Z
    5428:	28 2f       	mov	r18, r24
    542a:	20 95       	com	r18
    542c:	8a 81       	ldd	r24, Y+2	; 0x02
    542e:	9b 81       	ldd	r25, Y+3	; 0x03
    5430:	fc 01       	movw	r30, r24
    5432:	20 83       	st	Z, r18
    5434:	8f 85       	ldd	r24, Y+15	; 0x0f
    5436:	98 89       	ldd	r25, Y+16	; 0x10
    5438:	fc 01       	movw	r30, r24
    543a:	84 81       	ldd	r24, Z+4	; 0x04
    543c:	95 81       	ldd	r25, Z+5	; 0x05
    543e:	9c 01       	movw	r18, r24
    5440:	8a 81       	ldd	r24, Y+2	; 0x02
    5442:	9b 81       	ldd	r25, Y+3	; 0x03
    5444:	82 0f       	add	r24, r18
    5446:	93 1f       	adc	r25, r19
    5448:	9b 83       	std	Y+3, r25	; 0x03
    544a:	8a 83       	std	Y+2, r24	; 0x02
    544c:	89 81       	ldd	r24, Y+1	; 0x01
    544e:	88 50       	subi	r24, 0x08	; 8
    5450:	89 83       	std	Y+1, r24	; 0x01
    5452:	89 81       	ldd	r24, Y+1	; 0x01
    5454:	88 30       	cpi	r24, 0x08	; 8
    5456:	08 f1       	brcs	.+66     	; 0x549a <_ZN16Adafruit_SSD130621drawFastVLineInternalEiiij+0x26e>
    5458:	e3 cf       	rjmp	.-58     	; 0x5420 <_ZN16Adafruit_SSD130621drawFastVLineInternalEiiij+0x1f4>
    545a:	8f 89       	ldd	r24, Y+23	; 0x17
    545c:	98 8d       	ldd	r25, Y+24	; 0x18
    545e:	89 2b       	or	r24, r25
    5460:	11 f0       	breq	.+4      	; 0x5466 <_ZN16Adafruit_SSD130621drawFastVLineInternalEiiij+0x23a>
    5462:	8f ef       	ldi	r24, 0xFF	; 255
    5464:	01 c0       	rjmp	.+2      	; 0x5468 <_ZN16Adafruit_SSD130621drawFastVLineInternalEiiij+0x23c>
    5466:	80 e0       	ldi	r24, 0x00	; 0
    5468:	8a 87       	std	Y+10, r24	; 0x0a
    546a:	8a 81       	ldd	r24, Y+2	; 0x02
    546c:	9b 81       	ldd	r25, Y+3	; 0x03
    546e:	2a 85       	ldd	r18, Y+10	; 0x0a
    5470:	fc 01       	movw	r30, r24
    5472:	20 83       	st	Z, r18
    5474:	8f 85       	ldd	r24, Y+15	; 0x0f
    5476:	98 89       	ldd	r25, Y+16	; 0x10
    5478:	fc 01       	movw	r30, r24
    547a:	84 81       	ldd	r24, Z+4	; 0x04
    547c:	95 81       	ldd	r25, Z+5	; 0x05
    547e:	9c 01       	movw	r18, r24
    5480:	8a 81       	ldd	r24, Y+2	; 0x02
    5482:	9b 81       	ldd	r25, Y+3	; 0x03
    5484:	82 0f       	add	r24, r18
    5486:	93 1f       	adc	r25, r19
    5488:	9b 83       	std	Y+3, r25	; 0x03
    548a:	8a 83       	std	Y+2, r24	; 0x02
    548c:	89 81       	ldd	r24, Y+1	; 0x01
    548e:	88 50       	subi	r24, 0x08	; 8
    5490:	89 83       	std	Y+1, r24	; 0x01
    5492:	89 81       	ldd	r24, Y+1	; 0x01
    5494:	88 30       	cpi	r24, 0x08	; 8
    5496:	08 f0       	brcs	.+2      	; 0x549a <_ZN16Adafruit_SSD130621drawFastVLineInternalEiiij+0x26e>
    5498:	e8 cf       	rjmp	.-48     	; 0x546a <_ZN16Adafruit_SSD130621drawFastVLineInternalEiiij+0x23e>
    549a:	89 81       	ldd	r24, Y+1	; 0x01
    549c:	88 23       	and	r24, r24
    549e:	09 f4       	brne	.+2      	; 0x54a2 <_ZN16Adafruit_SSD130621drawFastVLineInternalEiiij+0x276>
    54a0:	42 c0       	rjmp	.+132    	; 0x5526 <_ZN16Adafruit_SSD130621drawFastVLineInternalEiiij+0x2fa>
    54a2:	89 81       	ldd	r24, Y+1	; 0x01
    54a4:	87 70       	andi	r24, 0x07	; 7
    54a6:	8c 83       	std	Y+4, r24	; 0x04
    54a8:	8c 81       	ldd	r24, Y+4	; 0x04
    54aa:	88 2f       	mov	r24, r24
    54ac:	90 e0       	ldi	r25, 0x00	; 0
    54ae:	8a 5c       	subi	r24, 0xCA	; 202
    54b0:	92 4f       	sbci	r25, 0xF2	; 242
    54b2:	9c 87       	std	Y+12, r25	; 0x0c
    54b4:	8b 87       	std	Y+11, r24	; 0x0b
    54b6:	8b 85       	ldd	r24, Y+11	; 0x0b
    54b8:	9c 85       	ldd	r25, Y+12	; 0x0c
    54ba:	fc 01       	movw	r30, r24
    54bc:	84 91       	lpm	r24, Z
    54be:	8d 87       	std	Y+13, r24	; 0x0d
    54c0:	8d 85       	ldd	r24, Y+13	; 0x0d
    54c2:	8e 87       	std	Y+14, r24	; 0x0e
    54c4:	8f 89       	ldd	r24, Y+23	; 0x17
    54c6:	98 8d       	ldd	r25, Y+24	; 0x18
    54c8:	81 30       	cpi	r24, 0x01	; 1
    54ca:	91 05       	cpc	r25, r1
    54cc:	31 f0       	breq	.+12     	; 0x54da <_ZN16Adafruit_SSD130621drawFastVLineInternalEiiij+0x2ae>
    54ce:	81 30       	cpi	r24, 0x01	; 1
    54d0:	91 05       	cpc	r25, r1
    54d2:	78 f0       	brcs	.+30     	; 0x54f2 <_ZN16Adafruit_SSD130621drawFastVLineInternalEiiij+0x2c6>
    54d4:	02 97       	sbiw	r24, 0x02	; 2
    54d6:	d9 f0       	breq	.+54     	; 0x550e <_ZN16Adafruit_SSD130621drawFastVLineInternalEiiij+0x2e2>
    54d8:	26 c0       	rjmp	.+76     	; 0x5526 <_ZN16Adafruit_SSD130621drawFastVLineInternalEiiij+0x2fa>
    54da:	8a 81       	ldd	r24, Y+2	; 0x02
    54dc:	9b 81       	ldd	r25, Y+3	; 0x03
    54de:	fc 01       	movw	r30, r24
    54e0:	90 81       	ld	r25, Z
    54e2:	8e 85       	ldd	r24, Y+14	; 0x0e
    54e4:	29 2f       	mov	r18, r25
    54e6:	28 2b       	or	r18, r24
    54e8:	8a 81       	ldd	r24, Y+2	; 0x02
    54ea:	9b 81       	ldd	r25, Y+3	; 0x03
    54ec:	fc 01       	movw	r30, r24
    54ee:	20 83       	st	Z, r18
    54f0:	1a c0       	rjmp	.+52     	; 0x5526 <_ZN16Adafruit_SSD130621drawFastVLineInternalEiiij+0x2fa>
    54f2:	8a 81       	ldd	r24, Y+2	; 0x02
    54f4:	9b 81       	ldd	r25, Y+3	; 0x03
    54f6:	fc 01       	movw	r30, r24
    54f8:	80 81       	ld	r24, Z
    54fa:	98 2f       	mov	r25, r24
    54fc:	8e 85       	ldd	r24, Y+14	; 0x0e
    54fe:	80 95       	com	r24
    5500:	89 23       	and	r24, r25
    5502:	28 2f       	mov	r18, r24
    5504:	8a 81       	ldd	r24, Y+2	; 0x02
    5506:	9b 81       	ldd	r25, Y+3	; 0x03
    5508:	fc 01       	movw	r30, r24
    550a:	20 83       	st	Z, r18
    550c:	0c c0       	rjmp	.+24     	; 0x5526 <_ZN16Adafruit_SSD130621drawFastVLineInternalEiiij+0x2fa>
    550e:	8a 81       	ldd	r24, Y+2	; 0x02
    5510:	9b 81       	ldd	r25, Y+3	; 0x03
    5512:	fc 01       	movw	r30, r24
    5514:	90 81       	ld	r25, Z
    5516:	8e 85       	ldd	r24, Y+14	; 0x0e
    5518:	29 2f       	mov	r18, r25
    551a:	28 27       	eor	r18, r24
    551c:	8a 81       	ldd	r24, Y+2	; 0x02
    551e:	9b 81       	ldd	r25, Y+3	; 0x03
    5520:	fc 01       	movw	r30, r24
    5522:	20 83       	st	Z, r18
    5524:	00 00       	nop
    5526:	00 00       	nop
    5528:	68 96       	adiw	r28, 0x18	; 24
    552a:	0f b6       	in	r0, 0x3f	; 63
    552c:	f8 94       	cli
    552e:	de bf       	out	0x3e, r29	; 62
    5530:	0f be       	out	0x3f, r0	; 63
    5532:	cd bf       	out	0x3d, r28	; 61
    5534:	df 91       	pop	r29
    5536:	cf 91       	pop	r28
    5538:	1f 91       	pop	r17
    553a:	0f 91       	pop	r16
    553c:	08 95       	ret

0000553e <_ZN16Adafruit_SSD13067displayEv>:
    553e:	cf 93       	push	r28
    5540:	df 93       	push	r29
    5542:	cd b7       	in	r28, 0x3d	; 61
    5544:	de b7       	in	r29, 0x3e	; 62
    5546:	2c 97       	sbiw	r28, 0x0c	; 12
    5548:	0f b6       	in	r0, 0x3f	; 63
    554a:	f8 94       	cli
    554c:	de bf       	out	0x3e, r29	; 62
    554e:	0f be       	out	0x3f, r0	; 63
    5550:	cd bf       	out	0x3d, r28	; 61
    5552:	9c 87       	std	Y+12, r25	; 0x0c
    5554:	8b 87       	std	Y+11, r24	; 0x0b
    5556:	8b 85       	ldd	r24, Y+11	; 0x0b
    5558:	9c 85       	ldd	r25, Y+12	; 0x0c
    555a:	fc 01       	movw	r30, r24
    555c:	85 8d       	ldd	r24, Z+29	; 0x1d
    555e:	96 8d       	ldd	r25, Z+30	; 0x1e
    5560:	89 2b       	or	r24, r25
    5562:	91 f0       	breq	.+36     	; 0x5588 <_ZN16Adafruit_SSD13067displayEv+0x4a>
    5564:	8b 85       	ldd	r24, Y+11	; 0x0b
    5566:	9c 85       	ldd	r25, Y+12	; 0x0c
    5568:	fc 01       	movw	r30, r24
    556a:	85 a9       	ldd	r24, Z+53	; 0x35
    556c:	96 a9       	ldd	r25, Z+54	; 0x36
    556e:	a7 a9       	ldd	r26, Z+55	; 0x37
    5570:	b0 ad       	ldd	r27, Z+56	; 0x38
    5572:	2b 85       	ldd	r18, Y+11	; 0x0b
    5574:	3c 85       	ldd	r19, Y+12	; 0x0c
    5576:	f9 01       	movw	r30, r18
    5578:	25 8d       	ldd	r18, Z+29	; 0x1d
    557a:	36 8d       	ldd	r19, Z+30	; 0x1e
    557c:	ac 01       	movw	r20, r24
    557e:	bd 01       	movw	r22, r26
    5580:	c9 01       	movw	r24, r18
    5582:	0e 94 19 0d 	call	0x1a32	; 0x1a32 <_ZN7TwoWire8setClockEm>
    5586:	23 c0       	rjmp	.+70     	; 0x55ce <_ZN16Adafruit_SSD13067displayEv+0x90>
    5588:	8b 85       	ldd	r24, Y+11	; 0x0b
    558a:	9c 85       	ldd	r25, Y+12	; 0x0c
    558c:	fc 01       	movw	r30, r24
    558e:	83 8d       	ldd	r24, Z+27	; 0x1b
    5590:	94 8d       	ldd	r25, Z+28	; 0x1c
    5592:	89 2b       	or	r24, r25
    5594:	39 f0       	breq	.+14     	; 0x55a4 <_ZN16Adafruit_SSD13067displayEv+0x66>
    5596:	8b 85       	ldd	r24, Y+11	; 0x0b
    5598:	9c 85       	ldd	r25, Y+12	; 0x0c
    559a:	fc 01       	movw	r30, r24
    559c:	86 ad       	ldd	r24, Z+62	; 0x3e
    559e:	97 ad       	ldd	r25, Z+63	; 0x3f
    55a0:	0e 94 4b 10 	call	0x2096	; 0x2096 <_ZN8SPIClass16beginTransactionE11SPISettings>
    55a4:	8b 85       	ldd	r24, Y+11	; 0x0b
    55a6:	9c 85       	ldd	r25, Y+12	; 0x0c
    55a8:	fc 01       	movw	r30, r24
    55aa:	87 a5       	ldd	r24, Z+47	; 0x2f
    55ac:	90 a9       	ldd	r25, Z+48	; 0x30
    55ae:	2b 85       	ldd	r18, Y+11	; 0x0b
    55b0:	3c 85       	ldd	r19, Y+12	; 0x0c
    55b2:	f9 01       	movw	r30, r18
    55b4:	27 a5       	ldd	r18, Z+47	; 0x2f
    55b6:	30 a9       	ldd	r19, Z+48	; 0x30
    55b8:	f9 01       	movw	r30, r18
    55ba:	20 81       	ld	r18, Z
    55bc:	42 2f       	mov	r20, r18
    55be:	2b 85       	ldd	r18, Y+11	; 0x0b
    55c0:	3c 85       	ldd	r19, Y+12	; 0x0c
    55c2:	f9 01       	movw	r30, r18
    55c4:	24 a9       	ldd	r18, Z+52	; 0x34
    55c6:	20 95       	com	r18
    55c8:	24 23       	and	r18, r20
    55ca:	fc 01       	movw	r30, r24
    55cc:	20 83       	st	Z, r18
    55ce:	25 e0       	ldi	r18, 0x05	; 5
    55d0:	8b 85       	ldd	r24, Y+11	; 0x0b
    55d2:	9c 85       	ldd	r25, Y+12	; 0x0c
    55d4:	42 2f       	mov	r20, r18
    55d6:	6e e3       	ldi	r22, 0x3E	; 62
    55d8:	7d e0       	ldi	r23, 0x0D	; 13
    55da:	0e 94 9e 1f 	call	0x3f3c	; 0x3f3c <_ZN16Adafruit_SSD130619ssd1306_commandListEPKhh>
    55de:	8b 85       	ldd	r24, Y+11	; 0x0b
    55e0:	9c 85       	ldd	r25, Y+12	; 0x0c
    55e2:	fc 01       	movw	r30, r24
    55e4:	84 81       	ldd	r24, Z+4	; 0x04
    55e6:	95 81       	ldd	r25, Z+5	; 0x05
    55e8:	2f ef       	ldi	r18, 0xFF	; 255
    55ea:	28 0f       	add	r18, r24
    55ec:	8b 85       	ldd	r24, Y+11	; 0x0b
    55ee:	9c 85       	ldd	r25, Y+12	; 0x0c
    55f0:	62 2f       	mov	r22, r18
    55f2:	0e 94 bb 1e 	call	0x3d76	; 0x3d76 <_ZN16Adafruit_SSD130616ssd1306_command1Eh>
    55f6:	8b 85       	ldd	r24, Y+11	; 0x0b
    55f8:	9c 85       	ldd	r25, Y+12	; 0x0c
    55fa:	fc 01       	movw	r30, r24
    55fc:	24 81       	ldd	r18, Z+4	; 0x04
    55fe:	35 81       	ldd	r19, Z+5	; 0x05
    5600:	8b 85       	ldd	r24, Y+11	; 0x0b
    5602:	9c 85       	ldd	r25, Y+12	; 0x0c
    5604:	fc 01       	movw	r30, r24
    5606:	86 81       	ldd	r24, Z+6	; 0x06
    5608:	97 81       	ldd	r25, Z+7	; 0x07
    560a:	07 96       	adiw	r24, 0x07	; 7
    560c:	99 23       	and	r25, r25
    560e:	0c f4       	brge	.+2      	; 0x5612 <_ZN16Adafruit_SSD13067displayEv+0xd4>
    5610:	07 96       	adiw	r24, 0x07	; 7
    5612:	95 95       	asr	r25
    5614:	87 95       	ror	r24
    5616:	95 95       	asr	r25
    5618:	87 95       	ror	r24
    561a:	95 95       	asr	r25
    561c:	87 95       	ror	r24
    561e:	ac 01       	movw	r20, r24
    5620:	24 9f       	mul	r18, r20
    5622:	c0 01       	movw	r24, r0
    5624:	25 9f       	mul	r18, r21
    5626:	90 0d       	add	r25, r0
    5628:	34 9f       	mul	r19, r20
    562a:	90 0d       	add	r25, r0
    562c:	11 24       	eor	r1, r1
    562e:	9a 83       	std	Y+2, r25	; 0x02
    5630:	89 83       	std	Y+1, r24	; 0x01
    5632:	8b 85       	ldd	r24, Y+11	; 0x0b
    5634:	9c 85       	ldd	r25, Y+12	; 0x0c
    5636:	fc 01       	movw	r30, r24
    5638:	87 8d       	ldd	r24, Z+31	; 0x1f
    563a:	90 a1       	ldd	r25, Z+32	; 0x20
    563c:	9c 83       	std	Y+4, r25	; 0x04
    563e:	8b 83       	std	Y+3, r24	; 0x03
    5640:	8b 85       	ldd	r24, Y+11	; 0x0b
    5642:	9c 85       	ldd	r25, Y+12	; 0x0c
    5644:	fc 01       	movw	r30, r24
    5646:	85 8d       	ldd	r24, Z+29	; 0x1d
    5648:	96 8d       	ldd	r25, Z+30	; 0x1e
    564a:	89 2b       	or	r24, r25
    564c:	09 f4       	brne	.+2      	; 0x5650 <_ZN16Adafruit_SSD13067displayEv+0x112>
    564e:	8f c0       	rjmp	.+286    	; 0x576e <_ZN16Adafruit_SSD13067displayEv+0x230>
    5650:	8b 85       	ldd	r24, Y+11	; 0x0b
    5652:	9c 85       	ldd	r25, Y+12	; 0x0c
    5654:	fc 01       	movw	r30, r24
    5656:	81 a1       	ldd	r24, Z+33	; 0x21
    5658:	28 2f       	mov	r18, r24
    565a:	88 0f       	add	r24, r24
    565c:	33 0b       	sbc	r19, r19
    565e:	8b 85       	ldd	r24, Y+11	; 0x0b
    5660:	9c 85       	ldd	r25, Y+12	; 0x0c
    5662:	fc 01       	movw	r30, r24
    5664:	85 8d       	ldd	r24, Z+29	; 0x1d
    5666:	96 8d       	ldd	r25, Z+30	; 0x1e
    5668:	b9 01       	movw	r22, r18
    566a:	0e 94 4f 0d 	call	0x1a9e	; 0x1a9e <_ZN7TwoWire17beginTransmissionEi>
    566e:	8b 85       	ldd	r24, Y+11	; 0x0b
    5670:	9c 85       	ldd	r25, Y+12	; 0x0c
    5672:	fc 01       	movw	r30, r24
    5674:	85 8d       	ldd	r24, Z+29	; 0x1d
    5676:	96 8d       	ldd	r25, Z+30	; 0x1e
    5678:	fc 01       	movw	r30, r24
    567a:	80 81       	ld	r24, Z
    567c:	91 81       	ldd	r25, Z+1	; 0x01
    567e:	fc 01       	movw	r30, r24
    5680:	20 81       	ld	r18, Z
    5682:	31 81       	ldd	r19, Z+1	; 0x01
    5684:	8b 85       	ldd	r24, Y+11	; 0x0b
    5686:	9c 85       	ldd	r25, Y+12	; 0x0c
    5688:	fc 01       	movw	r30, r24
    568a:	85 8d       	ldd	r24, Z+29	; 0x1d
    568c:	96 8d       	ldd	r25, Z+30	; 0x1e
    568e:	60 e4       	ldi	r22, 0x40	; 64
    5690:	f9 01       	movw	r30, r18
    5692:	19 95       	eicall
    5694:	81 e0       	ldi	r24, 0x01	; 1
    5696:	90 e0       	ldi	r25, 0x00	; 0
    5698:	9e 83       	std	Y+6, r25	; 0x06
    569a:	8d 83       	std	Y+5, r24	; 0x05
    569c:	89 81       	ldd	r24, Y+1	; 0x01
    569e:	9a 81       	ldd	r25, Y+2	; 0x02
    56a0:	9c 01       	movw	r18, r24
    56a2:	21 50       	subi	r18, 0x01	; 1
    56a4:	31 09       	sbc	r19, r1
    56a6:	3a 83       	std	Y+2, r19	; 0x02
    56a8:	29 83       	std	Y+1, r18	; 0x01
    56aa:	21 e0       	ldi	r18, 0x01	; 1
    56ac:	89 2b       	or	r24, r25
    56ae:	09 f4       	brne	.+2      	; 0x56b2 <_ZN16Adafruit_SSD13067displayEv+0x174>
    56b0:	20 e0       	ldi	r18, 0x00	; 0
    56b2:	22 23       	and	r18, r18
    56b4:	09 f4       	brne	.+2      	; 0x56b8 <_ZN16Adafruit_SSD13067displayEv+0x17a>
    56b6:	53 c0       	rjmp	.+166    	; 0x575e <_ZN16Adafruit_SSD13067displayEv+0x220>
    56b8:	8d 81       	ldd	r24, Y+5	; 0x05
    56ba:	9e 81       	ldd	r25, Y+6	; 0x06
    56bc:	80 97       	sbiw	r24, 0x20	; 32
    56be:	68 f1       	brcs	.+90     	; 0x571a <_ZN16Adafruit_SSD13067displayEv+0x1dc>
    56c0:	8b 85       	ldd	r24, Y+11	; 0x0b
    56c2:	9c 85       	ldd	r25, Y+12	; 0x0c
    56c4:	fc 01       	movw	r30, r24
    56c6:	85 8d       	ldd	r24, Z+29	; 0x1d
    56c8:	96 8d       	ldd	r25, Z+30	; 0x1e
    56ca:	0e 94 8a 0d 	call	0x1b14	; 0x1b14 <_ZN7TwoWire15endTransmissionEv>
    56ce:	8b 85       	ldd	r24, Y+11	; 0x0b
    56d0:	9c 85       	ldd	r25, Y+12	; 0x0c
    56d2:	fc 01       	movw	r30, r24
    56d4:	81 a1       	ldd	r24, Z+33	; 0x21
    56d6:	28 2f       	mov	r18, r24
    56d8:	88 0f       	add	r24, r24
    56da:	33 0b       	sbc	r19, r19
    56dc:	8b 85       	ldd	r24, Y+11	; 0x0b
    56de:	9c 85       	ldd	r25, Y+12	; 0x0c
    56e0:	fc 01       	movw	r30, r24
    56e2:	85 8d       	ldd	r24, Z+29	; 0x1d
    56e4:	96 8d       	ldd	r25, Z+30	; 0x1e
    56e6:	b9 01       	movw	r22, r18
    56e8:	0e 94 4f 0d 	call	0x1a9e	; 0x1a9e <_ZN7TwoWire17beginTransmissionEi>
    56ec:	8b 85       	ldd	r24, Y+11	; 0x0b
    56ee:	9c 85       	ldd	r25, Y+12	; 0x0c
    56f0:	fc 01       	movw	r30, r24
    56f2:	85 8d       	ldd	r24, Z+29	; 0x1d
    56f4:	96 8d       	ldd	r25, Z+30	; 0x1e
    56f6:	fc 01       	movw	r30, r24
    56f8:	80 81       	ld	r24, Z
    56fa:	91 81       	ldd	r25, Z+1	; 0x01
    56fc:	fc 01       	movw	r30, r24
    56fe:	20 81       	ld	r18, Z
    5700:	31 81       	ldd	r19, Z+1	; 0x01
    5702:	8b 85       	ldd	r24, Y+11	; 0x0b
    5704:	9c 85       	ldd	r25, Y+12	; 0x0c
    5706:	fc 01       	movw	r30, r24
    5708:	85 8d       	ldd	r24, Z+29	; 0x1d
    570a:	96 8d       	ldd	r25, Z+30	; 0x1e
    570c:	60 e4       	ldi	r22, 0x40	; 64
    570e:	f9 01       	movw	r30, r18
    5710:	19 95       	eicall
    5712:	81 e0       	ldi	r24, 0x01	; 1
    5714:	90 e0       	ldi	r25, 0x00	; 0
    5716:	9e 83       	std	Y+6, r25	; 0x06
    5718:	8d 83       	std	Y+5, r24	; 0x05
    571a:	8b 85       	ldd	r24, Y+11	; 0x0b
    571c:	9c 85       	ldd	r25, Y+12	; 0x0c
    571e:	fc 01       	movw	r30, r24
    5720:	85 8d       	ldd	r24, Z+29	; 0x1d
    5722:	96 8d       	ldd	r25, Z+30	; 0x1e
    5724:	fc 01       	movw	r30, r24
    5726:	80 81       	ld	r24, Z
    5728:	91 81       	ldd	r25, Z+1	; 0x01
    572a:	fc 01       	movw	r30, r24
    572c:	20 81       	ld	r18, Z
    572e:	31 81       	ldd	r19, Z+1	; 0x01
    5730:	8b 81       	ldd	r24, Y+3	; 0x03
    5732:	9c 81       	ldd	r25, Y+4	; 0x04
    5734:	ac 01       	movw	r20, r24
    5736:	4f 5f       	subi	r20, 0xFF	; 255
    5738:	5f 4f       	sbci	r21, 0xFF	; 255
    573a:	5c 83       	std	Y+4, r21	; 0x04
    573c:	4b 83       	std	Y+3, r20	; 0x03
    573e:	fc 01       	movw	r30, r24
    5740:	40 81       	ld	r20, Z
    5742:	8b 85       	ldd	r24, Y+11	; 0x0b
    5744:	9c 85       	ldd	r25, Y+12	; 0x0c
    5746:	fc 01       	movw	r30, r24
    5748:	85 8d       	ldd	r24, Z+29	; 0x1d
    574a:	96 8d       	ldd	r25, Z+30	; 0x1e
    574c:	64 2f       	mov	r22, r20
    574e:	f9 01       	movw	r30, r18
    5750:	19 95       	eicall
    5752:	8d 81       	ldd	r24, Y+5	; 0x05
    5754:	9e 81       	ldd	r25, Y+6	; 0x06
    5756:	01 96       	adiw	r24, 0x01	; 1
    5758:	9e 83       	std	Y+6, r25	; 0x06
    575a:	8d 83       	std	Y+5, r24	; 0x05
    575c:	9f cf       	rjmp	.-194    	; 0x569c <_ZN16Adafruit_SSD13067displayEv+0x15e>
    575e:	8b 85       	ldd	r24, Y+11	; 0x0b
    5760:	9c 85       	ldd	r25, Y+12	; 0x0c
    5762:	fc 01       	movw	r30, r24
    5764:	85 8d       	ldd	r24, Z+29	; 0x1d
    5766:	96 8d       	ldd	r25, Z+30	; 0x1e
    5768:	0e 94 8a 0d 	call	0x1b14	; 0x1b14 <_ZN7TwoWire15endTransmissionEv>
    576c:	9c c0       	rjmp	.+312    	; 0x58a6 <_ZN16Adafruit_SSD13067displayEv+0x368>
    576e:	8b 85       	ldd	r24, Y+11	; 0x0b
    5770:	9c 85       	ldd	r25, Y+12	; 0x0c
    5772:	fc 01       	movw	r30, r24
    5774:	85 a5       	ldd	r24, Z+45	; 0x2d
    5776:	96 a5       	ldd	r25, Z+46	; 0x2e
    5778:	2b 85       	ldd	r18, Y+11	; 0x0b
    577a:	3c 85       	ldd	r19, Y+12	; 0x0c
    577c:	f9 01       	movw	r30, r18
    577e:	25 a5       	ldd	r18, Z+45	; 0x2d
    5780:	36 a5       	ldd	r19, Z+46	; 0x2e
    5782:	f9 01       	movw	r30, r18
    5784:	40 81       	ld	r20, Z
    5786:	2b 85       	ldd	r18, Y+11	; 0x0b
    5788:	3c 85       	ldd	r19, Y+12	; 0x0c
    578a:	f9 01       	movw	r30, r18
    578c:	23 a9       	ldd	r18, Z+51	; 0x33
    578e:	24 2b       	or	r18, r20
    5790:	fc 01       	movw	r30, r24
    5792:	20 83       	st	Z, r18
    5794:	89 81       	ldd	r24, Y+1	; 0x01
    5796:	9a 81       	ldd	r25, Y+2	; 0x02
    5798:	9c 01       	movw	r18, r24
    579a:	21 50       	subi	r18, 0x01	; 1
    579c:	31 09       	sbc	r19, r1
    579e:	3a 83       	std	Y+2, r19	; 0x02
    57a0:	29 83       	std	Y+1, r18	; 0x01
    57a2:	21 e0       	ldi	r18, 0x01	; 1
    57a4:	89 2b       	or	r24, r25
    57a6:	09 f4       	brne	.+2      	; 0x57aa <_ZN16Adafruit_SSD13067displayEv+0x26c>
    57a8:	20 e0       	ldi	r18, 0x00	; 0
    57aa:	22 23       	and	r18, r18
    57ac:	09 f4       	brne	.+2      	; 0x57b0 <_ZN16Adafruit_SSD13067displayEv+0x272>
    57ae:	7b c0       	rjmp	.+246    	; 0x58a6 <_ZN16Adafruit_SSD13067displayEv+0x368>
    57b0:	8b 81       	ldd	r24, Y+3	; 0x03
    57b2:	9c 81       	ldd	r25, Y+4	; 0x04
    57b4:	9c 01       	movw	r18, r24
    57b6:	2f 5f       	subi	r18, 0xFF	; 255
    57b8:	3f 4f       	sbci	r19, 0xFF	; 255
    57ba:	3c 83       	std	Y+4, r19	; 0x04
    57bc:	2b 83       	std	Y+3, r18	; 0x03
    57be:	fc 01       	movw	r30, r24
    57c0:	20 81       	ld	r18, Z
    57c2:	8b 85       	ldd	r24, Y+11	; 0x0b
    57c4:	9c 85       	ldd	r25, Y+12	; 0x0c
    57c6:	98 87       	std	Y+8, r25	; 0x08
    57c8:	8f 83       	std	Y+7, r24	; 0x07
    57ca:	29 87       	std	Y+9, r18	; 0x09
    57cc:	8f 81       	ldd	r24, Y+7	; 0x07
    57ce:	98 85       	ldd	r25, Y+8	; 0x08
    57d0:	fc 01       	movw	r30, r24
    57d2:	83 8d       	ldd	r24, Z+27	; 0x1b
    57d4:	94 8d       	ldd	r25, Z+28	; 0x1c
    57d6:	89 2b       	or	r24, r25
    57d8:	21 f0       	breq	.+8      	; 0x57e2 <_ZN16Adafruit_SSD13067displayEv+0x2a4>
    57da:	89 85       	ldd	r24, Y+9	; 0x09
    57dc:	0e 94 6e 1d 	call	0x3adc	; 0x3adc <_ZN8SPIClass8transferEh>
    57e0:	d9 cf       	rjmp	.-78     	; 0x5794 <_ZN16Adafruit_SSD13067displayEv+0x256>
    57e2:	80 e8       	ldi	r24, 0x80	; 128
    57e4:	8a 87       	std	Y+10, r24	; 0x0a
    57e6:	8a 85       	ldd	r24, Y+10	; 0x0a
    57e8:	88 23       	and	r24, r24
    57ea:	a1 f2       	breq	.-88     	; 0x5794 <_ZN16Adafruit_SSD13067displayEv+0x256>
    57ec:	99 85       	ldd	r25, Y+9	; 0x09
    57ee:	8a 85       	ldd	r24, Y+10	; 0x0a
    57f0:	89 23       	and	r24, r25
    57f2:	88 23       	and	r24, r24
    57f4:	a1 f0       	breq	.+40     	; 0x581e <_ZN16Adafruit_SSD13067displayEv+0x2e0>
    57f6:	8f 81       	ldd	r24, Y+7	; 0x07
    57f8:	98 85       	ldd	r25, Y+8	; 0x08
    57fa:	fc 01       	movw	r30, r24
    57fc:	81 a5       	ldd	r24, Z+41	; 0x29
    57fe:	92 a5       	ldd	r25, Z+42	; 0x2a
    5800:	2f 81       	ldd	r18, Y+7	; 0x07
    5802:	38 85       	ldd	r19, Y+8	; 0x08
    5804:	f9 01       	movw	r30, r18
    5806:	21 a5       	ldd	r18, Z+41	; 0x29
    5808:	32 a5       	ldd	r19, Z+42	; 0x2a
    580a:	f9 01       	movw	r30, r18
    580c:	40 81       	ld	r20, Z
    580e:	2f 81       	ldd	r18, Y+7	; 0x07
    5810:	38 85       	ldd	r19, Y+8	; 0x08
    5812:	f9 01       	movw	r30, r18
    5814:	21 a9       	ldd	r18, Z+49	; 0x31
    5816:	24 2b       	or	r18, r20
    5818:	fc 01       	movw	r30, r24
    581a:	20 83       	st	Z, r18
    581c:	15 c0       	rjmp	.+42     	; 0x5848 <_ZN16Adafruit_SSD13067displayEv+0x30a>
    581e:	8f 81       	ldd	r24, Y+7	; 0x07
    5820:	98 85       	ldd	r25, Y+8	; 0x08
    5822:	fc 01       	movw	r30, r24
    5824:	81 a5       	ldd	r24, Z+41	; 0x29
    5826:	92 a5       	ldd	r25, Z+42	; 0x2a
    5828:	2f 81       	ldd	r18, Y+7	; 0x07
    582a:	38 85       	ldd	r19, Y+8	; 0x08
    582c:	f9 01       	movw	r30, r18
    582e:	21 a5       	ldd	r18, Z+41	; 0x29
    5830:	32 a5       	ldd	r19, Z+42	; 0x2a
    5832:	f9 01       	movw	r30, r18
    5834:	20 81       	ld	r18, Z
    5836:	42 2f       	mov	r20, r18
    5838:	2f 81       	ldd	r18, Y+7	; 0x07
    583a:	38 85       	ldd	r19, Y+8	; 0x08
    583c:	f9 01       	movw	r30, r18
    583e:	21 a9       	ldd	r18, Z+49	; 0x31
    5840:	20 95       	com	r18
    5842:	24 23       	and	r18, r20
    5844:	fc 01       	movw	r30, r24
    5846:	20 83       	st	Z, r18
    5848:	8f 81       	ldd	r24, Y+7	; 0x07
    584a:	98 85       	ldd	r25, Y+8	; 0x08
    584c:	fc 01       	movw	r30, r24
    584e:	83 a5       	ldd	r24, Z+43	; 0x2b
    5850:	94 a5       	ldd	r25, Z+44	; 0x2c
    5852:	2f 81       	ldd	r18, Y+7	; 0x07
    5854:	38 85       	ldd	r19, Y+8	; 0x08
    5856:	f9 01       	movw	r30, r18
    5858:	23 a5       	ldd	r18, Z+43	; 0x2b
    585a:	34 a5       	ldd	r19, Z+44	; 0x2c
    585c:	f9 01       	movw	r30, r18
    585e:	40 81       	ld	r20, Z
    5860:	2f 81       	ldd	r18, Y+7	; 0x07
    5862:	38 85       	ldd	r19, Y+8	; 0x08
    5864:	f9 01       	movw	r30, r18
    5866:	22 a9       	ldd	r18, Z+50	; 0x32
    5868:	24 2b       	or	r18, r20
    586a:	fc 01       	movw	r30, r24
    586c:	20 83       	st	Z, r18
    586e:	8f 81       	ldd	r24, Y+7	; 0x07
    5870:	98 85       	ldd	r25, Y+8	; 0x08
    5872:	fc 01       	movw	r30, r24
    5874:	83 a5       	ldd	r24, Z+43	; 0x2b
    5876:	94 a5       	ldd	r25, Z+44	; 0x2c
    5878:	2f 81       	ldd	r18, Y+7	; 0x07
    587a:	38 85       	ldd	r19, Y+8	; 0x08
    587c:	f9 01       	movw	r30, r18
    587e:	23 a5       	ldd	r18, Z+43	; 0x2b
    5880:	34 a5       	ldd	r19, Z+44	; 0x2c
    5882:	f9 01       	movw	r30, r18
    5884:	20 81       	ld	r18, Z
    5886:	42 2f       	mov	r20, r18
    5888:	2f 81       	ldd	r18, Y+7	; 0x07
    588a:	38 85       	ldd	r19, Y+8	; 0x08
    588c:	f9 01       	movw	r30, r18
    588e:	22 a9       	ldd	r18, Z+50	; 0x32
    5890:	20 95       	com	r18
    5892:	24 23       	and	r18, r20
    5894:	fc 01       	movw	r30, r24
    5896:	20 83       	st	Z, r18
    5898:	8a 85       	ldd	r24, Y+10	; 0x0a
    589a:	88 2f       	mov	r24, r24
    589c:	90 e0       	ldi	r25, 0x00	; 0
    589e:	95 95       	asr	r25
    58a0:	87 95       	ror	r24
    58a2:	8a 87       	std	Y+10, r24	; 0x0a
    58a4:	a0 cf       	rjmp	.-192    	; 0x57e6 <_ZN16Adafruit_SSD13067displayEv+0x2a8>
    58a6:	8b 85       	ldd	r24, Y+11	; 0x0b
    58a8:	9c 85       	ldd	r25, Y+12	; 0x0c
    58aa:	fc 01       	movw	r30, r24
    58ac:	85 8d       	ldd	r24, Z+29	; 0x1d
    58ae:	96 8d       	ldd	r25, Z+30	; 0x1e
    58b0:	89 2b       	or	r24, r25
    58b2:	91 f0       	breq	.+36     	; 0x58d8 <_ZN16Adafruit_SSD13067displayEv+0x39a>
    58b4:	8b 85       	ldd	r24, Y+11	; 0x0b
    58b6:	9c 85       	ldd	r25, Y+12	; 0x0c
    58b8:	fc 01       	movw	r30, r24
    58ba:	81 ad       	ldd	r24, Z+57	; 0x39
    58bc:	92 ad       	ldd	r25, Z+58	; 0x3a
    58be:	a3 ad       	ldd	r26, Z+59	; 0x3b
    58c0:	b4 ad       	ldd	r27, Z+60	; 0x3c
    58c2:	2b 85       	ldd	r18, Y+11	; 0x0b
    58c4:	3c 85       	ldd	r19, Y+12	; 0x0c
    58c6:	f9 01       	movw	r30, r18
    58c8:	25 8d       	ldd	r18, Z+29	; 0x1d
    58ca:	36 8d       	ldd	r19, Z+30	; 0x1e
    58cc:	ac 01       	movw	r20, r24
    58ce:	bd 01       	movw	r22, r26
    58d0:	c9 01       	movw	r24, r18
    58d2:	0e 94 19 0d 	call	0x1a32	; 0x1a32 <_ZN7TwoWire8setClockEm>
    58d6:	1c c0       	rjmp	.+56     	; 0x5910 <_ZN16Adafruit_SSD13067displayEv+0x3d2>
    58d8:	8b 85       	ldd	r24, Y+11	; 0x0b
    58da:	9c 85       	ldd	r25, Y+12	; 0x0c
    58dc:	fc 01       	movw	r30, r24
    58de:	87 a5       	ldd	r24, Z+47	; 0x2f
    58e0:	90 a9       	ldd	r25, Z+48	; 0x30
    58e2:	2b 85       	ldd	r18, Y+11	; 0x0b
    58e4:	3c 85       	ldd	r19, Y+12	; 0x0c
    58e6:	f9 01       	movw	r30, r18
    58e8:	27 a5       	ldd	r18, Z+47	; 0x2f
    58ea:	30 a9       	ldd	r19, Z+48	; 0x30
    58ec:	f9 01       	movw	r30, r18
    58ee:	40 81       	ld	r20, Z
    58f0:	2b 85       	ldd	r18, Y+11	; 0x0b
    58f2:	3c 85       	ldd	r19, Y+12	; 0x0c
    58f4:	f9 01       	movw	r30, r18
    58f6:	24 a9       	ldd	r18, Z+52	; 0x34
    58f8:	24 2b       	or	r18, r20
    58fa:	fc 01       	movw	r30, r24
    58fc:	20 83       	st	Z, r18
    58fe:	8b 85       	ldd	r24, Y+11	; 0x0b
    5900:	9c 85       	ldd	r25, Y+12	; 0x0c
    5902:	fc 01       	movw	r30, r24
    5904:	83 8d       	ldd	r24, Z+27	; 0x1b
    5906:	94 8d       	ldd	r25, Z+28	; 0x1c
    5908:	89 2b       	or	r24, r25
    590a:	11 f0       	breq	.+4      	; 0x5910 <_ZN16Adafruit_SSD13067displayEv+0x3d2>
    590c:	0e 94 8d 10 	call	0x211a	; 0x211a <_ZN8SPIClass14endTransactionEv>
    5910:	00 00       	nop
    5912:	2c 96       	adiw	r28, 0x0c	; 12
    5914:	0f b6       	in	r0, 0x3f	; 63
    5916:	f8 94       	cli
    5918:	de bf       	out	0x3e, r29	; 62
    591a:	0f be       	out	0x3f, r0	; 63
    591c:	cd bf       	out	0x3d, r28	; 61
    591e:	df 91       	pop	r29
    5920:	cf 91       	pop	r28
    5922:	08 95       	ret

00005924 <_ZN16Adafruit_SSD130613invertDisplayEb>:
            display() function -- buffer contents are not changed, rather a
            different pixel mode of the display hardware is used. When
            enabled, drawing SSD1306_BLACK (value 0) pixels will actually draw
   white, SSD1306_WHITE (value 1) will draw black.
*/
void Adafruit_SSD1306::invertDisplay(bool i) {
    5924:	cf 93       	push	r28
    5926:	df 93       	push	r29
    5928:	00 d0       	rcall	.+0      	; 0x592a <_ZN16Adafruit_SSD130613invertDisplayEb+0x6>
    592a:	cd b7       	in	r28, 0x3d	; 61
    592c:	de b7       	in	r29, 0x3e	; 62
    592e:	9a 83       	std	Y+2, r25	; 0x02
    5930:	89 83       	std	Y+1, r24	; 0x01
    5932:	6b 83       	std	Y+3, r22	; 0x03
  TRANSACTION_START
    5934:	89 81       	ldd	r24, Y+1	; 0x01
    5936:	9a 81       	ldd	r25, Y+2	; 0x02
    5938:	fc 01       	movw	r30, r24
    593a:	85 8d       	ldd	r24, Z+29	; 0x1d
    593c:	96 8d       	ldd	r25, Z+30	; 0x1e
    593e:	89 2b       	or	r24, r25
    5940:	91 f0       	breq	.+36     	; 0x5966 <_ZN16Adafruit_SSD130613invertDisplayEb+0x42>
    5942:	89 81       	ldd	r24, Y+1	; 0x01
    5944:	9a 81       	ldd	r25, Y+2	; 0x02
    5946:	fc 01       	movw	r30, r24
    5948:	85 a9       	ldd	r24, Z+53	; 0x35
    594a:	96 a9       	ldd	r25, Z+54	; 0x36
    594c:	a7 a9       	ldd	r26, Z+55	; 0x37
    594e:	b0 ad       	ldd	r27, Z+56	; 0x38
    5950:	29 81       	ldd	r18, Y+1	; 0x01
    5952:	3a 81       	ldd	r19, Y+2	; 0x02
    5954:	f9 01       	movw	r30, r18
    5956:	25 8d       	ldd	r18, Z+29	; 0x1d
    5958:	36 8d       	ldd	r19, Z+30	; 0x1e
    595a:	ac 01       	movw	r20, r24
    595c:	bd 01       	movw	r22, r26
    595e:	c9 01       	movw	r24, r18
    5960:	0e 94 19 0d 	call	0x1a32	; 0x1a32 <_ZN7TwoWire8setClockEm>
    5964:	23 c0       	rjmp	.+70     	; 0x59ac <_ZN16Adafruit_SSD130613invertDisplayEb+0x88>
    5966:	89 81       	ldd	r24, Y+1	; 0x01
    5968:	9a 81       	ldd	r25, Y+2	; 0x02
    596a:	fc 01       	movw	r30, r24
    596c:	83 8d       	ldd	r24, Z+27	; 0x1b
    596e:	94 8d       	ldd	r25, Z+28	; 0x1c
    5970:	89 2b       	or	r24, r25
    5972:	39 f0       	breq	.+14     	; 0x5982 <_ZN16Adafruit_SSD130613invertDisplayEb+0x5e>
    5974:	89 81       	ldd	r24, Y+1	; 0x01
    5976:	9a 81       	ldd	r25, Y+2	; 0x02
    5978:	fc 01       	movw	r30, r24
    597a:	86 ad       	ldd	r24, Z+62	; 0x3e
    597c:	97 ad       	ldd	r25, Z+63	; 0x3f
    597e:	0e 94 4b 10 	call	0x2096	; 0x2096 <_ZN8SPIClass16beginTransactionE11SPISettings>
    5982:	89 81       	ldd	r24, Y+1	; 0x01
    5984:	9a 81       	ldd	r25, Y+2	; 0x02
    5986:	fc 01       	movw	r30, r24
    5988:	87 a5       	ldd	r24, Z+47	; 0x2f
    598a:	90 a9       	ldd	r25, Z+48	; 0x30
    598c:	29 81       	ldd	r18, Y+1	; 0x01
    598e:	3a 81       	ldd	r19, Y+2	; 0x02
    5990:	f9 01       	movw	r30, r18
    5992:	27 a5       	ldd	r18, Z+47	; 0x2f
    5994:	30 a9       	ldd	r19, Z+48	; 0x30
    5996:	f9 01       	movw	r30, r18
    5998:	20 81       	ld	r18, Z
    599a:	42 2f       	mov	r20, r18
    599c:	29 81       	ldd	r18, Y+1	; 0x01
    599e:	3a 81       	ldd	r19, Y+2	; 0x02
    59a0:	f9 01       	movw	r30, r18
    59a2:	24 a9       	ldd	r18, Z+52	; 0x34
    59a4:	20 95       	com	r18
    59a6:	24 23       	and	r18, r20
    59a8:	fc 01       	movw	r30, r24
    59aa:	20 83       	st	Z, r18
  ssd1306_command1(i ? SSD1306_INVERTDISPLAY : SSD1306_NORMALDISPLAY);
    59ac:	8b 81       	ldd	r24, Y+3	; 0x03
    59ae:	88 23       	and	r24, r24
    59b0:	11 f0       	breq	.+4      	; 0x59b6 <_ZN16Adafruit_SSD130613invertDisplayEb+0x92>
    59b2:	27 ea       	ldi	r18, 0xA7	; 167
    59b4:	01 c0       	rjmp	.+2      	; 0x59b8 <_ZN16Adafruit_SSD130613invertDisplayEb+0x94>
    59b6:	26 ea       	ldi	r18, 0xA6	; 166
    59b8:	89 81       	ldd	r24, Y+1	; 0x01
    59ba:	9a 81       	ldd	r25, Y+2	; 0x02
    59bc:	62 2f       	mov	r22, r18
    59be:	0e 94 bb 1e 	call	0x3d76	; 0x3d76 <_ZN16Adafruit_SSD130616ssd1306_command1Eh>
  TRANSACTION_END
    59c2:	89 81       	ldd	r24, Y+1	; 0x01
    59c4:	9a 81       	ldd	r25, Y+2	; 0x02
    59c6:	fc 01       	movw	r30, r24
    59c8:	85 8d       	ldd	r24, Z+29	; 0x1d
    59ca:	96 8d       	ldd	r25, Z+30	; 0x1e
    59cc:	89 2b       	or	r24, r25
    59ce:	91 f0       	breq	.+36     	; 0x59f4 <_ZN16Adafruit_SSD130613invertDisplayEb+0xd0>
    59d0:	89 81       	ldd	r24, Y+1	; 0x01
    59d2:	9a 81       	ldd	r25, Y+2	; 0x02
    59d4:	fc 01       	movw	r30, r24
    59d6:	81 ad       	ldd	r24, Z+57	; 0x39
    59d8:	92 ad       	ldd	r25, Z+58	; 0x3a
    59da:	a3 ad       	ldd	r26, Z+59	; 0x3b
    59dc:	b4 ad       	ldd	r27, Z+60	; 0x3c
    59de:	29 81       	ldd	r18, Y+1	; 0x01
    59e0:	3a 81       	ldd	r19, Y+2	; 0x02
    59e2:	f9 01       	movw	r30, r18
    59e4:	25 8d       	ldd	r18, Z+29	; 0x1d
    59e6:	36 8d       	ldd	r19, Z+30	; 0x1e
    59e8:	ac 01       	movw	r20, r24
    59ea:	bd 01       	movw	r22, r26
    59ec:	c9 01       	movw	r24, r18
    59ee:	0e 94 19 0d 	call	0x1a32	; 0x1a32 <_ZN7TwoWire8setClockEm>
}
    59f2:	1c c0       	rjmp	.+56     	; 0x5a2c <_ZN16Adafruit_SSD130613invertDisplayEb+0x108>
   white, SSD1306_WHITE (value 1) will draw black.
*/
void Adafruit_SSD1306::invertDisplay(bool i) {
  TRANSACTION_START
  ssd1306_command1(i ? SSD1306_INVERTDISPLAY : SSD1306_NORMALDISPLAY);
  TRANSACTION_END
    59f4:	89 81       	ldd	r24, Y+1	; 0x01
    59f6:	9a 81       	ldd	r25, Y+2	; 0x02
    59f8:	fc 01       	movw	r30, r24
    59fa:	87 a5       	ldd	r24, Z+47	; 0x2f
    59fc:	90 a9       	ldd	r25, Z+48	; 0x30
    59fe:	29 81       	ldd	r18, Y+1	; 0x01
    5a00:	3a 81       	ldd	r19, Y+2	; 0x02
    5a02:	f9 01       	movw	r30, r18
    5a04:	27 a5       	ldd	r18, Z+47	; 0x2f
    5a06:	30 a9       	ldd	r19, Z+48	; 0x30
    5a08:	f9 01       	movw	r30, r18
    5a0a:	40 81       	ld	r20, Z
    5a0c:	29 81       	ldd	r18, Y+1	; 0x01
    5a0e:	3a 81       	ldd	r19, Y+2	; 0x02
    5a10:	f9 01       	movw	r30, r18
    5a12:	24 a9       	ldd	r18, Z+52	; 0x34
    5a14:	24 2b       	or	r18, r20
    5a16:	fc 01       	movw	r30, r24
    5a18:	20 83       	st	Z, r18
    5a1a:	89 81       	ldd	r24, Y+1	; 0x01
    5a1c:	9a 81       	ldd	r25, Y+2	; 0x02
    5a1e:	fc 01       	movw	r30, r24
    5a20:	83 8d       	ldd	r24, Z+27	; 0x1b
    5a22:	94 8d       	ldd	r25, Z+28	; 0x1c
    5a24:	89 2b       	or	r24, r25
    5a26:	11 f0       	breq	.+4      	; 0x5a2c <_ZN16Adafruit_SSD130613invertDisplayEb+0x108>
    5a28:	0e 94 8d 10 	call	0x211a	; 0x211a <_ZN8SPIClass14endTransactionEv>
}
    5a2c:	00 00       	nop
    5a2e:	0f 90       	pop	r0
    5a30:	0f 90       	pop	r0
    5a32:	0f 90       	pop	r0
    5a34:	df 91       	pop	r29
    5a36:	cf 91       	pop	r28
    5a38:	08 95       	ret

00005a3a <_ZN8SPIClass5beginEv>:
#ifdef SPI_TRANSACTION_MISMATCH_LED
uint8_t SPIClass::inTransactionFlag = 0;
#endif

void SPIClass::begin()
{
    5a3a:	cf 93       	push	r28
    5a3c:	df 93       	push	r29
    5a3e:	cd b7       	in	r28, 0x3d	; 61
    5a40:	de b7       	in	r29, 0x3e	; 62
    5a42:	2f 97       	sbiw	r28, 0x0f	; 15
    5a44:	0f b6       	in	r0, 0x3f	; 63
    5a46:	f8 94       	cli
    5a48:	de bf       	out	0x3e, r29	; 62
    5a4a:	0f be       	out	0x3f, r0	; 63
    5a4c:	cd bf       	out	0x3d, r28	; 61
  uint8_t sreg = SREG;
    5a4e:	8f e5       	ldi	r24, 0x5F	; 95
    5a50:	90 e0       	ldi	r25, 0x00	; 0
    5a52:	fc 01       	movw	r30, r24
    5a54:	80 81       	ld	r24, Z
    5a56:	89 83       	std	Y+1, r24	; 0x01
  noInterrupts(); // Protect from a scheduler and prevent transactionBegin
    5a58:	f8 94       	cli
  if (!initialized) {
    5a5a:	80 91 ba 03 	lds	r24, 0x03BA	; 0x8003ba <_ZN8SPIClass11initializedE>
    5a5e:	88 23       	and	r24, r24
    5a60:	09 f0       	breq	.+2      	; 0x5a64 <_ZN8SPIClass5beginEv+0x2a>
    5a62:	58 c0       	rjmp	.+176    	; 0x5b14 <_ZN8SPIClass5beginEv+0xda>
    // Set SS to high so a connected chip will be "deselected" by default
    uint8_t port = digitalPinToPort(SS);
    5a64:	84 e0       	ldi	r24, 0x04	; 4
    5a66:	9e e0       	ldi	r25, 0x0E	; 14
    5a68:	9b 83       	std	Y+3, r25	; 0x03
    5a6a:	8a 83       	std	Y+2, r24	; 0x02
    5a6c:	8a 81       	ldd	r24, Y+2	; 0x02
    5a6e:	9b 81       	ldd	r25, Y+3	; 0x03
    5a70:	fc 01       	movw	r30, r24
    5a72:	84 91       	lpm	r24, Z
    5a74:	8c 83       	std	Y+4, r24	; 0x04
    5a76:	8c 81       	ldd	r24, Y+4	; 0x04
    5a78:	8d 83       	std	Y+5, r24	; 0x05
    uint8_t bit = digitalPinToBitMask(SS);
    5a7a:	8e eb       	ldi	r24, 0xBE	; 190
    5a7c:	9d e0       	ldi	r25, 0x0D	; 13
    5a7e:	9f 83       	std	Y+7, r25	; 0x07
    5a80:	8e 83       	std	Y+6, r24	; 0x06
    5a82:	8e 81       	ldd	r24, Y+6	; 0x06
    5a84:	9f 81       	ldd	r25, Y+7	; 0x07
    5a86:	fc 01       	movw	r30, r24
    5a88:	84 91       	lpm	r24, Z
    5a8a:	88 87       	std	Y+8, r24	; 0x08
    5a8c:	88 85       	ldd	r24, Y+8	; 0x08
    5a8e:	89 87       	std	Y+9, r24	; 0x09
    volatile uint8_t *reg = portModeRegister(port);
    5a90:	8d 81       	ldd	r24, Y+5	; 0x05
    5a92:	88 2f       	mov	r24, r24
    5a94:	90 e0       	ldi	r25, 0x00	; 0
    5a96:	88 0f       	add	r24, r24
    5a98:	99 1f       	adc	r25, r25
    5a9a:	81 5d       	subi	r24, 0xD1	; 209
    5a9c:	91 4f       	sbci	r25, 0xF1	; 241
    5a9e:	9b 87       	std	Y+11, r25	; 0x0b
    5aa0:	8a 87       	std	Y+10, r24	; 0x0a
    5aa2:	8a 85       	ldd	r24, Y+10	; 0x0a
    5aa4:	9b 85       	ldd	r25, Y+11	; 0x0b
    5aa6:	fc 01       	movw	r30, r24
    5aa8:	25 91       	lpm	r18, Z+
    5aaa:	34 91       	lpm	r19, Z
    5aac:	cf 01       	movw	r24, r30
    5aae:	3d 87       	std	Y+13, r19	; 0x0d
    5ab0:	2c 87       	std	Y+12, r18	; 0x0c
    5ab2:	9b 87       	std	Y+11, r25	; 0x0b
    5ab4:	8a 87       	std	Y+10, r24	; 0x0a
    5ab6:	8c 85       	ldd	r24, Y+12	; 0x0c
    5ab8:	9d 85       	ldd	r25, Y+13	; 0x0d
    5aba:	9f 87       	std	Y+15, r25	; 0x0f
    5abc:	8e 87       	std	Y+14, r24	; 0x0e

    // if the SS pin is not already configured as an output
    // then set it high (to enable the internal pull-up resistor)
    if(!(*reg & bit)){
    5abe:	8e 85       	ldd	r24, Y+14	; 0x0e
    5ac0:	9f 85       	ldd	r25, Y+15	; 0x0f
    5ac2:	fc 01       	movw	r30, r24
    5ac4:	90 81       	ld	r25, Z
    5ac6:	89 85       	ldd	r24, Y+9	; 0x09
    5ac8:	98 23       	and	r25, r24
    5aca:	81 e0       	ldi	r24, 0x01	; 1
    5acc:	99 23       	and	r25, r25
    5ace:	09 f0       	breq	.+2      	; 0x5ad2 <_ZN8SPIClass5beginEv+0x98>
    5ad0:	80 e0       	ldi	r24, 0x00	; 0
    5ad2:	88 23       	and	r24, r24
    5ad4:	21 f0       	breq	.+8      	; 0x5ade <_ZN8SPIClass5beginEv+0xa4>
      digitalWrite(SS, HIGH);
    5ad6:	61 e0       	ldi	r22, 0x01	; 1
    5ad8:	85 e3       	ldi	r24, 0x35	; 53
    5ada:	0e 94 8a 35 	call	0x6b14	; 0x6b14 <digitalWrite>
    }

    // When the SS pin is set as OUTPUT, it can be used as
    // a general purpose output port (it doesn't influence
    // SPI operations).
    pinMode(SS, OUTPUT);
    5ade:	61 e0       	ldi	r22, 0x01	; 1
    5ae0:	85 e3       	ldi	r24, 0x35	; 53
    5ae2:	dc d7       	rcall	.+4024   	; 0x6a9c <pinMode>

    // Warning: if the SS pin ever becomes a LOW INPUT then SPI
    // automatically switches to Slave, so the data direction of
    // the SS pin MUST be kept as OUTPUT.
    SPCR |= _BV(MSTR);
    5ae4:	8c e4       	ldi	r24, 0x4C	; 76
    5ae6:	90 e0       	ldi	r25, 0x00	; 0
    5ae8:	2c e4       	ldi	r18, 0x4C	; 76
    5aea:	30 e0       	ldi	r19, 0x00	; 0
    5aec:	f9 01       	movw	r30, r18
    5aee:	20 81       	ld	r18, Z
    5af0:	20 61       	ori	r18, 0x10	; 16
    5af2:	fc 01       	movw	r30, r24
    5af4:	20 83       	st	Z, r18
    SPCR |= _BV(SPE);
    5af6:	8c e4       	ldi	r24, 0x4C	; 76
    5af8:	90 e0       	ldi	r25, 0x00	; 0
    5afa:	2c e4       	ldi	r18, 0x4C	; 76
    5afc:	30 e0       	ldi	r19, 0x00	; 0
    5afe:	f9 01       	movw	r30, r18
    5b00:	20 81       	ld	r18, Z
    5b02:	20 64       	ori	r18, 0x40	; 64
    5b04:	fc 01       	movw	r30, r24
    5b06:	20 83       	st	Z, r18
    // MISO pin automatically overrides to INPUT.
    // By doing this AFTER enabling SPI, we avoid accidentally
    // clocking in a single bit since the lines go directly
    // from "input" to SPI control.
    // http://code.google.com/p/arduino/issues/detail?id=888
    pinMode(SCK, OUTPUT);
    5b08:	61 e0       	ldi	r22, 0x01	; 1
    5b0a:	84 e3       	ldi	r24, 0x34	; 52
    5b0c:	c7 d7       	rcall	.+3982   	; 0x6a9c <pinMode>
    pinMode(MOSI, OUTPUT);
    5b0e:	61 e0       	ldi	r22, 0x01	; 1
    5b10:	83 e3       	ldi	r24, 0x33	; 51
    5b12:	c4 d7       	rcall	.+3976   	; 0x6a9c <pinMode>
  }
  initialized++; // reference count
    5b14:	80 91 ba 03 	lds	r24, 0x03BA	; 0x8003ba <_ZN8SPIClass11initializedE>
    5b18:	8f 5f       	subi	r24, 0xFF	; 255
    5b1a:	80 93 ba 03 	sts	0x03BA, r24	; 0x8003ba <_ZN8SPIClass11initializedE>
  SREG = sreg;
    5b1e:	8f e5       	ldi	r24, 0x5F	; 95
    5b20:	90 e0       	ldi	r25, 0x00	; 0
    5b22:	29 81       	ldd	r18, Y+1	; 0x01
    5b24:	fc 01       	movw	r30, r24
    5b26:	20 83       	st	Z, r18
}
    5b28:	00 00       	nop
    5b2a:	2f 96       	adiw	r28, 0x0f	; 15
    5b2c:	0f b6       	in	r0, 0x3f	; 63
    5b2e:	f8 94       	cli
    5b30:	de bf       	out	0x3e, r29	; 62
    5b32:	0f be       	out	0x3f, r0	; 63
    5b34:	cd bf       	out	0x3d, r28	; 61
    5b36:	df 91       	pop	r29
    5b38:	cf 91       	pop	r28
    5b3a:	08 95       	ret

00005b3c <_ZL17handle_interrupts18timer16_Sequence_tPVjS1_>:
#define SERVO_MAX() (MAX_PULSE_WIDTH - this->max * 4)  // maximum value in us for this servo

/************ static functions common to all instances ***********************/

static inline void handle_interrupts(timer16_Sequence_t timer, volatile uint16_t *TCNTn, volatile uint16_t* OCRnA)
{
    5b3c:	cf 93       	push	r28
    5b3e:	df 93       	push	r29
    5b40:	00 d0       	rcall	.+0      	; 0x5b42 <_ZL17handle_interrupts18timer16_Sequence_tPVjS1_+0x6>
    5b42:	1f 92       	push	r1
    5b44:	1f 92       	push	r1
    5b46:	cd b7       	in	r28, 0x3d	; 61
    5b48:	de b7       	in	r29, 0x3e	; 62
    5b4a:	89 83       	std	Y+1, r24	; 0x01
    5b4c:	7b 83       	std	Y+3, r23	; 0x03
    5b4e:	6a 83       	std	Y+2, r22	; 0x02
    5b50:	5d 83       	std	Y+5, r21	; 0x05
    5b52:	4c 83       	std	Y+4, r20	; 0x04
  if( Channel[timer] < 0 )
    5b54:	89 81       	ldd	r24, Y+1	; 0x01
    5b56:	88 2f       	mov	r24, r24
    5b58:	90 e0       	ldi	r25, 0x00	; 0
    5b5a:	82 5b       	subi	r24, 0xB2	; 178
    5b5c:	9b 4f       	sbci	r25, 0xFB	; 251
    5b5e:	fc 01       	movw	r30, r24
    5b60:	80 81       	ld	r24, Z
    5b62:	88 1f       	adc	r24, r24
    5b64:	88 27       	eor	r24, r24
    5b66:	88 1f       	adc	r24, r24
    5b68:	88 23       	and	r24, r24
    5b6a:	31 f0       	breq	.+12     	; 0x5b78 <_ZL17handle_interrupts18timer16_Sequence_tPVjS1_+0x3c>
    *TCNTn = 0; // channel set to -1 indicated that refresh interval completed so reset the timer
    5b6c:	8a 81       	ldd	r24, Y+2	; 0x02
    5b6e:	9b 81       	ldd	r25, Y+3	; 0x03
    5b70:	fc 01       	movw	r30, r24
    5b72:	11 82       	std	Z+1, r1	; 0x01
    5b74:	10 82       	st	Z, r1
    5b76:	71 c0       	rjmp	.+226    	; 0x5c5a <_ZL17handle_interrupts18timer16_Sequence_tPVjS1_+0x11e>
  else{
    if( SERVO_INDEX(timer,Channel[timer]) < ServoCount && SERVO(timer,Channel[timer]).Pin.isActive == true )
    5b78:	89 81       	ldd	r24, Y+1	; 0x01
    5b7a:	28 2f       	mov	r18, r24
    5b7c:	30 e0       	ldi	r19, 0x00	; 0
    5b7e:	c9 01       	movw	r24, r18
    5b80:	88 0f       	add	r24, r24
    5b82:	99 1f       	adc	r25, r25
    5b84:	82 0f       	add	r24, r18
    5b86:	93 1f       	adc	r25, r19
    5b88:	88 0f       	add	r24, r24
    5b8a:	99 1f       	adc	r25, r25
    5b8c:	88 0f       	add	r24, r24
    5b8e:	99 1f       	adc	r25, r25
    5b90:	9c 01       	movw	r18, r24
    5b92:	89 81       	ldd	r24, Y+1	; 0x01
    5b94:	88 2f       	mov	r24, r24
    5b96:	90 e0       	ldi	r25, 0x00	; 0
    5b98:	82 5b       	subi	r24, 0xB2	; 178
    5b9a:	9b 4f       	sbci	r25, 0xFB	; 251
    5b9c:	fc 01       	movw	r30, r24
    5b9e:	80 81       	ld	r24, Z
    5ba0:	08 2e       	mov	r0, r24
    5ba2:	00 0c       	add	r0, r0
    5ba4:	99 0b       	sbc	r25, r25
    5ba6:	28 0f       	add	r18, r24
    5ba8:	39 1f       	adc	r19, r25
    5baa:	80 91 52 04 	lds	r24, 0x0452	; 0x800452 <ServoCount>
    5bae:	88 2f       	mov	r24, r24
    5bb0:	90 e0       	ldi	r25, 0x00	; 0
    5bb2:	28 17       	cp	r18, r24
    5bb4:	39 07       	cpc	r19, r25
    5bb6:	4c f5       	brge	.+82     	; 0x5c0a <_ZL17handle_interrupts18timer16_Sequence_tPVjS1_+0xce>
    5bb8:	89 81       	ldd	r24, Y+1	; 0x01
    5bba:	28 2f       	mov	r18, r24
    5bbc:	30 e0       	ldi	r19, 0x00	; 0
    5bbe:	c9 01       	movw	r24, r18
    5bc0:	88 0f       	add	r24, r24
    5bc2:	99 1f       	adc	r25, r25
    5bc4:	82 0f       	add	r24, r18
    5bc6:	93 1f       	adc	r25, r19
    5bc8:	88 0f       	add	r24, r24
    5bca:	99 1f       	adc	r25, r25
    5bcc:	88 0f       	add	r24, r24
    5bce:	99 1f       	adc	r25, r25
    5bd0:	9c 01       	movw	r18, r24
    5bd2:	89 81       	ldd	r24, Y+1	; 0x01
    5bd4:	88 2f       	mov	r24, r24
    5bd6:	90 e0       	ldi	r25, 0x00	; 0
    5bd8:	82 5b       	subi	r24, 0xB2	; 178
    5bda:	9b 4f       	sbci	r25, 0xFB	; 251
    5bdc:	fc 01       	movw	r30, r24
    5bde:	80 81       	ld	r24, Z
    5be0:	08 2e       	mov	r0, r24
    5be2:	00 0c       	add	r0, r0
    5be4:	99 0b       	sbc	r25, r25
    5be6:	28 0f       	add	r18, r24
    5be8:	39 1f       	adc	r19, r25
    5bea:	c9 01       	movw	r24, r18
    5bec:	88 0f       	add	r24, r24
    5bee:	99 1f       	adc	r25, r25
    5bf0:	82 0f       	add	r24, r18
    5bf2:	93 1f       	adc	r25, r19
    5bf4:	82 54       	subi	r24, 0x42	; 66
    5bf6:	9c 4f       	sbci	r25, 0xFC	; 252
    5bf8:	fc 01       	movw	r30, r24
    5bfa:	80 81       	ld	r24, Z
    5bfc:	86 fb       	bst	r24, 6
    5bfe:	88 27       	eor	r24, r24
    5c00:	80 f9       	bld	r24, 0
    5c02:	81 30       	cpi	r24, 0x01	; 1
    5c04:	11 f4       	brne	.+4      	; 0x5c0a <_ZL17handle_interrupts18timer16_Sequence_tPVjS1_+0xce>
    5c06:	81 e0       	ldi	r24, 0x01	; 1
    5c08:	01 c0       	rjmp	.+2      	; 0x5c0c <_ZL17handle_interrupts18timer16_Sequence_tPVjS1_+0xd0>
    5c0a:	80 e0       	ldi	r24, 0x00	; 0
    5c0c:	88 23       	and	r24, r24
    5c0e:	29 f1       	breq	.+74     	; 0x5c5a <_ZL17handle_interrupts18timer16_Sequence_tPVjS1_+0x11e>
      digitalWrite( SERVO(timer,Channel[timer]).Pin.nbr,LOW); // pulse this channel low if activated
    5c10:	89 81       	ldd	r24, Y+1	; 0x01
    5c12:	28 2f       	mov	r18, r24
    5c14:	30 e0       	ldi	r19, 0x00	; 0
    5c16:	c9 01       	movw	r24, r18
    5c18:	88 0f       	add	r24, r24
    5c1a:	99 1f       	adc	r25, r25
    5c1c:	82 0f       	add	r24, r18
    5c1e:	93 1f       	adc	r25, r19
    5c20:	88 0f       	add	r24, r24
    5c22:	99 1f       	adc	r25, r25
    5c24:	88 0f       	add	r24, r24
    5c26:	99 1f       	adc	r25, r25
    5c28:	9c 01       	movw	r18, r24
    5c2a:	89 81       	ldd	r24, Y+1	; 0x01
    5c2c:	88 2f       	mov	r24, r24
    5c2e:	90 e0       	ldi	r25, 0x00	; 0
    5c30:	82 5b       	subi	r24, 0xB2	; 178
    5c32:	9b 4f       	sbci	r25, 0xFB	; 251
    5c34:	fc 01       	movw	r30, r24
    5c36:	80 81       	ld	r24, Z
    5c38:	08 2e       	mov	r0, r24
    5c3a:	00 0c       	add	r0, r0
    5c3c:	99 0b       	sbc	r25, r25
    5c3e:	28 0f       	add	r18, r24
    5c40:	39 1f       	adc	r19, r25
    5c42:	c9 01       	movw	r24, r18
    5c44:	88 0f       	add	r24, r24
    5c46:	99 1f       	adc	r25, r25
    5c48:	82 0f       	add	r24, r18
    5c4a:	93 1f       	adc	r25, r19
    5c4c:	82 54       	subi	r24, 0x42	; 66
    5c4e:	9c 4f       	sbci	r25, 0xFC	; 252
    5c50:	fc 01       	movw	r30, r24
    5c52:	80 81       	ld	r24, Z
    5c54:	8f 73       	andi	r24, 0x3F	; 63
    5c56:	60 e0       	ldi	r22, 0x00	; 0
    5c58:	5d d7       	rcall	.+3770   	; 0x6b14 <digitalWrite>
  }

  Channel[timer]++;    // increment to the next channel
    5c5a:	89 81       	ldd	r24, Y+1	; 0x01
    5c5c:	88 2f       	mov	r24, r24
    5c5e:	90 e0       	ldi	r25, 0x00	; 0
    5c60:	9c 01       	movw	r18, r24
    5c62:	22 5b       	subi	r18, 0xB2	; 178
    5c64:	3b 4f       	sbci	r19, 0xFB	; 251
    5c66:	f9 01       	movw	r30, r18
    5c68:	20 81       	ld	r18, Z
    5c6a:	2f 5f       	subi	r18, 0xFF	; 255
    5c6c:	82 5b       	subi	r24, 0xB2	; 178
    5c6e:	9b 4f       	sbci	r25, 0xFB	; 251
    5c70:	fc 01       	movw	r30, r24
    5c72:	20 83       	st	Z, r18
  if( SERVO_INDEX(timer,Channel[timer]) < ServoCount && Channel[timer] < SERVOS_PER_TIMER) {
    5c74:	89 81       	ldd	r24, Y+1	; 0x01
    5c76:	28 2f       	mov	r18, r24
    5c78:	30 e0       	ldi	r19, 0x00	; 0
    5c7a:	c9 01       	movw	r24, r18
    5c7c:	88 0f       	add	r24, r24
    5c7e:	99 1f       	adc	r25, r25
    5c80:	82 0f       	add	r24, r18
    5c82:	93 1f       	adc	r25, r19
    5c84:	88 0f       	add	r24, r24
    5c86:	99 1f       	adc	r25, r25
    5c88:	88 0f       	add	r24, r24
    5c8a:	99 1f       	adc	r25, r25
    5c8c:	9c 01       	movw	r18, r24
    5c8e:	89 81       	ldd	r24, Y+1	; 0x01
    5c90:	88 2f       	mov	r24, r24
    5c92:	90 e0       	ldi	r25, 0x00	; 0
    5c94:	82 5b       	subi	r24, 0xB2	; 178
    5c96:	9b 4f       	sbci	r25, 0xFB	; 251
    5c98:	fc 01       	movw	r30, r24
    5c9a:	80 81       	ld	r24, Z
    5c9c:	08 2e       	mov	r0, r24
    5c9e:	00 0c       	add	r0, r0
    5ca0:	99 0b       	sbc	r25, r25
    5ca2:	28 0f       	add	r18, r24
    5ca4:	39 1f       	adc	r19, r25
    5ca6:	80 91 52 04 	lds	r24, 0x0452	; 0x800452 <ServoCount>
    5caa:	88 2f       	mov	r24, r24
    5cac:	90 e0       	ldi	r25, 0x00	; 0
    5cae:	28 17       	cp	r18, r24
    5cb0:	39 07       	cpc	r19, r25
    5cb2:	5c f4       	brge	.+22     	; 0x5cca <_ZL17handle_interrupts18timer16_Sequence_tPVjS1_+0x18e>
    5cb4:	89 81       	ldd	r24, Y+1	; 0x01
    5cb6:	88 2f       	mov	r24, r24
    5cb8:	90 e0       	ldi	r25, 0x00	; 0
    5cba:	82 5b       	subi	r24, 0xB2	; 178
    5cbc:	9b 4f       	sbci	r25, 0xFB	; 251
    5cbe:	fc 01       	movw	r30, r24
    5cc0:	80 81       	ld	r24, Z
    5cc2:	8c 30       	cpi	r24, 0x0C	; 12
    5cc4:	14 f4       	brge	.+4      	; 0x5cca <_ZL17handle_interrupts18timer16_Sequence_tPVjS1_+0x18e>
    5cc6:	81 e0       	ldi	r24, 0x01	; 1
    5cc8:	01 c0       	rjmp	.+2      	; 0x5ccc <_ZL17handle_interrupts18timer16_Sequence_tPVjS1_+0x190>
    5cca:	80 e0       	ldi	r24, 0x00	; 0
    5ccc:	88 23       	and	r24, r24
    5cce:	09 f4       	brne	.+2      	; 0x5cd2 <_ZL17handle_interrupts18timer16_Sequence_tPVjS1_+0x196>
    5cd0:	7e c0       	rjmp	.+252    	; 0x5dce <_ZL17handle_interrupts18timer16_Sequence_tPVjS1_+0x292>
    *OCRnA = *TCNTn + SERVO(timer,Channel[timer]).ticks;
    5cd2:	8a 81       	ldd	r24, Y+2	; 0x02
    5cd4:	9b 81       	ldd	r25, Y+3	; 0x03
    5cd6:	fc 01       	movw	r30, r24
    5cd8:	40 81       	ld	r20, Z
    5cda:	51 81       	ldd	r21, Z+1	; 0x01
    5cdc:	89 81       	ldd	r24, Y+1	; 0x01
    5cde:	28 2f       	mov	r18, r24
    5ce0:	30 e0       	ldi	r19, 0x00	; 0
    5ce2:	c9 01       	movw	r24, r18
    5ce4:	88 0f       	add	r24, r24
    5ce6:	99 1f       	adc	r25, r25
    5ce8:	82 0f       	add	r24, r18
    5cea:	93 1f       	adc	r25, r19
    5cec:	88 0f       	add	r24, r24
    5cee:	99 1f       	adc	r25, r25
    5cf0:	88 0f       	add	r24, r24
    5cf2:	99 1f       	adc	r25, r25
    5cf4:	9c 01       	movw	r18, r24
    5cf6:	89 81       	ldd	r24, Y+1	; 0x01
    5cf8:	88 2f       	mov	r24, r24
    5cfa:	90 e0       	ldi	r25, 0x00	; 0
    5cfc:	82 5b       	subi	r24, 0xB2	; 178
    5cfe:	9b 4f       	sbci	r25, 0xFB	; 251
    5d00:	fc 01       	movw	r30, r24
    5d02:	80 81       	ld	r24, Z
    5d04:	08 2e       	mov	r0, r24
    5d06:	00 0c       	add	r0, r0
    5d08:	99 0b       	sbc	r25, r25
    5d0a:	28 0f       	add	r18, r24
    5d0c:	39 1f       	adc	r19, r25
    5d0e:	c9 01       	movw	r24, r18
    5d10:	88 0f       	add	r24, r24
    5d12:	99 1f       	adc	r25, r25
    5d14:	82 0f       	add	r24, r18
    5d16:	93 1f       	adc	r25, r19
    5d18:	81 54       	subi	r24, 0x41	; 65
    5d1a:	9c 4f       	sbci	r25, 0xFC	; 252
    5d1c:	fc 01       	movw	r30, r24
    5d1e:	80 81       	ld	r24, Z
    5d20:	91 81       	ldd	r25, Z+1	; 0x01
    5d22:	9a 01       	movw	r18, r20
    5d24:	28 0f       	add	r18, r24
    5d26:	39 1f       	adc	r19, r25
    5d28:	8c 81       	ldd	r24, Y+4	; 0x04
    5d2a:	9d 81       	ldd	r25, Y+5	; 0x05
    5d2c:	fc 01       	movw	r30, r24
    5d2e:	31 83       	std	Z+1, r19	; 0x01
    5d30:	20 83       	st	Z, r18
    if(SERVO(timer,Channel[timer]).Pin.isActive == true)     // check if activated
    5d32:	89 81       	ldd	r24, Y+1	; 0x01
    5d34:	28 2f       	mov	r18, r24
    5d36:	30 e0       	ldi	r19, 0x00	; 0
    5d38:	c9 01       	movw	r24, r18
    5d3a:	88 0f       	add	r24, r24
    5d3c:	99 1f       	adc	r25, r25
    5d3e:	82 0f       	add	r24, r18
    5d40:	93 1f       	adc	r25, r19
    5d42:	88 0f       	add	r24, r24
    5d44:	99 1f       	adc	r25, r25
    5d46:	88 0f       	add	r24, r24
    5d48:	99 1f       	adc	r25, r25
    5d4a:	9c 01       	movw	r18, r24
    5d4c:	89 81       	ldd	r24, Y+1	; 0x01
    5d4e:	88 2f       	mov	r24, r24
    5d50:	90 e0       	ldi	r25, 0x00	; 0
    5d52:	82 5b       	subi	r24, 0xB2	; 178
    5d54:	9b 4f       	sbci	r25, 0xFB	; 251
    5d56:	fc 01       	movw	r30, r24
    5d58:	80 81       	ld	r24, Z
    5d5a:	08 2e       	mov	r0, r24
    5d5c:	00 0c       	add	r0, r0
    5d5e:	99 0b       	sbc	r25, r25
    5d60:	28 0f       	add	r18, r24
    5d62:	39 1f       	adc	r19, r25
    5d64:	c9 01       	movw	r24, r18
    5d66:	88 0f       	add	r24, r24
    5d68:	99 1f       	adc	r25, r25
    5d6a:	82 0f       	add	r24, r18
    5d6c:	93 1f       	adc	r25, r19
    5d6e:	82 54       	subi	r24, 0x42	; 66
    5d70:	9c 4f       	sbci	r25, 0xFC	; 252
    5d72:	fc 01       	movw	r30, r24
    5d74:	80 81       	ld	r24, Z
    5d76:	86 fb       	bst	r24, 6
    5d78:	88 27       	eor	r24, r24
    5d7a:	80 f9       	bld	r24, 0
    5d7c:	88 23       	and	r24, r24
    5d7e:	09 f4       	brne	.+2      	; 0x5d82 <_ZL17handle_interrupts18timer16_Sequence_tPVjS1_+0x246>
    5d80:	50 c0       	rjmp	.+160    	; 0x5e22 <_ZL17handle_interrupts18timer16_Sequence_tPVjS1_+0x2e6>
      digitalWrite( SERVO(timer,Channel[timer]).Pin.nbr,HIGH); // its an active channel so pulse it high
    5d82:	89 81       	ldd	r24, Y+1	; 0x01
    5d84:	28 2f       	mov	r18, r24
    5d86:	30 e0       	ldi	r19, 0x00	; 0
    5d88:	c9 01       	movw	r24, r18
    5d8a:	88 0f       	add	r24, r24
    5d8c:	99 1f       	adc	r25, r25
    5d8e:	82 0f       	add	r24, r18
    5d90:	93 1f       	adc	r25, r19
    5d92:	88 0f       	add	r24, r24
    5d94:	99 1f       	adc	r25, r25
    5d96:	88 0f       	add	r24, r24
    5d98:	99 1f       	adc	r25, r25
    5d9a:	9c 01       	movw	r18, r24
    5d9c:	89 81       	ldd	r24, Y+1	; 0x01
    5d9e:	88 2f       	mov	r24, r24
    5da0:	90 e0       	ldi	r25, 0x00	; 0
    5da2:	82 5b       	subi	r24, 0xB2	; 178
    5da4:	9b 4f       	sbci	r25, 0xFB	; 251
    5da6:	fc 01       	movw	r30, r24
    5da8:	80 81       	ld	r24, Z
    5daa:	08 2e       	mov	r0, r24
    5dac:	00 0c       	add	r0, r0
    5dae:	99 0b       	sbc	r25, r25
    5db0:	28 0f       	add	r18, r24
    5db2:	39 1f       	adc	r19, r25
    5db4:	c9 01       	movw	r24, r18
    5db6:	88 0f       	add	r24, r24
    5db8:	99 1f       	adc	r25, r25
    5dba:	82 0f       	add	r24, r18
    5dbc:	93 1f       	adc	r25, r19
    5dbe:	82 54       	subi	r24, 0x42	; 66
    5dc0:	9c 4f       	sbci	r25, 0xFC	; 252
    5dc2:	fc 01       	movw	r30, r24
    5dc4:	80 81       	ld	r24, Z
    5dc6:	8f 73       	andi	r24, 0x3F	; 63
    5dc8:	61 e0       	ldi	r22, 0x01	; 1
    5dca:	a4 d6       	rcall	.+3400   	; 0x6b14 <digitalWrite>
      *OCRnA = (unsigned int)usToTicks(REFRESH_INTERVAL);
    else
      *OCRnA = *TCNTn + 4;  // at least REFRESH_INTERVAL has elapsed
    Channel[timer] = -1; // this will get incremented at the end of the refresh period to start again at the first channel
  }
}
    5dcc:	2a c0       	rjmp	.+84     	; 0x5e22 <_ZL17handle_interrupts18timer16_Sequence_tPVjS1_+0x2e6>
    if(SERVO(timer,Channel[timer]).Pin.isActive == true)     // check if activated
      digitalWrite( SERVO(timer,Channel[timer]).Pin.nbr,HIGH); // its an active channel so pulse it high
  }
  else {
    // finished all channels so wait for the refresh period to expire before starting over
    if( ((unsigned)*TCNTn) + 4 < usToTicks(REFRESH_INTERVAL) )  // allow a few ticks to ensure the next OCR1A not missed
    5dce:	8a 81       	ldd	r24, Y+2	; 0x02
    5dd0:	9b 81       	ldd	r25, Y+3	; 0x03
    5dd2:	fc 01       	movw	r30, r24
    5dd4:	80 81       	ld	r24, Z
    5dd6:	91 81       	ldd	r25, Z+1	; 0x01
    5dd8:	04 96       	adiw	r24, 0x04	; 4
    5dda:	21 e0       	ldi	r18, 0x01	; 1
    5ddc:	80 34       	cpi	r24, 0x40	; 64
    5dde:	9c 49       	sbci	r25, 0x9C	; 156
    5de0:	08 f0       	brcs	.+2      	; 0x5de4 <_ZL17handle_interrupts18timer16_Sequence_tPVjS1_+0x2a8>
    5de2:	20 e0       	ldi	r18, 0x00	; 0
    5de4:	22 23       	and	r18, r18
    5de6:	41 f0       	breq	.+16     	; 0x5df8 <_ZL17handle_interrupts18timer16_Sequence_tPVjS1_+0x2bc>
      *OCRnA = (unsigned int)usToTicks(REFRESH_INTERVAL);
    5de8:	8c 81       	ldd	r24, Y+4	; 0x04
    5dea:	9d 81       	ldd	r25, Y+5	; 0x05
    5dec:	20 e4       	ldi	r18, 0x40	; 64
    5dee:	3c e9       	ldi	r19, 0x9C	; 156
    5df0:	fc 01       	movw	r30, r24
    5df2:	31 83       	std	Z+1, r19	; 0x01
    5df4:	20 83       	st	Z, r18
    5df6:	0d c0       	rjmp	.+26     	; 0x5e12 <_ZL17handle_interrupts18timer16_Sequence_tPVjS1_+0x2d6>
    else
      *OCRnA = *TCNTn + 4;  // at least REFRESH_INTERVAL has elapsed
    5df8:	8a 81       	ldd	r24, Y+2	; 0x02
    5dfa:	9b 81       	ldd	r25, Y+3	; 0x03
    5dfc:	fc 01       	movw	r30, r24
    5dfe:	80 81       	ld	r24, Z
    5e00:	91 81       	ldd	r25, Z+1	; 0x01
    5e02:	9c 01       	movw	r18, r24
    5e04:	2c 5f       	subi	r18, 0xFC	; 252
    5e06:	3f 4f       	sbci	r19, 0xFF	; 255
    5e08:	8c 81       	ldd	r24, Y+4	; 0x04
    5e0a:	9d 81       	ldd	r25, Y+5	; 0x05
    5e0c:	fc 01       	movw	r30, r24
    5e0e:	31 83       	std	Z+1, r19	; 0x01
    5e10:	20 83       	st	Z, r18
    Channel[timer] = -1; // this will get incremented at the end of the refresh period to start again at the first channel
    5e12:	89 81       	ldd	r24, Y+1	; 0x01
    5e14:	88 2f       	mov	r24, r24
    5e16:	90 e0       	ldi	r25, 0x00	; 0
    5e18:	82 5b       	subi	r24, 0xB2	; 178
    5e1a:	9b 4f       	sbci	r25, 0xFB	; 251
    5e1c:	2f ef       	ldi	r18, 0xFF	; 255
    5e1e:	fc 01       	movw	r30, r24
    5e20:	20 83       	st	Z, r18
  }
}
    5e22:	00 00       	nop
    5e24:	0f 90       	pop	r0
    5e26:	0f 90       	pop	r0
    5e28:	0f 90       	pop	r0
    5e2a:	0f 90       	pop	r0
    5e2c:	0f 90       	pop	r0
    5e2e:	df 91       	pop	r29
    5e30:	cf 91       	pop	r28
    5e32:	08 95       	ret

00005e34 <__vector_17>:

#ifndef WIRING // Wiring pre-defines signal handlers so don't define any if compiling for the Wiring platform
// Interrupt handlers for Arduino
#if defined(_useTimer1)
SIGNAL (TIMER1_COMPA_vect)
{
    5e34:	1f 92       	push	r1
    5e36:	0f 92       	push	r0
    5e38:	00 90 5f 00 	lds	r0, 0x005F	; 0x80005f <__TEXT_REGION_LENGTH__+0x7c005f>
    5e3c:	0f 92       	push	r0
    5e3e:	11 24       	eor	r1, r1
    5e40:	00 90 5b 00 	lds	r0, 0x005B	; 0x80005b <__TEXT_REGION_LENGTH__+0x7c005b>
    5e44:	0f 92       	push	r0
    5e46:	2f 93       	push	r18
    5e48:	3f 93       	push	r19
    5e4a:	4f 93       	push	r20
    5e4c:	5f 93       	push	r21
    5e4e:	6f 93       	push	r22
    5e50:	7f 93       	push	r23
    5e52:	8f 93       	push	r24
    5e54:	9f 93       	push	r25
    5e56:	af 93       	push	r26
    5e58:	bf 93       	push	r27
    5e5a:	ef 93       	push	r30
    5e5c:	ff 93       	push	r31
    5e5e:	cf 93       	push	r28
    5e60:	df 93       	push	r29
    5e62:	cd b7       	in	r28, 0x3d	; 61
    5e64:	de b7       	in	r29, 0x3e	; 62
  handle_interrupts(_timer1, &TCNT1, &OCR1A);
    5e66:	48 e8       	ldi	r20, 0x88	; 136
    5e68:	50 e0       	ldi	r21, 0x00	; 0
    5e6a:	64 e8       	ldi	r22, 0x84	; 132
    5e6c:	70 e0       	ldi	r23, 0x00	; 0
    5e6e:	81 e0       	ldi	r24, 0x01	; 1
    5e70:	65 de       	rcall	.-822    	; 0x5b3c <_ZL17handle_interrupts18timer16_Sequence_tPVjS1_>
}
    5e72:	00 00       	nop
    5e74:	df 91       	pop	r29
    5e76:	cf 91       	pop	r28
    5e78:	ff 91       	pop	r31
    5e7a:	ef 91       	pop	r30
    5e7c:	bf 91       	pop	r27
    5e7e:	af 91       	pop	r26
    5e80:	9f 91       	pop	r25
    5e82:	8f 91       	pop	r24
    5e84:	7f 91       	pop	r23
    5e86:	6f 91       	pop	r22
    5e88:	5f 91       	pop	r21
    5e8a:	4f 91       	pop	r20
    5e8c:	3f 91       	pop	r19
    5e8e:	2f 91       	pop	r18
    5e90:	0f 90       	pop	r0
    5e92:	00 92 5b 00 	sts	0x005B, r0	; 0x80005b <__TEXT_REGION_LENGTH__+0x7c005b>
    5e96:	0f 90       	pop	r0
    5e98:	00 92 5f 00 	sts	0x005F, r0	; 0x80005f <__TEXT_REGION_LENGTH__+0x7c005f>
    5e9c:	0f 90       	pop	r0
    5e9e:	1f 90       	pop	r1
    5ea0:	18 95       	reti

00005ea2 <__vector_32>:
#endif

#if defined(_useTimer3)
SIGNAL (TIMER3_COMPA_vect)
{
    5ea2:	1f 92       	push	r1
    5ea4:	0f 92       	push	r0
    5ea6:	00 90 5f 00 	lds	r0, 0x005F	; 0x80005f <__TEXT_REGION_LENGTH__+0x7c005f>
    5eaa:	0f 92       	push	r0
    5eac:	11 24       	eor	r1, r1
    5eae:	00 90 5b 00 	lds	r0, 0x005B	; 0x80005b <__TEXT_REGION_LENGTH__+0x7c005b>
    5eb2:	0f 92       	push	r0
    5eb4:	2f 93       	push	r18
    5eb6:	3f 93       	push	r19
    5eb8:	4f 93       	push	r20
    5eba:	5f 93       	push	r21
    5ebc:	6f 93       	push	r22
    5ebe:	7f 93       	push	r23
    5ec0:	8f 93       	push	r24
    5ec2:	9f 93       	push	r25
    5ec4:	af 93       	push	r26
    5ec6:	bf 93       	push	r27
    5ec8:	ef 93       	push	r30
    5eca:	ff 93       	push	r31
    5ecc:	cf 93       	push	r28
    5ece:	df 93       	push	r29
    5ed0:	cd b7       	in	r28, 0x3d	; 61
    5ed2:	de b7       	in	r29, 0x3e	; 62
  handle_interrupts(_timer3, &TCNT3, &OCR3A);
    5ed4:	48 e9       	ldi	r20, 0x98	; 152
    5ed6:	50 e0       	ldi	r21, 0x00	; 0
    5ed8:	64 e9       	ldi	r22, 0x94	; 148
    5eda:	70 e0       	ldi	r23, 0x00	; 0
    5edc:	82 e0       	ldi	r24, 0x02	; 2
    5ede:	2e de       	rcall	.-932    	; 0x5b3c <_ZL17handle_interrupts18timer16_Sequence_tPVjS1_>
}
    5ee0:	00 00       	nop
    5ee2:	df 91       	pop	r29
    5ee4:	cf 91       	pop	r28
    5ee6:	ff 91       	pop	r31
    5ee8:	ef 91       	pop	r30
    5eea:	bf 91       	pop	r27
    5eec:	af 91       	pop	r26
    5eee:	9f 91       	pop	r25
    5ef0:	8f 91       	pop	r24
    5ef2:	7f 91       	pop	r23
    5ef4:	6f 91       	pop	r22
    5ef6:	5f 91       	pop	r21
    5ef8:	4f 91       	pop	r20
    5efa:	3f 91       	pop	r19
    5efc:	2f 91       	pop	r18
    5efe:	0f 90       	pop	r0
    5f00:	00 92 5b 00 	sts	0x005B, r0	; 0x80005b <__TEXT_REGION_LENGTH__+0x7c005b>
    5f04:	0f 90       	pop	r0
    5f06:	00 92 5f 00 	sts	0x005F, r0	; 0x80005f <__TEXT_REGION_LENGTH__+0x7c005f>
    5f0a:	0f 90       	pop	r0
    5f0c:	1f 90       	pop	r1
    5f0e:	18 95       	reti

00005f10 <__vector_42>:
#endif

#if defined(_useTimer4)
SIGNAL (TIMER4_COMPA_vect)
{
    5f10:	1f 92       	push	r1
    5f12:	0f 92       	push	r0
    5f14:	00 90 5f 00 	lds	r0, 0x005F	; 0x80005f <__TEXT_REGION_LENGTH__+0x7c005f>
    5f18:	0f 92       	push	r0
    5f1a:	11 24       	eor	r1, r1
    5f1c:	00 90 5b 00 	lds	r0, 0x005B	; 0x80005b <__TEXT_REGION_LENGTH__+0x7c005b>
    5f20:	0f 92       	push	r0
    5f22:	2f 93       	push	r18
    5f24:	3f 93       	push	r19
    5f26:	4f 93       	push	r20
    5f28:	5f 93       	push	r21
    5f2a:	6f 93       	push	r22
    5f2c:	7f 93       	push	r23
    5f2e:	8f 93       	push	r24
    5f30:	9f 93       	push	r25
    5f32:	af 93       	push	r26
    5f34:	bf 93       	push	r27
    5f36:	ef 93       	push	r30
    5f38:	ff 93       	push	r31
    5f3a:	cf 93       	push	r28
    5f3c:	df 93       	push	r29
    5f3e:	cd b7       	in	r28, 0x3d	; 61
    5f40:	de b7       	in	r29, 0x3e	; 62
  handle_interrupts(_timer4, &TCNT4, &OCR4A);
    5f42:	48 ea       	ldi	r20, 0xA8	; 168
    5f44:	50 e0       	ldi	r21, 0x00	; 0
    5f46:	64 ea       	ldi	r22, 0xA4	; 164
    5f48:	70 e0       	ldi	r23, 0x00	; 0
    5f4a:	83 e0       	ldi	r24, 0x03	; 3
    5f4c:	f7 dd       	rcall	.-1042   	; 0x5b3c <_ZL17handle_interrupts18timer16_Sequence_tPVjS1_>
}
    5f4e:	00 00       	nop
    5f50:	df 91       	pop	r29
    5f52:	cf 91       	pop	r28
    5f54:	ff 91       	pop	r31
    5f56:	ef 91       	pop	r30
    5f58:	bf 91       	pop	r27
    5f5a:	af 91       	pop	r26
    5f5c:	9f 91       	pop	r25
    5f5e:	8f 91       	pop	r24
    5f60:	7f 91       	pop	r23
    5f62:	6f 91       	pop	r22
    5f64:	5f 91       	pop	r21
    5f66:	4f 91       	pop	r20
    5f68:	3f 91       	pop	r19
    5f6a:	2f 91       	pop	r18
    5f6c:	0f 90       	pop	r0
    5f6e:	00 92 5b 00 	sts	0x005B, r0	; 0x80005b <__TEXT_REGION_LENGTH__+0x7c005b>
    5f72:	0f 90       	pop	r0
    5f74:	00 92 5f 00 	sts	0x005F, r0	; 0x80005f <__TEXT_REGION_LENGTH__+0x7c005f>
    5f78:	0f 90       	pop	r0
    5f7a:	1f 90       	pop	r1
    5f7c:	18 95       	reti

00005f7e <__vector_47>:
#endif

#if defined(_useTimer5)
SIGNAL (TIMER5_COMPA_vect)
{
    5f7e:	1f 92       	push	r1
    5f80:	0f 92       	push	r0
    5f82:	00 90 5f 00 	lds	r0, 0x005F	; 0x80005f <__TEXT_REGION_LENGTH__+0x7c005f>
    5f86:	0f 92       	push	r0
    5f88:	11 24       	eor	r1, r1
    5f8a:	00 90 5b 00 	lds	r0, 0x005B	; 0x80005b <__TEXT_REGION_LENGTH__+0x7c005b>
    5f8e:	0f 92       	push	r0
    5f90:	2f 93       	push	r18
    5f92:	3f 93       	push	r19
    5f94:	4f 93       	push	r20
    5f96:	5f 93       	push	r21
    5f98:	6f 93       	push	r22
    5f9a:	7f 93       	push	r23
    5f9c:	8f 93       	push	r24
    5f9e:	9f 93       	push	r25
    5fa0:	af 93       	push	r26
    5fa2:	bf 93       	push	r27
    5fa4:	ef 93       	push	r30
    5fa6:	ff 93       	push	r31
    5fa8:	cf 93       	push	r28
    5faa:	df 93       	push	r29
    5fac:	cd b7       	in	r28, 0x3d	; 61
    5fae:	de b7       	in	r29, 0x3e	; 62
  handle_interrupts(_timer5, &TCNT5, &OCR5A);
    5fb0:	48 e2       	ldi	r20, 0x28	; 40
    5fb2:	51 e0       	ldi	r21, 0x01	; 1
    5fb4:	64 e2       	ldi	r22, 0x24	; 36
    5fb6:	71 e0       	ldi	r23, 0x01	; 1
    5fb8:	80 e0       	ldi	r24, 0x00	; 0
    5fba:	c0 dd       	rcall	.-1152   	; 0x5b3c <_ZL17handle_interrupts18timer16_Sequence_tPVjS1_>
}
    5fbc:	00 00       	nop
    5fbe:	df 91       	pop	r29
    5fc0:	cf 91       	pop	r28
    5fc2:	ff 91       	pop	r31
    5fc4:	ef 91       	pop	r30
    5fc6:	bf 91       	pop	r27
    5fc8:	af 91       	pop	r26
    5fca:	9f 91       	pop	r25
    5fcc:	8f 91       	pop	r24
    5fce:	7f 91       	pop	r23
    5fd0:	6f 91       	pop	r22
    5fd2:	5f 91       	pop	r21
    5fd4:	4f 91       	pop	r20
    5fd6:	3f 91       	pop	r19
    5fd8:	2f 91       	pop	r18
    5fda:	0f 90       	pop	r0
    5fdc:	00 92 5b 00 	sts	0x005B, r0	; 0x80005b <__TEXT_REGION_LENGTH__+0x7c005b>
    5fe0:	0f 90       	pop	r0
    5fe2:	00 92 5f 00 	sts	0x005F, r0	; 0x80005f <__TEXT_REGION_LENGTH__+0x7c005f>
    5fe6:	0f 90       	pop	r0
    5fe8:	1f 90       	pop	r1
    5fea:	18 95       	reti

00005fec <__cmpsf2>:
    5fec:	97 d0       	rcall	.+302    	; 0x611c <__fp_cmp>
    5fee:	08 f4       	brcc	.+2      	; 0x5ff2 <__cmpsf2+0x6>
    5ff0:	81 e0       	ldi	r24, 0x01	; 1
    5ff2:	08 95       	ret

00005ff4 <__divsf3>:
    5ff4:	0c d0       	rcall	.+24     	; 0x600e <__divsf3x>
    5ff6:	cd c0       	rjmp	.+410    	; 0x6192 <__fp_round>
    5ff8:	c5 d0       	rcall	.+394    	; 0x6184 <__fp_pscB>
    5ffa:	40 f0       	brcs	.+16     	; 0x600c <__divsf3+0x18>
    5ffc:	bc d0       	rcall	.+376    	; 0x6176 <__fp_pscA>
    5ffe:	30 f0       	brcs	.+12     	; 0x600c <__divsf3+0x18>
    6000:	21 f4       	brne	.+8      	; 0x600a <__divsf3+0x16>
    6002:	5f 3f       	cpi	r21, 0xFF	; 255
    6004:	19 f0       	breq	.+6      	; 0x600c <__divsf3+0x18>
    6006:	ae c0       	rjmp	.+348    	; 0x6164 <__fp_inf>
    6008:	51 11       	cpse	r21, r1
    600a:	f7 c0       	rjmp	.+494    	; 0x61fa <__fp_szero>
    600c:	b1 c0       	rjmp	.+354    	; 0x6170 <__fp_nan>

0000600e <__divsf3x>:
    600e:	d2 d0       	rcall	.+420    	; 0x61b4 <__fp_split3>
    6010:	98 f3       	brcs	.-26     	; 0x5ff8 <__divsf3+0x4>

00006012 <__divsf3_pse>:
    6012:	99 23       	and	r25, r25
    6014:	c9 f3       	breq	.-14     	; 0x6008 <__divsf3+0x14>
    6016:	55 23       	and	r21, r21
    6018:	b1 f3       	breq	.-20     	; 0x6006 <__divsf3+0x12>
    601a:	95 1b       	sub	r25, r21
    601c:	55 0b       	sbc	r21, r21
    601e:	bb 27       	eor	r27, r27
    6020:	aa 27       	eor	r26, r26
    6022:	62 17       	cp	r22, r18
    6024:	73 07       	cpc	r23, r19
    6026:	84 07       	cpc	r24, r20
    6028:	38 f0       	brcs	.+14     	; 0x6038 <__divsf3_pse+0x26>
    602a:	9f 5f       	subi	r25, 0xFF	; 255
    602c:	5f 4f       	sbci	r21, 0xFF	; 255
    602e:	22 0f       	add	r18, r18
    6030:	33 1f       	adc	r19, r19
    6032:	44 1f       	adc	r20, r20
    6034:	aa 1f       	adc	r26, r26
    6036:	a9 f3       	breq	.-22     	; 0x6022 <__divsf3_pse+0x10>
    6038:	33 d0       	rcall	.+102    	; 0x60a0 <__divsf3_pse+0x8e>
    603a:	0e 2e       	mov	r0, r30
    603c:	3a f0       	brmi	.+14     	; 0x604c <__divsf3_pse+0x3a>
    603e:	e0 e8       	ldi	r30, 0x80	; 128
    6040:	30 d0       	rcall	.+96     	; 0x60a2 <__divsf3_pse+0x90>
    6042:	91 50       	subi	r25, 0x01	; 1
    6044:	50 40       	sbci	r21, 0x00	; 0
    6046:	e6 95       	lsr	r30
    6048:	00 1c       	adc	r0, r0
    604a:	ca f7       	brpl	.-14     	; 0x603e <__divsf3_pse+0x2c>
    604c:	29 d0       	rcall	.+82     	; 0x60a0 <__divsf3_pse+0x8e>
    604e:	fe 2f       	mov	r31, r30
    6050:	27 d0       	rcall	.+78     	; 0x60a0 <__divsf3_pse+0x8e>
    6052:	66 0f       	add	r22, r22
    6054:	77 1f       	adc	r23, r23
    6056:	88 1f       	adc	r24, r24
    6058:	bb 1f       	adc	r27, r27
    605a:	26 17       	cp	r18, r22
    605c:	37 07       	cpc	r19, r23
    605e:	48 07       	cpc	r20, r24
    6060:	ab 07       	cpc	r26, r27
    6062:	b0 e8       	ldi	r27, 0x80	; 128
    6064:	09 f0       	breq	.+2      	; 0x6068 <__divsf3_pse+0x56>
    6066:	bb 0b       	sbc	r27, r27
    6068:	80 2d       	mov	r24, r0
    606a:	bf 01       	movw	r22, r30
    606c:	ff 27       	eor	r31, r31
    606e:	93 58       	subi	r25, 0x83	; 131
    6070:	5f 4f       	sbci	r21, 0xFF	; 255
    6072:	2a f0       	brmi	.+10     	; 0x607e <__divsf3_pse+0x6c>
    6074:	9e 3f       	cpi	r25, 0xFE	; 254
    6076:	51 05       	cpc	r21, r1
    6078:	68 f0       	brcs	.+26     	; 0x6094 <__divsf3_pse+0x82>
    607a:	74 c0       	rjmp	.+232    	; 0x6164 <__fp_inf>
    607c:	be c0       	rjmp	.+380    	; 0x61fa <__fp_szero>
    607e:	5f 3f       	cpi	r21, 0xFF	; 255
    6080:	ec f3       	brlt	.-6      	; 0x607c <__divsf3_pse+0x6a>
    6082:	98 3e       	cpi	r25, 0xE8	; 232
    6084:	dc f3       	brlt	.-10     	; 0x607c <__divsf3_pse+0x6a>
    6086:	86 95       	lsr	r24
    6088:	77 95       	ror	r23
    608a:	67 95       	ror	r22
    608c:	b7 95       	ror	r27
    608e:	f7 95       	ror	r31
    6090:	9f 5f       	subi	r25, 0xFF	; 255
    6092:	c9 f7       	brne	.-14     	; 0x6086 <__divsf3_pse+0x74>
    6094:	88 0f       	add	r24, r24
    6096:	91 1d       	adc	r25, r1
    6098:	96 95       	lsr	r25
    609a:	87 95       	ror	r24
    609c:	97 f9       	bld	r25, 7
    609e:	08 95       	ret
    60a0:	e1 e0       	ldi	r30, 0x01	; 1
    60a2:	66 0f       	add	r22, r22
    60a4:	77 1f       	adc	r23, r23
    60a6:	88 1f       	adc	r24, r24
    60a8:	bb 1f       	adc	r27, r27
    60aa:	62 17       	cp	r22, r18
    60ac:	73 07       	cpc	r23, r19
    60ae:	84 07       	cpc	r24, r20
    60b0:	ba 07       	cpc	r27, r26
    60b2:	20 f0       	brcs	.+8      	; 0x60bc <__divsf3_pse+0xaa>
    60b4:	62 1b       	sub	r22, r18
    60b6:	73 0b       	sbc	r23, r19
    60b8:	84 0b       	sbc	r24, r20
    60ba:	ba 0b       	sbc	r27, r26
    60bc:	ee 1f       	adc	r30, r30
    60be:	88 f7       	brcc	.-30     	; 0x60a2 <__divsf3_pse+0x90>
    60c0:	e0 95       	com	r30
    60c2:	08 95       	ret

000060c4 <__fixunssfsi>:
    60c4:	7f d0       	rcall	.+254    	; 0x61c4 <__fp_splitA>
    60c6:	88 f0       	brcs	.+34     	; 0x60ea <__fixunssfsi+0x26>
    60c8:	9f 57       	subi	r25, 0x7F	; 127
    60ca:	90 f0       	brcs	.+36     	; 0x60f0 <__fixunssfsi+0x2c>
    60cc:	b9 2f       	mov	r27, r25
    60ce:	99 27       	eor	r25, r25
    60d0:	b7 51       	subi	r27, 0x17	; 23
    60d2:	a0 f0       	brcs	.+40     	; 0x60fc <__fixunssfsi+0x38>
    60d4:	d1 f0       	breq	.+52     	; 0x610a <__fixunssfsi+0x46>
    60d6:	66 0f       	add	r22, r22
    60d8:	77 1f       	adc	r23, r23
    60da:	88 1f       	adc	r24, r24
    60dc:	99 1f       	adc	r25, r25
    60de:	1a f0       	brmi	.+6      	; 0x60e6 <__fixunssfsi+0x22>
    60e0:	ba 95       	dec	r27
    60e2:	c9 f7       	brne	.-14     	; 0x60d6 <__fixunssfsi+0x12>
    60e4:	12 c0       	rjmp	.+36     	; 0x610a <__fixunssfsi+0x46>
    60e6:	b1 30       	cpi	r27, 0x01	; 1
    60e8:	81 f0       	breq	.+32     	; 0x610a <__fixunssfsi+0x46>
    60ea:	86 d0       	rcall	.+268    	; 0x61f8 <__fp_zero>
    60ec:	b1 e0       	ldi	r27, 0x01	; 1
    60ee:	08 95       	ret
    60f0:	83 c0       	rjmp	.+262    	; 0x61f8 <__fp_zero>
    60f2:	67 2f       	mov	r22, r23
    60f4:	78 2f       	mov	r23, r24
    60f6:	88 27       	eor	r24, r24
    60f8:	b8 5f       	subi	r27, 0xF8	; 248
    60fa:	39 f0       	breq	.+14     	; 0x610a <__fixunssfsi+0x46>
    60fc:	b9 3f       	cpi	r27, 0xF9	; 249
    60fe:	cc f3       	brlt	.-14     	; 0x60f2 <__fixunssfsi+0x2e>
    6100:	86 95       	lsr	r24
    6102:	77 95       	ror	r23
    6104:	67 95       	ror	r22
    6106:	b3 95       	inc	r27
    6108:	d9 f7       	brne	.-10     	; 0x6100 <__fixunssfsi+0x3c>
    610a:	3e f4       	brtc	.+14     	; 0x611a <__fixunssfsi+0x56>
    610c:	90 95       	com	r25
    610e:	80 95       	com	r24
    6110:	70 95       	com	r23
    6112:	61 95       	neg	r22
    6114:	7f 4f       	sbci	r23, 0xFF	; 255
    6116:	8f 4f       	sbci	r24, 0xFF	; 255
    6118:	9f 4f       	sbci	r25, 0xFF	; 255
    611a:	08 95       	ret

0000611c <__fp_cmp>:
    611c:	99 0f       	add	r25, r25
    611e:	00 08       	sbc	r0, r0
    6120:	55 0f       	add	r21, r21
    6122:	aa 0b       	sbc	r26, r26
    6124:	e0 e8       	ldi	r30, 0x80	; 128
    6126:	fe ef       	ldi	r31, 0xFE	; 254
    6128:	16 16       	cp	r1, r22
    612a:	17 06       	cpc	r1, r23
    612c:	e8 07       	cpc	r30, r24
    612e:	f9 07       	cpc	r31, r25
    6130:	c0 f0       	brcs	.+48     	; 0x6162 <__fp_cmp+0x46>
    6132:	12 16       	cp	r1, r18
    6134:	13 06       	cpc	r1, r19
    6136:	e4 07       	cpc	r30, r20
    6138:	f5 07       	cpc	r31, r21
    613a:	98 f0       	brcs	.+38     	; 0x6162 <__fp_cmp+0x46>
    613c:	62 1b       	sub	r22, r18
    613e:	73 0b       	sbc	r23, r19
    6140:	84 0b       	sbc	r24, r20
    6142:	95 0b       	sbc	r25, r21
    6144:	39 f4       	brne	.+14     	; 0x6154 <__fp_cmp+0x38>
    6146:	0a 26       	eor	r0, r26
    6148:	61 f0       	breq	.+24     	; 0x6162 <__fp_cmp+0x46>
    614a:	23 2b       	or	r18, r19
    614c:	24 2b       	or	r18, r20
    614e:	25 2b       	or	r18, r21
    6150:	21 f4       	brne	.+8      	; 0x615a <__fp_cmp+0x3e>
    6152:	08 95       	ret
    6154:	0a 26       	eor	r0, r26
    6156:	09 f4       	brne	.+2      	; 0x615a <__fp_cmp+0x3e>
    6158:	a1 40       	sbci	r26, 0x01	; 1
    615a:	a6 95       	lsr	r26
    615c:	8f ef       	ldi	r24, 0xFF	; 255
    615e:	81 1d       	adc	r24, r1
    6160:	81 1d       	adc	r24, r1
    6162:	08 95       	ret

00006164 <__fp_inf>:
    6164:	97 f9       	bld	r25, 7
    6166:	9f 67       	ori	r25, 0x7F	; 127
    6168:	80 e8       	ldi	r24, 0x80	; 128
    616a:	70 e0       	ldi	r23, 0x00	; 0
    616c:	60 e0       	ldi	r22, 0x00	; 0
    616e:	08 95       	ret

00006170 <__fp_nan>:
    6170:	9f ef       	ldi	r25, 0xFF	; 255
    6172:	80 ec       	ldi	r24, 0xC0	; 192
    6174:	08 95       	ret

00006176 <__fp_pscA>:
    6176:	00 24       	eor	r0, r0
    6178:	0a 94       	dec	r0
    617a:	16 16       	cp	r1, r22
    617c:	17 06       	cpc	r1, r23
    617e:	18 06       	cpc	r1, r24
    6180:	09 06       	cpc	r0, r25
    6182:	08 95       	ret

00006184 <__fp_pscB>:
    6184:	00 24       	eor	r0, r0
    6186:	0a 94       	dec	r0
    6188:	12 16       	cp	r1, r18
    618a:	13 06       	cpc	r1, r19
    618c:	14 06       	cpc	r1, r20
    618e:	05 06       	cpc	r0, r21
    6190:	08 95       	ret

00006192 <__fp_round>:
    6192:	09 2e       	mov	r0, r25
    6194:	03 94       	inc	r0
    6196:	00 0c       	add	r0, r0
    6198:	11 f4       	brne	.+4      	; 0x619e <__fp_round+0xc>
    619a:	88 23       	and	r24, r24
    619c:	52 f0       	brmi	.+20     	; 0x61b2 <__fp_round+0x20>
    619e:	bb 0f       	add	r27, r27
    61a0:	40 f4       	brcc	.+16     	; 0x61b2 <__fp_round+0x20>
    61a2:	bf 2b       	or	r27, r31
    61a4:	11 f4       	brne	.+4      	; 0x61aa <__fp_round+0x18>
    61a6:	60 ff       	sbrs	r22, 0
    61a8:	04 c0       	rjmp	.+8      	; 0x61b2 <__fp_round+0x20>
    61aa:	6f 5f       	subi	r22, 0xFF	; 255
    61ac:	7f 4f       	sbci	r23, 0xFF	; 255
    61ae:	8f 4f       	sbci	r24, 0xFF	; 255
    61b0:	9f 4f       	sbci	r25, 0xFF	; 255
    61b2:	08 95       	ret

000061b4 <__fp_split3>:
    61b4:	57 fd       	sbrc	r21, 7
    61b6:	90 58       	subi	r25, 0x80	; 128
    61b8:	44 0f       	add	r20, r20
    61ba:	55 1f       	adc	r21, r21
    61bc:	59 f0       	breq	.+22     	; 0x61d4 <__fp_splitA+0x10>
    61be:	5f 3f       	cpi	r21, 0xFF	; 255
    61c0:	71 f0       	breq	.+28     	; 0x61de <__fp_splitA+0x1a>
    61c2:	47 95       	ror	r20

000061c4 <__fp_splitA>:
    61c4:	88 0f       	add	r24, r24
    61c6:	97 fb       	bst	r25, 7
    61c8:	99 1f       	adc	r25, r25
    61ca:	61 f0       	breq	.+24     	; 0x61e4 <__fp_splitA+0x20>
    61cc:	9f 3f       	cpi	r25, 0xFF	; 255
    61ce:	79 f0       	breq	.+30     	; 0x61ee <__fp_splitA+0x2a>
    61d0:	87 95       	ror	r24
    61d2:	08 95       	ret
    61d4:	12 16       	cp	r1, r18
    61d6:	13 06       	cpc	r1, r19
    61d8:	14 06       	cpc	r1, r20
    61da:	55 1f       	adc	r21, r21
    61dc:	f2 cf       	rjmp	.-28     	; 0x61c2 <__fp_split3+0xe>
    61de:	46 95       	lsr	r20
    61e0:	f1 df       	rcall	.-30     	; 0x61c4 <__fp_splitA>
    61e2:	08 c0       	rjmp	.+16     	; 0x61f4 <__fp_splitA+0x30>
    61e4:	16 16       	cp	r1, r22
    61e6:	17 06       	cpc	r1, r23
    61e8:	18 06       	cpc	r1, r24
    61ea:	99 1f       	adc	r25, r25
    61ec:	f1 cf       	rjmp	.-30     	; 0x61d0 <__fp_splitA+0xc>
    61ee:	86 95       	lsr	r24
    61f0:	71 05       	cpc	r23, r1
    61f2:	61 05       	cpc	r22, r1
    61f4:	08 94       	sec
    61f6:	08 95       	ret

000061f8 <__fp_zero>:
    61f8:	e8 94       	clt

000061fa <__fp_szero>:
    61fa:	bb 27       	eor	r27, r27
    61fc:	66 27       	eor	r22, r22
    61fe:	77 27       	eor	r23, r23
    6200:	cb 01       	movw	r24, r22
    6202:	97 f9       	bld	r25, 7
    6204:	08 95       	ret

00006206 <__gesf2>:
    6206:	8a df       	rcall	.-236    	; 0x611c <__fp_cmp>
    6208:	08 f4       	brcc	.+2      	; 0x620c <__gesf2+0x6>
    620a:	8f ef       	ldi	r24, 0xFF	; 255
    620c:	08 95       	ret

0000620e <__mulsf3>:
    620e:	0b d0       	rcall	.+22     	; 0x6226 <__mulsf3x>
    6210:	c0 cf       	rjmp	.-128    	; 0x6192 <__fp_round>
    6212:	b1 df       	rcall	.-158    	; 0x6176 <__fp_pscA>
    6214:	28 f0       	brcs	.+10     	; 0x6220 <__mulsf3+0x12>
    6216:	b6 df       	rcall	.-148    	; 0x6184 <__fp_pscB>
    6218:	18 f0       	brcs	.+6      	; 0x6220 <__mulsf3+0x12>
    621a:	95 23       	and	r25, r21
    621c:	09 f0       	breq	.+2      	; 0x6220 <__mulsf3+0x12>
    621e:	a2 cf       	rjmp	.-188    	; 0x6164 <__fp_inf>
    6220:	a7 cf       	rjmp	.-178    	; 0x6170 <__fp_nan>
    6222:	11 24       	eor	r1, r1
    6224:	ea cf       	rjmp	.-44     	; 0x61fa <__fp_szero>

00006226 <__mulsf3x>:
    6226:	c6 df       	rcall	.-116    	; 0x61b4 <__fp_split3>
    6228:	a0 f3       	brcs	.-24     	; 0x6212 <__mulsf3+0x4>

0000622a <__mulsf3_pse>:
    622a:	95 9f       	mul	r25, r21
    622c:	d1 f3       	breq	.-12     	; 0x6222 <__mulsf3+0x14>
    622e:	95 0f       	add	r25, r21
    6230:	50 e0       	ldi	r21, 0x00	; 0
    6232:	55 1f       	adc	r21, r21
    6234:	62 9f       	mul	r22, r18
    6236:	f0 01       	movw	r30, r0
    6238:	72 9f       	mul	r23, r18
    623a:	bb 27       	eor	r27, r27
    623c:	f0 0d       	add	r31, r0
    623e:	b1 1d       	adc	r27, r1
    6240:	63 9f       	mul	r22, r19
    6242:	aa 27       	eor	r26, r26
    6244:	f0 0d       	add	r31, r0
    6246:	b1 1d       	adc	r27, r1
    6248:	aa 1f       	adc	r26, r26
    624a:	64 9f       	mul	r22, r20
    624c:	66 27       	eor	r22, r22
    624e:	b0 0d       	add	r27, r0
    6250:	a1 1d       	adc	r26, r1
    6252:	66 1f       	adc	r22, r22
    6254:	82 9f       	mul	r24, r18
    6256:	22 27       	eor	r18, r18
    6258:	b0 0d       	add	r27, r0
    625a:	a1 1d       	adc	r26, r1
    625c:	62 1f       	adc	r22, r18
    625e:	73 9f       	mul	r23, r19
    6260:	b0 0d       	add	r27, r0
    6262:	a1 1d       	adc	r26, r1
    6264:	62 1f       	adc	r22, r18
    6266:	83 9f       	mul	r24, r19
    6268:	a0 0d       	add	r26, r0
    626a:	61 1d       	adc	r22, r1
    626c:	22 1f       	adc	r18, r18
    626e:	74 9f       	mul	r23, r20
    6270:	33 27       	eor	r19, r19
    6272:	a0 0d       	add	r26, r0
    6274:	61 1d       	adc	r22, r1
    6276:	23 1f       	adc	r18, r19
    6278:	84 9f       	mul	r24, r20
    627a:	60 0d       	add	r22, r0
    627c:	21 1d       	adc	r18, r1
    627e:	82 2f       	mov	r24, r18
    6280:	76 2f       	mov	r23, r22
    6282:	6a 2f       	mov	r22, r26
    6284:	11 24       	eor	r1, r1
    6286:	9f 57       	subi	r25, 0x7F	; 127
    6288:	50 40       	sbci	r21, 0x00	; 0
    628a:	8a f0       	brmi	.+34     	; 0x62ae <__mulsf3_pse+0x84>
    628c:	e1 f0       	breq	.+56     	; 0x62c6 <__mulsf3_pse+0x9c>
    628e:	88 23       	and	r24, r24
    6290:	4a f0       	brmi	.+18     	; 0x62a4 <__mulsf3_pse+0x7a>
    6292:	ee 0f       	add	r30, r30
    6294:	ff 1f       	adc	r31, r31
    6296:	bb 1f       	adc	r27, r27
    6298:	66 1f       	adc	r22, r22
    629a:	77 1f       	adc	r23, r23
    629c:	88 1f       	adc	r24, r24
    629e:	91 50       	subi	r25, 0x01	; 1
    62a0:	50 40       	sbci	r21, 0x00	; 0
    62a2:	a9 f7       	brne	.-22     	; 0x628e <__mulsf3_pse+0x64>
    62a4:	9e 3f       	cpi	r25, 0xFE	; 254
    62a6:	51 05       	cpc	r21, r1
    62a8:	70 f0       	brcs	.+28     	; 0x62c6 <__mulsf3_pse+0x9c>
    62aa:	5c cf       	rjmp	.-328    	; 0x6164 <__fp_inf>
    62ac:	a6 cf       	rjmp	.-180    	; 0x61fa <__fp_szero>
    62ae:	5f 3f       	cpi	r21, 0xFF	; 255
    62b0:	ec f3       	brlt	.-6      	; 0x62ac <__mulsf3_pse+0x82>
    62b2:	98 3e       	cpi	r25, 0xE8	; 232
    62b4:	dc f3       	brlt	.-10     	; 0x62ac <__mulsf3_pse+0x82>
    62b6:	86 95       	lsr	r24
    62b8:	77 95       	ror	r23
    62ba:	67 95       	ror	r22
    62bc:	b7 95       	ror	r27
    62be:	f7 95       	ror	r31
    62c0:	e7 95       	ror	r30
    62c2:	9f 5f       	subi	r25, 0xFF	; 255
    62c4:	c1 f7       	brne	.-16     	; 0x62b6 <__mulsf3_pse+0x8c>
    62c6:	fe 2b       	or	r31, r30
    62c8:	88 0f       	add	r24, r24
    62ca:	91 1d       	adc	r25, r1
    62cc:	96 95       	lsr	r25
    62ce:	87 95       	ror	r24
    62d0:	97 f9       	bld	r25, 7
    62d2:	08 95       	ret

000062d4 <__cxa_pure_virtual>:
    62d4:	98 d5       	rcall	.+2864   	; 0x6e06 <abort>

000062d6 <_ZN14HardwareSerial9availableEv>:
  // clear any received data
  _rx_buffer_head = _rx_buffer_tail;
}

int HardwareSerial::available(void)
{
    62d6:	fc 01       	movw	r30, r24
  return ((unsigned int)(SERIAL_RX_BUFFER_SIZE + _rx_buffer_head - _rx_buffer_tail)) % SERIAL_RX_BUFFER_SIZE;
    62d8:	91 8d       	ldd	r25, Z+25	; 0x19
    62da:	22 8d       	ldd	r18, Z+26	; 0x1a
    62dc:	89 2f       	mov	r24, r25
    62de:	90 e0       	ldi	r25, 0x00	; 0
    62e0:	80 5c       	subi	r24, 0xC0	; 192
    62e2:	9f 4f       	sbci	r25, 0xFF	; 255
    62e4:	82 1b       	sub	r24, r18
    62e6:	91 09       	sbc	r25, r1
}
    62e8:	8f 73       	andi	r24, 0x3F	; 63
    62ea:	99 27       	eor	r25, r25
    62ec:	08 95       	ret

000062ee <_ZN14HardwareSerial4peekEv>:

int HardwareSerial::peek(void)
{
    62ee:	fc 01       	movw	r30, r24
  if (_rx_buffer_head == _rx_buffer_tail) {
    62f0:	91 8d       	ldd	r25, Z+25	; 0x19
    62f2:	82 8d       	ldd	r24, Z+26	; 0x1a
    62f4:	98 17       	cp	r25, r24
    62f6:	31 f0       	breq	.+12     	; 0x6304 <_ZN14HardwareSerial4peekEv+0x16>
    return -1;
  } else {
    return _rx_buffer[_rx_buffer_tail];
    62f8:	82 8d       	ldd	r24, Z+26	; 0x1a
    62fa:	e8 0f       	add	r30, r24
    62fc:	f1 1d       	adc	r31, r1
    62fe:	85 8d       	ldd	r24, Z+29	; 0x1d
    6300:	90 e0       	ldi	r25, 0x00	; 0
    6302:	08 95       	ret
}

int HardwareSerial::peek(void)
{
  if (_rx_buffer_head == _rx_buffer_tail) {
    return -1;
    6304:	8f ef       	ldi	r24, 0xFF	; 255
    6306:	9f ef       	ldi	r25, 0xFF	; 255
  } else {
    return _rx_buffer[_rx_buffer_tail];
  }
}
    6308:	08 95       	ret

0000630a <_ZN14HardwareSerial4readEv>:

int HardwareSerial::read(void)
{
    630a:	fc 01       	movw	r30, r24
  // if the head isn't ahead of the tail, we don't have any characters
  if (_rx_buffer_head == _rx_buffer_tail) {
    630c:	91 8d       	ldd	r25, Z+25	; 0x19
    630e:	82 8d       	ldd	r24, Z+26	; 0x1a
    6310:	98 17       	cp	r25, r24
    6312:	61 f0       	breq	.+24     	; 0x632c <_ZN14HardwareSerial4readEv+0x22>
    return -1;
  } else {
    unsigned char c = _rx_buffer[_rx_buffer_tail];
    6314:	82 8d       	ldd	r24, Z+26	; 0x1a
    6316:	df 01       	movw	r26, r30
    6318:	a8 0f       	add	r26, r24
    631a:	b1 1d       	adc	r27, r1
    631c:	5d 96       	adiw	r26, 0x1d	; 29
    631e:	8c 91       	ld	r24, X
    _rx_buffer_tail = (rx_buffer_index_t)(_rx_buffer_tail + 1) % SERIAL_RX_BUFFER_SIZE;
    6320:	92 8d       	ldd	r25, Z+26	; 0x1a
    6322:	9f 5f       	subi	r25, 0xFF	; 255
    6324:	9f 73       	andi	r25, 0x3F	; 63
    6326:	92 8f       	std	Z+26, r25	; 0x1a
    return c;
    6328:	90 e0       	ldi	r25, 0x00	; 0
    632a:	08 95       	ret

int HardwareSerial::read(void)
{
  // if the head isn't ahead of the tail, we don't have any characters
  if (_rx_buffer_head == _rx_buffer_tail) {
    return -1;
    632c:	8f ef       	ldi	r24, 0xFF	; 255
    632e:	9f ef       	ldi	r25, 0xFF	; 255
  } else {
    unsigned char c = _rx_buffer[_rx_buffer_tail];
    _rx_buffer_tail = (rx_buffer_index_t)(_rx_buffer_tail + 1) % SERIAL_RX_BUFFER_SIZE;
    return c;
  }
}
    6330:	08 95       	ret

00006332 <_ZN14HardwareSerial17availableForWriteEv>:
{
  tx_buffer_index_t head;
  tx_buffer_index_t tail;

  TX_BUFFER_ATOMIC {
    head = _tx_buffer_head;
    6332:	fc 01       	movw	r30, r24
    6334:	53 8d       	ldd	r21, Z+27	; 0x1b
    tail = _tx_buffer_tail;
    6336:	44 8d       	ldd	r20, Z+28	; 0x1c
    6338:	25 2f       	mov	r18, r21
    633a:	30 e0       	ldi	r19, 0x00	; 0
    633c:	84 2f       	mov	r24, r20
    633e:	90 e0       	ldi	r25, 0x00	; 0
  }
  if (head >= tail) return SERIAL_TX_BUFFER_SIZE - 1 - head + tail;
    6340:	82 1b       	sub	r24, r18
    6342:	93 0b       	sbc	r25, r19
    6344:	54 17       	cp	r21, r20
    6346:	10 f0       	brcs	.+4      	; 0x634c <_ZN14HardwareSerial17availableForWriteEv+0x1a>
    6348:	cf 96       	adiw	r24, 0x3f	; 63
    634a:	08 95       	ret
  return tail - head - 1;
    634c:	01 97       	sbiw	r24, 0x01	; 1
}
    634e:	08 95       	ret

00006350 <_Z14serialEventRunv>:
#endif

void serialEventRun(void)
{
#if defined(HAVE_HWSERIAL0)
  if (Serial0_available && serialEvent && Serial0_available()) serialEvent();
    6350:	85 e3       	ldi	r24, 0x35	; 53
    6352:	93 e3       	ldi	r25, 0x33	; 51
    6354:	89 2b       	or	r24, r25
    6356:	39 f0       	breq	.+14     	; 0x6366 <_Z14serialEventRunv+0x16>
    6358:	80 e0       	ldi	r24, 0x00	; 0
    635a:	90 e0       	ldi	r25, 0x00	; 0
    635c:	89 2b       	or	r24, r25
    635e:	19 f0       	breq	.+6      	; 0x6366 <_Z14serialEventRunv+0x16>
    6360:	84 d1       	rcall	.+776    	; 0x666a <_Z17Serial0_availablev>
    6362:	81 11       	cpse	r24, r1
    6364:	25 c0       	rjmp	.+74     	; 0x63b0 <_Z14serialEventRunv+0x60>
#endif
#if defined(HAVE_HWSERIAL1)
  if (Serial1_available && serialEvent1 && Serial1_available()) serialEvent1();
    6366:	80 e0       	ldi	r24, 0x00	; 0
    6368:	90 e0       	ldi	r25, 0x00	; 0
    636a:	89 2b       	or	r24, r25
    636c:	41 f0       	breq	.+16     	; 0x637e <_Z14serialEventRunv+0x2e>
    636e:	80 e0       	ldi	r24, 0x00	; 0
    6370:	90 e0       	ldi	r25, 0x00	; 0
    6372:	89 2b       	or	r24, r25
    6374:	21 f0       	breq	.+8      	; 0x637e <_Z14serialEventRunv+0x2e>
    6376:	0e 94 00 00 	call	0	; 0x0 <__vectors>
    637a:	81 11       	cpse	r24, r1
    637c:	1c c0       	rjmp	.+56     	; 0x63b6 <_Z14serialEventRunv+0x66>
#endif
#if defined(HAVE_HWSERIAL2)
  if (Serial2_available && serialEvent2 && Serial2_available()) serialEvent2();
    637e:	80 e0       	ldi	r24, 0x00	; 0
    6380:	90 e0       	ldi	r25, 0x00	; 0
    6382:	89 2b       	or	r24, r25
    6384:	41 f0       	breq	.+16     	; 0x6396 <_Z14serialEventRunv+0x46>
    6386:	80 e0       	ldi	r24, 0x00	; 0
    6388:	90 e0       	ldi	r25, 0x00	; 0
    638a:	89 2b       	or	r24, r25
    638c:	21 f0       	breq	.+8      	; 0x6396 <_Z14serialEventRunv+0x46>
    638e:	0e 94 00 00 	call	0	; 0x0 <__vectors>
    6392:	81 11       	cpse	r24, r1
    6394:	13 c0       	rjmp	.+38     	; 0x63bc <_Z14serialEventRunv+0x6c>
#endif
#if defined(HAVE_HWSERIAL3)
  if (Serial3_available && serialEvent3 && Serial3_available()) serialEvent3();
    6396:	80 e0       	ldi	r24, 0x00	; 0
    6398:	90 e0       	ldi	r25, 0x00	; 0
    639a:	89 2b       	or	r24, r25
    639c:	a1 f0       	breq	.+40     	; 0x63c6 <_Z14serialEventRunv+0x76>
    639e:	80 e0       	ldi	r24, 0x00	; 0
    63a0:	90 e0       	ldi	r25, 0x00	; 0
    63a2:	89 2b       	or	r24, r25
    63a4:	81 f0       	breq	.+32     	; 0x63c6 <_Z14serialEventRunv+0x76>
    63a6:	0e 94 00 00 	call	0	; 0x0 <__vectors>
    63aa:	81 11       	cpse	r24, r1
    63ac:	0a c0       	rjmp	.+20     	; 0x63c2 <_Z14serialEventRunv+0x72>
    63ae:	08 95       	ret
#endif

void serialEventRun(void)
{
#if defined(HAVE_HWSERIAL0)
  if (Serial0_available && serialEvent && Serial0_available()) serialEvent();
    63b0:	0e 94 00 00 	call	0	; 0x0 <__vectors>
    63b4:	d8 cf       	rjmp	.-80     	; 0x6366 <_Z14serialEventRunv+0x16>
#endif
#if defined(HAVE_HWSERIAL1)
  if (Serial1_available && serialEvent1 && Serial1_available()) serialEvent1();
    63b6:	0e 94 00 00 	call	0	; 0x0 <__vectors>
    63ba:	e1 cf       	rjmp	.-62     	; 0x637e <_Z14serialEventRunv+0x2e>
#endif
#if defined(HAVE_HWSERIAL2)
  if (Serial2_available && serialEvent2 && Serial2_available()) serialEvent2();
    63bc:	0e 94 00 00 	call	0	; 0x0 <__vectors>
    63c0:	ea cf       	rjmp	.-44     	; 0x6396 <_Z14serialEventRunv+0x46>
#endif
#if defined(HAVE_HWSERIAL3)
  if (Serial3_available && serialEvent3 && Serial3_available()) serialEvent3();
    63c2:	0c 94 00 00 	jmp	0	; 0x0 <__vectors>
    63c6:	08 95       	ret

000063c8 <_ZN14HardwareSerial17_tx_udr_empty_irqEv>:
#endif

// Actual interrupt handlers //////////////////////////////////////////////////////////////

void HardwareSerial::_tx_udr_empty_irq(void)
{
    63c8:	fc 01       	movw	r30, r24
  // If interrupts are enabled, there must be more data in the output
  // buffer. Send the next byte
  unsigned char c = _tx_buffer[_tx_buffer_tail];
    63ca:	84 8d       	ldd	r24, Z+28	; 0x1c
    63cc:	df 01       	movw	r26, r30
    63ce:	a8 0f       	add	r26, r24
    63d0:	b1 1d       	adc	r27, r1
    63d2:	a3 5a       	subi	r26, 0xA3	; 163
    63d4:	bf 4f       	sbci	r27, 0xFF	; 255
    63d6:	2c 91       	ld	r18, X
  _tx_buffer_tail = (_tx_buffer_tail + 1) % SERIAL_TX_BUFFER_SIZE;
    63d8:	84 8d       	ldd	r24, Z+28	; 0x1c
    63da:	90 e0       	ldi	r25, 0x00	; 0
    63dc:	01 96       	adiw	r24, 0x01	; 1
    63de:	8f 73       	andi	r24, 0x3F	; 63
    63e0:	99 27       	eor	r25, r25
    63e2:	84 8f       	std	Z+28, r24	; 0x1c

  *_udr = c;
    63e4:	a6 89       	ldd	r26, Z+22	; 0x16
    63e6:	b7 89       	ldd	r27, Z+23	; 0x17
    63e8:	2c 93       	st	X, r18
  // location". This makes sure flush() won't return until the bytes
  // actually got written. Other r/w bits are preserved, and zeroes
  // written to the rest.

#ifdef MPCM0
  *_ucsra = ((*_ucsra) & ((1 << U2X0) | (1 << MPCM0))) | (1 << TXC0);
    63ea:	a0 89       	ldd	r26, Z+16	; 0x10
    63ec:	b1 89       	ldd	r27, Z+17	; 0x11
    63ee:	8c 91       	ld	r24, X
    63f0:	83 70       	andi	r24, 0x03	; 3
    63f2:	80 64       	ori	r24, 0x40	; 64
    63f4:	8c 93       	st	X, r24
#else
  *_ucsra = ((*_ucsra) & ((1 << U2X0) | (1 << TXC0)));
#endif

  if (_tx_buffer_head == _tx_buffer_tail) {
    63f6:	93 8d       	ldd	r25, Z+27	; 0x1b
    63f8:	84 8d       	ldd	r24, Z+28	; 0x1c
    63fa:	98 13       	cpse	r25, r24
    63fc:	06 c0       	rjmp	.+12     	; 0x640a <_ZN14HardwareSerial17_tx_udr_empty_irqEv+0x42>
    // Buffer empty, so disable interrupts
    cbi(*_ucsrb, UDRIE0);
    63fe:	02 88       	ldd	r0, Z+18	; 0x12
    6400:	f3 89       	ldd	r31, Z+19	; 0x13
    6402:	e0 2d       	mov	r30, r0
    6404:	80 81       	ld	r24, Z
    6406:	8f 7d       	andi	r24, 0xDF	; 223
    6408:	80 83       	st	Z, r24
    640a:	08 95       	ret

0000640c <_ZN14HardwareSerial5writeEh>:
  // If we get here, nothing is queued anymore (DRIE is disabled) and
  // the hardware finished tranmission (TXC is set).
}

size_t HardwareSerial::write(uint8_t c)
{
    640c:	ef 92       	push	r14
    640e:	ff 92       	push	r15
    6410:	0f 93       	push	r16
    6412:	1f 93       	push	r17
    6414:	cf 93       	push	r28
    6416:	df 93       	push	r29
    6418:	ec 01       	movw	r28, r24
  _written = true;
    641a:	81 e0       	ldi	r24, 0x01	; 1
    641c:	88 8f       	std	Y+24, r24	; 0x18
  // If the buffer and the data register is empty, just write the byte
  // to the data register and be done. This shortcut helps
  // significantly improve the effective datarate at high (>
  // 500kbit/s) bitrates, where interrupt overhead becomes a slowdown.
  if (_tx_buffer_head == _tx_buffer_tail && bit_is_set(*_ucsra, UDRE0)) {
    641e:	9b 8d       	ldd	r25, Y+27	; 0x1b
    6420:	8c 8d       	ldd	r24, Y+28	; 0x1c
    6422:	98 13       	cpse	r25, r24
    6424:	05 c0       	rjmp	.+10     	; 0x6430 <_ZN14HardwareSerial5writeEh+0x24>
    6426:	e8 89       	ldd	r30, Y+16	; 0x10
    6428:	f9 89       	ldd	r31, Y+17	; 0x11
    642a:	80 81       	ld	r24, Z
    642c:	85 fd       	sbrc	r24, 5
    642e:	25 c0       	rjmp	.+74     	; 0x647a <_ZN14HardwareSerial5writeEh+0x6e>
    6430:	f6 2e       	mov	r15, r22
      *_ucsra = ((*_ucsra) & ((1 << U2X0) | (1 << TXC0)));
#endif
    }
    return 1;
  }
  tx_buffer_index_t i = (_tx_buffer_head + 1) % SERIAL_TX_BUFFER_SIZE;
    6432:	0b 8d       	ldd	r16, Y+27	; 0x1b
    6434:	10 e0       	ldi	r17, 0x00	; 0
    6436:	0f 5f       	subi	r16, 0xFF	; 255
    6438:	1f 4f       	sbci	r17, 0xFF	; 255
    643a:	0f 73       	andi	r16, 0x3F	; 63
    643c:	11 27       	eor	r17, r17
    643e:	e0 2e       	mov	r14, r16
	
  // If the output buffer is full, there's nothing for it other than to 
  // wait for the interrupt handler to empty it a bit
  while (i == _tx_buffer_tail) {
    6440:	8c 8d       	ldd	r24, Y+28	; 0x1c
    6442:	e8 12       	cpse	r14, r24
    6444:	0b c0       	rjmp	.+22     	; 0x645c <_ZN14HardwareSerial5writeEh+0x50>
    if (bit_is_clear(SREG, SREG_I)) {
    6446:	0f b6       	in	r0, 0x3f	; 63
    6448:	07 fc       	sbrc	r0, 7
    644a:	fa cf       	rjmp	.-12     	; 0x6440 <_ZN14HardwareSerial5writeEh+0x34>
      // Interrupts are disabled, so we'll have to poll the data
      // register empty flag ourselves. If it is set, pretend an
      // interrupt has happened and call the handler to free up
      // space for us.
      if(bit_is_set(*_ucsra, UDRE0))
    644c:	e8 89       	ldd	r30, Y+16	; 0x10
    644e:	f9 89       	ldd	r31, Y+17	; 0x11
    6450:	80 81       	ld	r24, Z
    6452:	85 ff       	sbrs	r24, 5
    6454:	f5 cf       	rjmp	.-22     	; 0x6440 <_ZN14HardwareSerial5writeEh+0x34>
	_tx_udr_empty_irq();
    6456:	ce 01       	movw	r24, r28
    6458:	b7 df       	rcall	.-146    	; 0x63c8 <_ZN14HardwareSerial17_tx_udr_empty_irqEv>
    645a:	f2 cf       	rjmp	.-28     	; 0x6440 <_ZN14HardwareSerial5writeEh+0x34>
    } else {
      // nop, the interrupt handler will free up space for us
    }
  }

  _tx_buffer[_tx_buffer_head] = c;
    645c:	8b 8d       	ldd	r24, Y+27	; 0x1b
    645e:	fe 01       	movw	r30, r28
    6460:	e8 0f       	add	r30, r24
    6462:	f1 1d       	adc	r31, r1
    6464:	e3 5a       	subi	r30, 0xA3	; 163
    6466:	ff 4f       	sbci	r31, 0xFF	; 255
    6468:	f0 82       	st	Z, r15

  // make atomic to prevent execution of ISR between setting the
  // head pointer and setting the interrupt flag resulting in buffer
  // retransmission
  ATOMIC_BLOCK(ATOMIC_RESTORESTATE) {
    646a:	9f b7       	in	r25, 0x3f	; 63
    return 1;
}

static __inline__ uint8_t __iCliRetVal(void)
{
    cli();
    646c:	f8 94       	cli
    _tx_buffer_head = i;
    646e:	0b 8f       	std	Y+27, r16	; 0x1b
    sbi(*_ucsrb, UDRIE0);
    6470:	ea 89       	ldd	r30, Y+18	; 0x12
    6472:	fb 89       	ldd	r31, Y+19	; 0x13
    6474:	80 81       	ld	r24, Z
    6476:	80 62       	ori	r24, 0x20	; 32
    6478:	0a c0       	rjmp	.+20     	; 0x648e <_ZN14HardwareSerial5writeEh+0x82>
    // So writing UDR must happen first.
    // Writing UDR and clearing TC must be done atomically, otherwise
    // interrupts might delay the TXC clear so the byte written to UDR
    // is transmitted (setting TXC) before clearing TXC. Then TXC will
    // be cleared when no bytes are left, causing flush() to hang
    ATOMIC_BLOCK(ATOMIC_RESTORESTATE) {
    647a:	9f b7       	in	r25, 0x3f	; 63
    647c:	f8 94       	cli
      *_udr = c;
    647e:	ee 89       	ldd	r30, Y+22	; 0x16
    6480:	ff 89       	ldd	r31, Y+23	; 0x17
    6482:	60 83       	st	Z, r22
#ifdef MPCM0
      *_ucsra = ((*_ucsra) & ((1 << U2X0) | (1 << MPCM0))) | (1 << TXC0);
    6484:	e8 89       	ldd	r30, Y+16	; 0x10
    6486:	f9 89       	ldd	r31, Y+17	; 0x11
    6488:	80 81       	ld	r24, Z
    648a:	83 70       	andi	r24, 0x03	; 3
    648c:	80 64       	ori	r24, 0x40	; 64
    648e:	80 83       	st	Z, r24
    (void)__s;
}

static __inline__ void __iRestore(const  uint8_t *__s)
{
    SREG = *__s;
    6490:	9f bf       	out	0x3f, r25	; 63
    _tx_buffer_head = i;
    sbi(*_ucsrb, UDRIE0);
  }
  
  return 1;
}
    6492:	81 e0       	ldi	r24, 0x01	; 1
    6494:	90 e0       	ldi	r25, 0x00	; 0
    6496:	df 91       	pop	r29
    6498:	cf 91       	pop	r28
    649a:	1f 91       	pop	r17
    649c:	0f 91       	pop	r16
    649e:	ff 90       	pop	r15
    64a0:	ef 90       	pop	r14
    64a2:	08 95       	ret

000064a4 <_ZN14HardwareSerial5flushEv>:
  if (head >= tail) return SERIAL_TX_BUFFER_SIZE - 1 - head + tail;
  return tail - head - 1;
}

void HardwareSerial::flush()
{
    64a4:	cf 93       	push	r28
    64a6:	df 93       	push	r29
    64a8:	ec 01       	movw	r28, r24
  // If we have never written a byte, no need to flush. This special
  // case is needed since there is no way to force the TXC (transmit
  // complete) bit to 1 during initialization
  if (!_written)
    64aa:	88 8d       	ldd	r24, Y+24	; 0x18
    64ac:	88 23       	and	r24, r24
    64ae:	c1 f0       	breq	.+48     	; 0x64e0 <_ZN14HardwareSerial5flushEv+0x3c>
    return;

  while (bit_is_set(*_ucsrb, UDRIE0) || bit_is_clear(*_ucsra, TXC0)) {
    64b0:	ea 89       	ldd	r30, Y+18	; 0x12
    64b2:	fb 89       	ldd	r31, Y+19	; 0x13
    64b4:	80 81       	ld	r24, Z
    64b6:	85 fd       	sbrc	r24, 5
    64b8:	05 c0       	rjmp	.+10     	; 0x64c4 <_ZN14HardwareSerial5flushEv+0x20>
    64ba:	a8 89       	ldd	r26, Y+16	; 0x10
    64bc:	b9 89       	ldd	r27, Y+17	; 0x11
    64be:	8c 91       	ld	r24, X
    64c0:	86 fd       	sbrc	r24, 6
    64c2:	0e c0       	rjmp	.+28     	; 0x64e0 <_ZN14HardwareSerial5flushEv+0x3c>
    if (bit_is_clear(SREG, SREG_I) && bit_is_set(*_ucsrb, UDRIE0))
    64c4:	0f b6       	in	r0, 0x3f	; 63
    64c6:	07 fc       	sbrc	r0, 7
    64c8:	f5 cf       	rjmp	.-22     	; 0x64b4 <_ZN14HardwareSerial5flushEv+0x10>
    64ca:	80 81       	ld	r24, Z
    64cc:	85 ff       	sbrs	r24, 5
    64ce:	f2 cf       	rjmp	.-28     	; 0x64b4 <_ZN14HardwareSerial5flushEv+0x10>
	// Interrupts are globally disabled, but the DR empty
	// interrupt should be enabled, so poll the DR empty flag to
	// prevent deadlock
	if (bit_is_set(*_ucsra, UDRE0))
    64d0:	a8 89       	ldd	r26, Y+16	; 0x10
    64d2:	b9 89       	ldd	r27, Y+17	; 0x11
    64d4:	8c 91       	ld	r24, X
    64d6:	85 ff       	sbrs	r24, 5
    64d8:	ed cf       	rjmp	.-38     	; 0x64b4 <_ZN14HardwareSerial5flushEv+0x10>
	  _tx_udr_empty_irq();
    64da:	ce 01       	movw	r24, r28
    64dc:	75 df       	rcall	.-278    	; 0x63c8 <_ZN14HardwareSerial17_tx_udr_empty_irqEv>
    64de:	e8 cf       	rjmp	.-48     	; 0x64b0 <_ZN14HardwareSerial5flushEv+0xc>
  }
  // If we get here, nothing is queued anymore (DRIE is disabled) and
  // the hardware finished tranmission (TXC is set).
}
    64e0:	df 91       	pop	r29
    64e2:	cf 91       	pop	r28
    64e4:	08 95       	ret

000064e6 <_ZN14HardwareSerial5beginEmh>:
}

// Public Methods //////////////////////////////////////////////////////////////

void HardwareSerial::begin(unsigned long baud, byte config)
{
    64e6:	cf 92       	push	r12
    64e8:	df 92       	push	r13
    64ea:	ef 92       	push	r14
    64ec:	ff 92       	push	r15
    64ee:	1f 93       	push	r17
    64f0:	cf 93       	push	r28
    64f2:	df 93       	push	r29
    64f4:	ec 01       	movw	r28, r24
    64f6:	6a 01       	movw	r12, r20
    64f8:	7b 01       	movw	r14, r22
    64fa:	12 2f       	mov	r17, r18
  // Try u2x mode first
  uint16_t baud_setting = (F_CPU / 4 / baud - 1) / 2;
  *_ucsra = 1 << U2X0;
    64fc:	e8 89       	ldd	r30, Y+16	; 0x10
    64fe:	f9 89       	ldd	r31, Y+17	; 0x11
    6500:	82 e0       	ldi	r24, 0x02	; 2
    6502:	80 83       	st	Z, r24
  // hardcoded exception for 57600 for compatibility with the bootloader
  // shipped with the Duemilanove and previous boards and the firmware
  // on the 8U2 on the Uno and Mega 2560. Also, The baud_setting cannot
  // be > 4095, so switch back to non-u2x mode if the baud rate is too
  // low.
  if (((F_CPU == 16000000UL) && (baud == 57600)) || (baud_setting >4095))
    6504:	41 15       	cp	r20, r1
    6506:	51 4e       	sbci	r21, 0xE1	; 225
    6508:	61 05       	cpc	r22, r1
    650a:	71 05       	cpc	r23, r1
    650c:	a9 f0       	breq	.+42     	; 0x6538 <_ZN14HardwareSerial5beginEmh+0x52>
// Public Methods //////////////////////////////////////////////////////////////

void HardwareSerial::begin(unsigned long baud, byte config)
{
  // Try u2x mode first
  uint16_t baud_setting = (F_CPU / 4 / baud - 1) / 2;
    650e:	60 e0       	ldi	r22, 0x00	; 0
    6510:	79 e0       	ldi	r23, 0x09	; 9
    6512:	8d e3       	ldi	r24, 0x3D	; 61
    6514:	90 e0       	ldi	r25, 0x00	; 0
    6516:	a7 01       	movw	r20, r14
    6518:	96 01       	movw	r18, r12
    651a:	2a d3       	rcall	.+1620   	; 0x6b70 <__udivmodsi4>
    651c:	da 01       	movw	r26, r20
    651e:	c9 01       	movw	r24, r18
    6520:	01 97       	sbiw	r24, 0x01	; 1
    6522:	a1 09       	sbc	r26, r1
    6524:	b1 09       	sbc	r27, r1
    6526:	b6 95       	lsr	r27
    6528:	a7 95       	ror	r26
    652a:	97 95       	ror	r25
    652c:	87 95       	ror	r24
    652e:	9c 01       	movw	r18, r24
  // hardcoded exception for 57600 for compatibility with the bootloader
  // shipped with the Duemilanove and previous boards and the firmware
  // on the 8U2 on the Uno and Mega 2560. Also, The baud_setting cannot
  // be > 4095, so switch back to non-u2x mode if the baud rate is too
  // low.
  if (((F_CPU == 16000000UL) && (baud == 57600)) || (baud_setting >4095))
    6530:	21 15       	cp	r18, r1
    6532:	80 e1       	ldi	r24, 0x10	; 16
    6534:	38 07       	cpc	r19, r24
    6536:	a0 f0       	brcs	.+40     	; 0x6560 <_ZN14HardwareSerial5beginEmh+0x7a>
  {
    *_ucsra = 0;
    6538:	e8 89       	ldd	r30, Y+16	; 0x10
    653a:	f9 89       	ldd	r31, Y+17	; 0x11
    653c:	10 82       	st	Z, r1
    baud_setting = (F_CPU / 8 / baud - 1) / 2;
    653e:	60 e8       	ldi	r22, 0x80	; 128
    6540:	74 e8       	ldi	r23, 0x84	; 132
    6542:	8e e1       	ldi	r24, 0x1E	; 30
    6544:	90 e0       	ldi	r25, 0x00	; 0
    6546:	a7 01       	movw	r20, r14
    6548:	96 01       	movw	r18, r12
    654a:	12 d3       	rcall	.+1572   	; 0x6b70 <__udivmodsi4>
    654c:	da 01       	movw	r26, r20
    654e:	c9 01       	movw	r24, r18
    6550:	01 97       	sbiw	r24, 0x01	; 1
    6552:	a1 09       	sbc	r26, r1
    6554:	b1 09       	sbc	r27, r1
    6556:	b6 95       	lsr	r27
    6558:	a7 95       	ror	r26
    655a:	97 95       	ror	r25
    655c:	87 95       	ror	r24
    655e:	9c 01       	movw	r18, r24
  }

  // assign the baud_setting, a.k.a. ubrr (USART Baud Rate Register)
  *_ubrrh = baud_setting >> 8;
    6560:	ec 85       	ldd	r30, Y+12	; 0x0c
    6562:	fd 85       	ldd	r31, Y+13	; 0x0d
    6564:	30 83       	st	Z, r19
  *_ubrrl = baud_setting;
    6566:	ee 85       	ldd	r30, Y+14	; 0x0e
    6568:	ff 85       	ldd	r31, Y+15	; 0x0f
    656a:	20 83       	st	Z, r18

  _written = false;
    656c:	18 8e       	std	Y+24, r1	; 0x18

  //set the data bits, parity, and stop bits
#if defined(__AVR_ATmega8__)
  config |= 0x80; // select UCSRC register (shared with UBRRH)
#endif
  *_ucsrc = config;
    656e:	ec 89       	ldd	r30, Y+20	; 0x14
    6570:	fd 89       	ldd	r31, Y+21	; 0x15
    6572:	10 83       	st	Z, r17
  
  sbi(*_ucsrb, RXEN0);
    6574:	ea 89       	ldd	r30, Y+18	; 0x12
    6576:	fb 89       	ldd	r31, Y+19	; 0x13
    6578:	80 81       	ld	r24, Z
    657a:	80 61       	ori	r24, 0x10	; 16
    657c:	80 83       	st	Z, r24
  sbi(*_ucsrb, TXEN0);
    657e:	ea 89       	ldd	r30, Y+18	; 0x12
    6580:	fb 89       	ldd	r31, Y+19	; 0x13
    6582:	80 81       	ld	r24, Z
    6584:	88 60       	ori	r24, 0x08	; 8
    6586:	80 83       	st	Z, r24
  sbi(*_ucsrb, RXCIE0);
    6588:	ea 89       	ldd	r30, Y+18	; 0x12
    658a:	fb 89       	ldd	r31, Y+19	; 0x13
    658c:	80 81       	ld	r24, Z
    658e:	80 68       	ori	r24, 0x80	; 128
    6590:	80 83       	st	Z, r24
  cbi(*_ucsrb, UDRIE0);
    6592:	ea 89       	ldd	r30, Y+18	; 0x12
    6594:	fb 89       	ldd	r31, Y+19	; 0x13
    6596:	80 81       	ld	r24, Z
    6598:	8f 7d       	andi	r24, 0xDF	; 223
    659a:	80 83       	st	Z, r24
}
    659c:	df 91       	pop	r29
    659e:	cf 91       	pop	r28
    65a0:	1f 91       	pop	r17
    65a2:	ff 90       	pop	r15
    65a4:	ef 90       	pop	r14
    65a6:	df 90       	pop	r13
    65a8:	cf 90       	pop	r12
    65aa:	08 95       	ret

000065ac <__vector_25>:
#elif defined(USART_RXC_vect)
  ISR(USART_RXC_vect) // ATmega8
#else
  #error "Don't know what the Data Received vector is called for Serial"
#endif
  {
    65ac:	1f 92       	push	r1
    65ae:	0f 92       	push	r0
    65b0:	0f b6       	in	r0, 0x3f	; 63
    65b2:	0f 92       	push	r0
    65b4:	11 24       	eor	r1, r1
    65b6:	0b b6       	in	r0, 0x3b	; 59
    65b8:	0f 92       	push	r0
    65ba:	2f 93       	push	r18
    65bc:	8f 93       	push	r24
    65be:	9f 93       	push	r25
    65c0:	ef 93       	push	r30
    65c2:	ff 93       	push	r31

// Actual interrupt handlers //////////////////////////////////////////////////////////////

void HardwareSerial::_rx_complete_irq(void)
{
  if (bit_is_clear(*_ucsra, UPE0)) {
    65c4:	e0 91 63 04 	lds	r30, 0x0463	; 0x800463 <Serial+0x10>
    65c8:	f0 91 64 04 	lds	r31, 0x0464	; 0x800464 <Serial+0x11>
    65cc:	80 81       	ld	r24, Z
    65ce:	e0 91 69 04 	lds	r30, 0x0469	; 0x800469 <Serial+0x16>
    65d2:	f0 91 6a 04 	lds	r31, 0x046A	; 0x80046a <Serial+0x17>
    65d6:	82 fd       	sbrc	r24, 2
    65d8:	12 c0       	rjmp	.+36     	; 0x65fe <__vector_25+0x52>
    // No Parity error, read byte and store it in the buffer if there is
    // room
    unsigned char c = *_udr;
    65da:	90 81       	ld	r25, Z
    rx_buffer_index_t i = (unsigned int)(_rx_buffer_head + 1) % SERIAL_RX_BUFFER_SIZE;
    65dc:	80 91 6c 04 	lds	r24, 0x046C	; 0x80046c <Serial+0x19>
    65e0:	8f 5f       	subi	r24, 0xFF	; 255
    65e2:	8f 73       	andi	r24, 0x3F	; 63

    // if we should be storing the received character into the location
    // just before the tail (meaning that the head would advance to the
    // current location of the tail), we're about to overflow the buffer
    // and so we don't write the character or advance the head.
    if (i != _rx_buffer_tail) {
    65e4:	20 91 6d 04 	lds	r18, 0x046D	; 0x80046d <Serial+0x1a>
    65e8:	82 17       	cp	r24, r18
    65ea:	51 f0       	breq	.+20     	; 0x6600 <__vector_25+0x54>
      _rx_buffer[_rx_buffer_head] = c;
    65ec:	e0 91 6c 04 	lds	r30, 0x046C	; 0x80046c <Serial+0x19>
    65f0:	f0 e0       	ldi	r31, 0x00	; 0
    65f2:	ed 5a       	subi	r30, 0xAD	; 173
    65f4:	fb 4f       	sbci	r31, 0xFB	; 251
    65f6:	95 8f       	std	Z+29, r25	; 0x1d
      _rx_buffer_head = i;
    65f8:	80 93 6c 04 	sts	0x046C, r24	; 0x80046c <Serial+0x19>
    65fc:	01 c0       	rjmp	.+2      	; 0x6600 <__vector_25+0x54>
    }
  } else {
    // Parity error, read byte but discard it
    *_udr;
    65fe:	80 81       	ld	r24, Z
    Serial._rx_complete_irq();
  }
    6600:	ff 91       	pop	r31
    6602:	ef 91       	pop	r30
    6604:	9f 91       	pop	r25
    6606:	8f 91       	pop	r24
    6608:	2f 91       	pop	r18
    660a:	0f 90       	pop	r0
    660c:	0b be       	out	0x3b, r0	; 59
    660e:	0f 90       	pop	r0
    6610:	0f be       	out	0x3f, r0	; 63
    6612:	0f 90       	pop	r0
    6614:	1f 90       	pop	r1
    6616:	18 95       	reti

00006618 <__vector_26>:
#elif defined(USART_UDRE_vect)
ISR(USART_UDRE_vect)
#else
  #error "Don't know what the Data Register Empty vector is called for Serial"
#endif
{
    6618:	1f 92       	push	r1
    661a:	0f 92       	push	r0
    661c:	0f b6       	in	r0, 0x3f	; 63
    661e:	0f 92       	push	r0
    6620:	11 24       	eor	r1, r1
    6622:	0b b6       	in	r0, 0x3b	; 59
    6624:	0f 92       	push	r0
    6626:	2f 93       	push	r18
    6628:	3f 93       	push	r19
    662a:	4f 93       	push	r20
    662c:	5f 93       	push	r21
    662e:	6f 93       	push	r22
    6630:	7f 93       	push	r23
    6632:	8f 93       	push	r24
    6634:	9f 93       	push	r25
    6636:	af 93       	push	r26
    6638:	bf 93       	push	r27
    663a:	ef 93       	push	r30
    663c:	ff 93       	push	r31
  Serial._tx_udr_empty_irq();
    663e:	83 e5       	ldi	r24, 0x53	; 83
    6640:	94 e0       	ldi	r25, 0x04	; 4
    6642:	c2 de       	rcall	.-636    	; 0x63c8 <_ZN14HardwareSerial17_tx_udr_empty_irqEv>
}
    6644:	ff 91       	pop	r31
    6646:	ef 91       	pop	r30
    6648:	bf 91       	pop	r27
    664a:	af 91       	pop	r26
    664c:	9f 91       	pop	r25
    664e:	8f 91       	pop	r24
    6650:	7f 91       	pop	r23
    6652:	6f 91       	pop	r22
    6654:	5f 91       	pop	r21
    6656:	4f 91       	pop	r20
    6658:	3f 91       	pop	r19
    665a:	2f 91       	pop	r18
    665c:	0f 90       	pop	r0
    665e:	0b be       	out	0x3b, r0	; 59
    6660:	0f 90       	pop	r0
    6662:	0f be       	out	0x3f, r0	; 63
    6664:	0f 90       	pop	r0
    6666:	1f 90       	pop	r1
    6668:	18 95       	reti

0000666a <_Z17Serial0_availablev>:
#endif

// Function that can be weakly referenced by serialEventRun to prevent
// pulling in this file if it's not otherwise used.
bool Serial0_available() {
  return Serial.available();
    666a:	83 e5       	ldi	r24, 0x53	; 83
    666c:	94 e0       	ldi	r25, 0x04	; 4
    666e:	33 de       	rcall	.-922    	; 0x62d6 <_ZN14HardwareSerial9availableEv>
    6670:	21 e0       	ldi	r18, 0x01	; 1
    6672:	89 2b       	or	r24, r25
    6674:	09 f4       	brne	.+2      	; 0x6678 <_Z17Serial0_availablev+0xe>
    6676:	20 e0       	ldi	r18, 0x00	; 0
}
    6678:	82 2f       	mov	r24, r18
    667a:	08 95       	ret

0000667c <_GLOBAL__sub_I___vector_25>:
    size_t printNumber(unsigned long, uint8_t);
    size_t printFloat(double, uint8_t);
  protected:
    void setWriteError(int err = 1) { write_error = err; }
  public:
    Print() : write_error(0) {}
    667c:	e3 e5       	ldi	r30, 0x53	; 83
    667e:	f4 e0       	ldi	r31, 0x04	; 4
    6680:	13 82       	std	Z+3, r1	; 0x03
    6682:	12 82       	std	Z+2, r1	; 0x02
  public:
    virtual int available() = 0;
    virtual int read() = 0;
    virtual int peek() = 0;

    Stream() {_timeout=1000;}
    6684:	88 ee       	ldi	r24, 0xE8	; 232
    6686:	93 e0       	ldi	r25, 0x03	; 3
    6688:	a0 e0       	ldi	r26, 0x00	; 0
    668a:	b0 e0       	ldi	r27, 0x00	; 0
    668c:	84 83       	std	Z+4, r24	; 0x04
    668e:	95 83       	std	Z+5, r25	; 0x05
    6690:	a6 83       	std	Z+6, r26	; 0x06
    6692:	b7 83       	std	Z+7, r27	; 0x07
  volatile uint8_t *ucsrc, volatile uint8_t *udr) :
    _ubrrh(ubrrh), _ubrrl(ubrrl),
    _ucsra(ucsra), _ucsrb(ucsrb), _ucsrc(ucsrc),
    _udr(udr),
    _rx_buffer_head(0), _rx_buffer_tail(0),
    _tx_buffer_head(0), _tx_buffer_tail(0)
    6694:	86 e8       	ldi	r24, 0x86	; 134
    6696:	92 e0       	ldi	r25, 0x02	; 2
    6698:	91 83       	std	Z+1, r25	; 0x01
    669a:	80 83       	st	Z, r24
    669c:	85 ec       	ldi	r24, 0xC5	; 197
    669e:	90 e0       	ldi	r25, 0x00	; 0
    66a0:	95 87       	std	Z+13, r25	; 0x0d
    66a2:	84 87       	std	Z+12, r24	; 0x0c
    66a4:	84 ec       	ldi	r24, 0xC4	; 196
    66a6:	90 e0       	ldi	r25, 0x00	; 0
    66a8:	97 87       	std	Z+15, r25	; 0x0f
    66aa:	86 87       	std	Z+14, r24	; 0x0e
    66ac:	80 ec       	ldi	r24, 0xC0	; 192
    66ae:	90 e0       	ldi	r25, 0x00	; 0
    66b0:	91 8b       	std	Z+17, r25	; 0x11
    66b2:	80 8b       	std	Z+16, r24	; 0x10
    66b4:	81 ec       	ldi	r24, 0xC1	; 193
    66b6:	90 e0       	ldi	r25, 0x00	; 0
    66b8:	93 8b       	std	Z+19, r25	; 0x13
    66ba:	82 8b       	std	Z+18, r24	; 0x12
    66bc:	82 ec       	ldi	r24, 0xC2	; 194
    66be:	90 e0       	ldi	r25, 0x00	; 0
    66c0:	95 8b       	std	Z+21, r25	; 0x15
    66c2:	84 8b       	std	Z+20, r24	; 0x14
    66c4:	86 ec       	ldi	r24, 0xC6	; 198
    66c6:	90 e0       	ldi	r25, 0x00	; 0
    66c8:	97 8b       	std	Z+23, r25	; 0x17
    66ca:	86 8b       	std	Z+22, r24	; 0x16
    66cc:	11 8e       	std	Z+25, r1	; 0x19
    66ce:	12 8e       	std	Z+26, r1	; 0x1a
    66d0:	13 8e       	std	Z+27, r1	; 0x1b
    66d2:	14 8e       	std	Z+28, r1	; 0x1c
    66d4:	08 95       	ret

000066d6 <yield>:
 * libraries or sketches that supports cooperative threads.
 *
 * Its defined as a weak symbol and it can be redefined to implement a
 * real cooperative scheduler.
 */
static void __empty() {
    66d6:	08 95       	ret

000066d8 <initVariant>:
    66d8:	08 95       	ret

000066da <main>:
void setupUSB() __attribute__((weak));
void setupUSB() { }

int main(void)
{
	init();
    66da:	29 d1       	rcall	.+594    	; 0x692e <init>

	initVariant();
    66dc:	fd df       	rcall	.-6      	; 0x66d8 <initVariant>
    66de:	0e 94 8c 0f 	call	0x1f18	; 0x1f18 <setup>

#if defined(USBCON)
	USBDevice.attach();
#endif
	
	setup();
    66e2:	c8 ea       	ldi	r28, 0xA8	; 168
    
	for (;;) {
		loop();
		if (serialEventRun) serialEventRun();
    66e4:	d1 e3       	ldi	r29, 0x31	; 49
    66e6:	0e 94 b2 0f 	call	0x1f64	; 0x1f64 <loop>
#endif
	
	setup();
    
	for (;;) {
		loop();
    66ea:	20 97       	sbiw	r28, 0x00	; 0
		if (serialEventRun) serialEventRun();
    66ec:	e1 f3       	breq	.-8      	; 0x66e6 <main+0xc>
    66ee:	30 de       	rcall	.-928    	; 0x6350 <_Z14serialEventRunv>
    66f0:	fa cf       	rjmp	.-12     	; 0x66e6 <main+0xc>

000066f2 <_ZN5Print5writeEPKhj>:
    66f2:	cf 92       	push	r12
  return n;
}

size_t Print::print(const Printable& x)
{
  return x.printTo(*this);
    66f4:	df 92       	push	r13
    66f6:	ef 92       	push	r14
    66f8:	ff 92       	push	r15
    66fa:	0f 93       	push	r16
    66fc:	1f 93       	push	r17
    66fe:	cf 93       	push	r28
    6700:	df 93       	push	r29
    6702:	6c 01       	movw	r12, r24
    6704:	7a 01       	movw	r14, r20
    6706:	8b 01       	movw	r16, r22
    6708:	c0 e0       	ldi	r28, 0x00	; 0
    670a:	d0 e0       	ldi	r29, 0x00	; 0
    670c:	ce 15       	cp	r28, r14
    670e:	df 05       	cpc	r29, r15
    6710:	81 f0       	breq	.+32     	; 0x6732 <_ZN5Print5writeEPKhj+0x40>
    6712:	d8 01       	movw	r26, r16
    6714:	6d 91       	ld	r22, X+
    6716:	8d 01       	movw	r16, r26
    6718:	d6 01       	movw	r26, r12
    671a:	ed 91       	ld	r30, X+
    671c:	fc 91       	ld	r31, X
    671e:	01 90       	ld	r0, Z+
    6720:	f0 81       	ld	r31, Z
    6722:	e0 2d       	mov	r30, r0
    6724:	c6 01       	movw	r24, r12
    6726:	19 95       	eicall
    6728:	89 2b       	or	r24, r25
    672a:	11 f0       	breq	.+4      	; 0x6730 <_ZN5Print5writeEPKhj+0x3e>
    672c:	21 96       	adiw	r28, 0x01	; 1
    672e:	ee cf       	rjmp	.-36     	; 0x670c <_ZN5Print5writeEPKhj+0x1a>
    6730:	7e 01       	movw	r14, r28
    6732:	c7 01       	movw	r24, r14
    6734:	df 91       	pop	r29
    6736:	cf 91       	pop	r28
    6738:	1f 91       	pop	r17
    673a:	0f 91       	pop	r16
    673c:	ff 90       	pop	r15
    673e:	ef 90       	pop	r14
    6740:	df 90       	pop	r13
    6742:	cf 90       	pop	r12
    6744:	08 95       	ret

00006746 <_ZN5Print5writeEPKc>:
    6746:	61 15       	cp	r22, r1
    6748:	71 05       	cpc	r23, r1
    674a:	79 f0       	breq	.+30     	; 0x676a <_ZN5Print5writeEPKc+0x24>
    674c:	fb 01       	movw	r30, r22
    674e:	01 90       	ld	r0, Z+
    6750:	00 20       	and	r0, r0
    6752:	e9 f7       	brne	.-6      	; 0x674e <_ZN5Print5writeEPKc+0x8>
    6754:	31 97       	sbiw	r30, 0x01	; 1
    6756:	af 01       	movw	r20, r30
    6758:	46 1b       	sub	r20, r22
    675a:	57 0b       	sbc	r21, r23
    675c:	dc 01       	movw	r26, r24
    675e:	ed 91       	ld	r30, X+
    6760:	fc 91       	ld	r31, X
    6762:	02 80       	ldd	r0, Z+2	; 0x02
    6764:	f3 81       	ldd	r31, Z+3	; 0x03
    6766:	e0 2d       	mov	r30, r0
    6768:	19 94       	eijmp
    676a:	80 e0       	ldi	r24, 0x00	; 0
    676c:	90 e0       	ldi	r25, 0x00	; 0
    676e:	08 95       	ret

00006770 <_ZN5Print5printEPK19__FlashStringHelper>:
    6770:	ef 92       	push	r14
    6772:	ff 92       	push	r15
    6774:	0f 93       	push	r16
    6776:	1f 93       	push	r17
    6778:	cf 93       	push	r28
    677a:	df 93       	push	r29
    677c:	8c 01       	movw	r16, r24
    677e:	7b 01       	movw	r14, r22
    6780:	c0 e0       	ldi	r28, 0x00	; 0
    6782:	d0 e0       	ldi	r29, 0x00	; 0
    6784:	f7 01       	movw	r30, r14
    6786:	ec 0f       	add	r30, r28
    6788:	fd 1f       	adc	r31, r29
    678a:	64 91       	lpm	r22, Z
    678c:	66 23       	and	r22, r22
    678e:	61 f0       	breq	.+24     	; 0x67a8 <_ZN5Print5printEPK19__FlashStringHelper+0x38>
    6790:	d8 01       	movw	r26, r16
    6792:	ed 91       	ld	r30, X+
    6794:	fc 91       	ld	r31, X
    6796:	01 90       	ld	r0, Z+
    6798:	f0 81       	ld	r31, Z
    679a:	e0 2d       	mov	r30, r0
    679c:	c8 01       	movw	r24, r16
    679e:	19 95       	eicall
    67a0:	89 2b       	or	r24, r25
    67a2:	11 f0       	breq	.+4      	; 0x67a8 <_ZN5Print5printEPK19__FlashStringHelper+0x38>
    67a4:	21 96       	adiw	r28, 0x01	; 1
    67a6:	ee cf       	rjmp	.-36     	; 0x6784 <_ZN5Print5printEPK19__FlashStringHelper+0x14>
    67a8:	ce 01       	movw	r24, r28
    67aa:	df 91       	pop	r29
    67ac:	cf 91       	pop	r28
    67ae:	1f 91       	pop	r17
    67b0:	0f 91       	pop	r16
    67b2:	ff 90       	pop	r15
    67b4:	ef 90       	pop	r14
    67b6:	08 95       	ret

000067b8 <_ZN5Print7printlnEv>:
}

size_t Print::println(void)
{
  return write("\r\n");
    67b8:	64 e9       	ldi	r22, 0x94	; 148
    67ba:	72 e0       	ldi	r23, 0x02	; 2
    67bc:	c4 cf       	rjmp	.-120    	; 0x6746 <_ZN5Print5writeEPKc>

000067be <_ZN5Print7printlnEPK19__FlashStringHelper>:
{
  return printFloat(n, digits);
}

size_t Print::println(const __FlashStringHelper *ifsh)
{
    67be:	0f 93       	push	r16
    67c0:	1f 93       	push	r17
    67c2:	cf 93       	push	r28
    67c4:	df 93       	push	r29
    67c6:	ec 01       	movw	r28, r24
  size_t n = print(ifsh);
    67c8:	d3 df       	rcall	.-90     	; 0x6770 <_ZN5Print5printEPK19__FlashStringHelper>
    67ca:	8c 01       	movw	r16, r24
  n += println();
    67cc:	ce 01       	movw	r24, r28
    67ce:	f4 df       	rcall	.-24     	; 0x67b8 <_ZN5Print7printlnEv>
  return n;
}
    67d0:	80 0f       	add	r24, r16
    67d2:	91 1f       	adc	r25, r17
    67d4:	df 91       	pop	r29
    67d6:	cf 91       	pop	r28
    67d8:	1f 91       	pop	r17
    67da:	0f 91       	pop	r16
    67dc:	08 95       	ret

000067de <__vector_23>:
	

#endif

	// busy wait
	__asm__ __volatile__ (
    67de:	1f 92       	push	r1
    67e0:	0f 92       	push	r0
    67e2:	0f b6       	in	r0, 0x3f	; 63
    67e4:	0f 92       	push	r0
    67e6:	11 24       	eor	r1, r1
    67e8:	2f 93       	push	r18
    67ea:	3f 93       	push	r19
    67ec:	8f 93       	push	r24
    67ee:	9f 93       	push	r25
    67f0:	af 93       	push	r26
    67f2:	bf 93       	push	r27
    67f4:	80 91 f1 04 	lds	r24, 0x04F1	; 0x8004f1 <timer0_millis>
    67f8:	90 91 f2 04 	lds	r25, 0x04F2	; 0x8004f2 <timer0_millis+0x1>
    67fc:	a0 91 f3 04 	lds	r26, 0x04F3	; 0x8004f3 <timer0_millis+0x2>
    6800:	b0 91 f4 04 	lds	r27, 0x04F4	; 0x8004f4 <timer0_millis+0x3>
    6804:	30 91 f0 04 	lds	r19, 0x04F0	; 0x8004f0 <timer0_fract>
    6808:	23 e0       	ldi	r18, 0x03	; 3
    680a:	23 0f       	add	r18, r19
    680c:	2d 37       	cpi	r18, 0x7D	; 125
    680e:	20 f4       	brcc	.+8      	; 0x6818 <__vector_23+0x3a>
    6810:	01 96       	adiw	r24, 0x01	; 1
    6812:	a1 1d       	adc	r26, r1
    6814:	b1 1d       	adc	r27, r1
    6816:	05 c0       	rjmp	.+10     	; 0x6822 <__vector_23+0x44>
    6818:	26 e8       	ldi	r18, 0x86	; 134
    681a:	23 0f       	add	r18, r19
    681c:	02 96       	adiw	r24, 0x02	; 2
    681e:	a1 1d       	adc	r26, r1
    6820:	b1 1d       	adc	r27, r1
    6822:	20 93 f0 04 	sts	0x04F0, r18	; 0x8004f0 <timer0_fract>
    6826:	80 93 f1 04 	sts	0x04F1, r24	; 0x8004f1 <timer0_millis>
    682a:	90 93 f2 04 	sts	0x04F2, r25	; 0x8004f2 <timer0_millis+0x1>
    682e:	a0 93 f3 04 	sts	0x04F3, r26	; 0x8004f3 <timer0_millis+0x2>
    6832:	b0 93 f4 04 	sts	0x04F4, r27	; 0x8004f4 <timer0_millis+0x3>
    6836:	80 91 f5 04 	lds	r24, 0x04F5	; 0x8004f5 <timer0_overflow_count>
    683a:	90 91 f6 04 	lds	r25, 0x04F6	; 0x8004f6 <timer0_overflow_count+0x1>
    683e:	a0 91 f7 04 	lds	r26, 0x04F7	; 0x8004f7 <timer0_overflow_count+0x2>
    6842:	b0 91 f8 04 	lds	r27, 0x04F8	; 0x8004f8 <timer0_overflow_count+0x3>
    6846:	01 96       	adiw	r24, 0x01	; 1
    6848:	a1 1d       	adc	r26, r1
    684a:	b1 1d       	adc	r27, r1
    684c:	80 93 f5 04 	sts	0x04F5, r24	; 0x8004f5 <timer0_overflow_count>
    6850:	90 93 f6 04 	sts	0x04F6, r25	; 0x8004f6 <timer0_overflow_count+0x1>
    6854:	a0 93 f7 04 	sts	0x04F7, r26	; 0x8004f7 <timer0_overflow_count+0x2>
    6858:	b0 93 f8 04 	sts	0x04F8, r27	; 0x8004f8 <timer0_overflow_count+0x3>
    685c:	bf 91       	pop	r27
    685e:	af 91       	pop	r26
    6860:	9f 91       	pop	r25
    6862:	8f 91       	pop	r24
    6864:	3f 91       	pop	r19
    6866:	2f 91       	pop	r18
    6868:	0f 90       	pop	r0
    686a:	0f be       	out	0x3f, r0	; 63
    686c:	0f 90       	pop	r0
    686e:	1f 90       	pop	r1
    6870:	18 95       	reti

00006872 <micros>:
    6872:	3f b7       	in	r19, 0x3f	; 63
    6874:	f8 94       	cli
    6876:	80 91 f5 04 	lds	r24, 0x04F5	; 0x8004f5 <timer0_overflow_count>
    687a:	90 91 f6 04 	lds	r25, 0x04F6	; 0x8004f6 <timer0_overflow_count+0x1>
    687e:	a0 91 f7 04 	lds	r26, 0x04F7	; 0x8004f7 <timer0_overflow_count+0x2>
    6882:	b0 91 f8 04 	lds	r27, 0x04F8	; 0x8004f8 <timer0_overflow_count+0x3>
    6886:	26 b5       	in	r18, 0x26	; 38
    6888:	a8 9b       	sbis	0x15, 0	; 21
    688a:	05 c0       	rjmp	.+10     	; 0x6896 <micros+0x24>
    688c:	2f 3f       	cpi	r18, 0xFF	; 255
    688e:	19 f0       	breq	.+6      	; 0x6896 <micros+0x24>
    6890:	01 96       	adiw	r24, 0x01	; 1
    6892:	a1 1d       	adc	r26, r1
    6894:	b1 1d       	adc	r27, r1
    6896:	3f bf       	out	0x3f, r19	; 63
    6898:	ba 2f       	mov	r27, r26
    689a:	a9 2f       	mov	r26, r25
    689c:	98 2f       	mov	r25, r24
    689e:	88 27       	eor	r24, r24
    68a0:	82 0f       	add	r24, r18
    68a2:	91 1d       	adc	r25, r1
    68a4:	a1 1d       	adc	r26, r1
    68a6:	b1 1d       	adc	r27, r1
    68a8:	bc 01       	movw	r22, r24
    68aa:	cd 01       	movw	r24, r26
    68ac:	42 e0       	ldi	r20, 0x02	; 2
    68ae:	66 0f       	add	r22, r22
    68b0:	77 1f       	adc	r23, r23
    68b2:	88 1f       	adc	r24, r24
    68b4:	99 1f       	adc	r25, r25
    68b6:	4a 95       	dec	r20
    68b8:	d1 f7       	brne	.-12     	; 0x68ae <micros+0x3c>
    68ba:	08 95       	ret

000068bc <delay>:
    68bc:	8f 92       	push	r8
    68be:	9f 92       	push	r9
    68c0:	af 92       	push	r10
    68c2:	bf 92       	push	r11
    68c4:	cf 92       	push	r12
    68c6:	df 92       	push	r13
    68c8:	ef 92       	push	r14
    68ca:	ff 92       	push	r15
    68cc:	6b 01       	movw	r12, r22
    68ce:	7c 01       	movw	r14, r24
    68d0:	d0 df       	rcall	.-96     	; 0x6872 <micros>
    68d2:	4b 01       	movw	r8, r22
    68d4:	5c 01       	movw	r10, r24
    68d6:	c1 14       	cp	r12, r1
    68d8:	d1 04       	cpc	r13, r1
    68da:	e1 04       	cpc	r14, r1
    68dc:	f1 04       	cpc	r15, r1
    68de:	f1 f0       	breq	.+60     	; 0x691c <delay+0x60>
    68e0:	fa de       	rcall	.-524    	; 0x66d6 <yield>
    68e2:	c7 df       	rcall	.-114    	; 0x6872 <micros>
    68e4:	dc 01       	movw	r26, r24
    68e6:	cb 01       	movw	r24, r22
    68e8:	88 19       	sub	r24, r8
    68ea:	99 09       	sbc	r25, r9
    68ec:	aa 09       	sbc	r26, r10
    68ee:	bb 09       	sbc	r27, r11
    68f0:	88 3e       	cpi	r24, 0xE8	; 232
    68f2:	93 40       	sbci	r25, 0x03	; 3
    68f4:	a1 05       	cpc	r26, r1
    68f6:	b1 05       	cpc	r27, r1
    68f8:	70 f3       	brcs	.-36     	; 0x68d6 <delay+0x1a>
    68fa:	21 e0       	ldi	r18, 0x01	; 1
    68fc:	c2 1a       	sub	r12, r18
    68fe:	d1 08       	sbc	r13, r1
    6900:	e1 08       	sbc	r14, r1
    6902:	f1 08       	sbc	r15, r1
    6904:	88 ee       	ldi	r24, 0xE8	; 232
    6906:	88 0e       	add	r8, r24
    6908:	83 e0       	ldi	r24, 0x03	; 3
    690a:	98 1e       	adc	r9, r24
    690c:	a1 1c       	adc	r10, r1
    690e:	b1 1c       	adc	r11, r1
    6910:	c1 14       	cp	r12, r1
    6912:	d1 04       	cpc	r13, r1
    6914:	e1 04       	cpc	r14, r1
    6916:	f1 04       	cpc	r15, r1
    6918:	21 f7       	brne	.-56     	; 0x68e2 <delay+0x26>
    691a:	dd cf       	rjmp	.-70     	; 0x68d6 <delay+0x1a>
    691c:	ff 90       	pop	r15
    691e:	ef 90       	pop	r14
    6920:	df 90       	pop	r13
    6922:	cf 90       	pop	r12
    6924:	bf 90       	pop	r11
    6926:	af 90       	pop	r10
    6928:	9f 90       	pop	r9
    692a:	8f 90       	pop	r8
    692c:	08 95       	ret

0000692e <init>:

void init()
{
	// this needs to be called before setup() or some functions won't
	// work there
	sei();
    692e:	78 94       	sei
	
	// on the ATmega168, timer 0 is also used for fast hardware pwm
	// (using phase-correct PWM would mean that timer 0 overflowed half as often
	// resulting in different millis() behavior on the ATmega8 and ATmega168)
#if defined(TCCR0A) && defined(WGM01)
	sbi(TCCR0A, WGM01);
    6930:	84 b5       	in	r24, 0x24	; 36
    6932:	82 60       	ori	r24, 0x02	; 2
    6934:	84 bd       	out	0x24, r24	; 36
	sbi(TCCR0A, WGM00);
    6936:	84 b5       	in	r24, 0x24	; 36
    6938:	81 60       	ori	r24, 0x01	; 1
    693a:	84 bd       	out	0x24, r24	; 36
	// this combination is for the standard atmega8
	sbi(TCCR0, CS01);
	sbi(TCCR0, CS00);
#elif defined(TCCR0B) && defined(CS01) && defined(CS00)
	// this combination is for the standard 168/328/1280/2560
	sbi(TCCR0B, CS01);
    693c:	85 b5       	in	r24, 0x25	; 37
    693e:	82 60       	ori	r24, 0x02	; 2
    6940:	85 bd       	out	0x25, r24	; 37
	sbi(TCCR0B, CS00);
    6942:	85 b5       	in	r24, 0x25	; 37
    6944:	81 60       	ori	r24, 0x01	; 1
    6946:	85 bd       	out	0x25, r24	; 37

	// enable timer 0 overflow interrupt
#if defined(TIMSK) && defined(TOIE0)
	sbi(TIMSK, TOIE0);
#elif defined(TIMSK0) && defined(TOIE0)
	sbi(TIMSK0, TOIE0);
    6948:	ee e6       	ldi	r30, 0x6E	; 110
    694a:	f0 e0       	ldi	r31, 0x00	; 0
    694c:	80 81       	ld	r24, Z
    694e:	81 60       	ori	r24, 0x01	; 1
    6950:	80 83       	st	Z, r24
	// this is better for motors as it ensures an even waveform
	// note, however, that fast pwm mode can achieve a frequency of up
	// 8 MHz (with a 16 MHz clock) at 50% duty cycle

#if defined(TCCR1B) && defined(CS11) && defined(CS10)
	TCCR1B = 0;
    6952:	e1 e8       	ldi	r30, 0x81	; 129
    6954:	f0 e0       	ldi	r31, 0x00	; 0
    6956:	10 82       	st	Z, r1

	// set timer 1 prescale factor to 64
	sbi(TCCR1B, CS11);
    6958:	80 81       	ld	r24, Z
    695a:	82 60       	ori	r24, 0x02	; 2
    695c:	80 83       	st	Z, r24
#if F_CPU >= 8000000L
	sbi(TCCR1B, CS10);
    695e:	80 81       	ld	r24, Z
    6960:	81 60       	ori	r24, 0x01	; 1
    6962:	80 83       	st	Z, r24
	sbi(TCCR1, CS10);
#endif
#endif
	// put timer 1 in 8-bit phase correct pwm mode
#if defined(TCCR1A) && defined(WGM10)
	sbi(TCCR1A, WGM10);
    6964:	e0 e8       	ldi	r30, 0x80	; 128
    6966:	f0 e0       	ldi	r31, 0x00	; 0
    6968:	80 81       	ld	r24, Z
    696a:	81 60       	ori	r24, 0x01	; 1
    696c:	80 83       	st	Z, r24

	// set timer 2 prescale factor to 64
#if defined(TCCR2) && defined(CS22)
	sbi(TCCR2, CS22);
#elif defined(TCCR2B) && defined(CS22)
	sbi(TCCR2B, CS22);
    696e:	e1 eb       	ldi	r30, 0xB1	; 177
    6970:	f0 e0       	ldi	r31, 0x00	; 0
    6972:	80 81       	ld	r24, Z
    6974:	84 60       	ori	r24, 0x04	; 4
    6976:	80 83       	st	Z, r24

	// configure timer 2 for phase correct pwm (8-bit)
#if defined(TCCR2) && defined(WGM20)
	sbi(TCCR2, WGM20);
#elif defined(TCCR2A) && defined(WGM20)
	sbi(TCCR2A, WGM20);
    6978:	e0 eb       	ldi	r30, 0xB0	; 176
    697a:	f0 e0       	ldi	r31, 0x00	; 0
    697c:	80 81       	ld	r24, Z
    697e:	81 60       	ori	r24, 0x01	; 1
    6980:	80 83       	st	Z, r24
//#else
	// Timer 2 not finished (may not be present on this CPU)
#endif

#if defined(TCCR3B) && defined(CS31) && defined(WGM30)
	sbi(TCCR3B, CS31);		// set timer 3 prescale factor to 64
    6982:	e1 e9       	ldi	r30, 0x91	; 145
    6984:	f0 e0       	ldi	r31, 0x00	; 0
    6986:	80 81       	ld	r24, Z
    6988:	82 60       	ori	r24, 0x02	; 2
    698a:	80 83       	st	Z, r24
	sbi(TCCR3B, CS30);
    698c:	80 81       	ld	r24, Z
    698e:	81 60       	ori	r24, 0x01	; 1
    6990:	80 83       	st	Z, r24
	sbi(TCCR3A, WGM30);		// put timer 3 in 8-bit phase correct pwm mode
    6992:	e0 e9       	ldi	r30, 0x90	; 144
    6994:	f0 e0       	ldi	r31, 0x00	; 0
    6996:	80 81       	ld	r24, Z
    6998:	81 60       	ori	r24, 0x01	; 1
    699a:	80 83       	st	Z, r24
	sbi(TCCR4D, WGM40);		// put timer 4 in phase- and frequency-correct PWM mode	
	sbi(TCCR4A, PWM4A);		// enable PWM mode for comparator OCR4A
	sbi(TCCR4C, PWM4D);		// enable PWM mode for comparator OCR4D
#else /* beginning of timer4 block for ATMEGA1280 and ATMEGA2560 */
#if defined(TCCR4B) && defined(CS41) && defined(WGM40)
	sbi(TCCR4B, CS41);		// set timer 4 prescale factor to 64
    699c:	e1 ea       	ldi	r30, 0xA1	; 161
    699e:	f0 e0       	ldi	r31, 0x00	; 0
    69a0:	80 81       	ld	r24, Z
    69a2:	82 60       	ori	r24, 0x02	; 2
    69a4:	80 83       	st	Z, r24
	sbi(TCCR4B, CS40);
    69a6:	80 81       	ld	r24, Z
    69a8:	81 60       	ori	r24, 0x01	; 1
    69aa:	80 83       	st	Z, r24
	sbi(TCCR4A, WGM40);		// put timer 4 in 8-bit phase correct pwm mode
    69ac:	e0 ea       	ldi	r30, 0xA0	; 160
    69ae:	f0 e0       	ldi	r31, 0x00	; 0
    69b0:	80 81       	ld	r24, Z
    69b2:	81 60       	ori	r24, 0x01	; 1
    69b4:	80 83       	st	Z, r24
#endif
#endif /* end timer4 block for ATMEGA1280/2560 and similar */	

#if defined(TCCR5B) && defined(CS51) && defined(WGM50)
	sbi(TCCR5B, CS51);		// set timer 5 prescale factor to 64
    69b6:	e1 e2       	ldi	r30, 0x21	; 33
    69b8:	f1 e0       	ldi	r31, 0x01	; 1
    69ba:	80 81       	ld	r24, Z
    69bc:	82 60       	ori	r24, 0x02	; 2
    69be:	80 83       	st	Z, r24
	sbi(TCCR5B, CS50);
    69c0:	80 81       	ld	r24, Z
    69c2:	81 60       	ori	r24, 0x01	; 1
    69c4:	80 83       	st	Z, r24
	sbi(TCCR5A, WGM50);		// put timer 5 in 8-bit phase correct pwm mode
    69c6:	e0 e2       	ldi	r30, 0x20	; 32
    69c8:	f1 e0       	ldi	r31, 0x01	; 1
    69ca:	80 81       	ld	r24, Z
    69cc:	81 60       	ori	r24, 0x01	; 1
    69ce:	80 83       	st	Z, r24
#endif

#if defined(ADCSRA)
	// set a2d prescaler so we are inside the desired 50-200 KHz range.
	#if F_CPU >= 16000000 // 16 MHz / 128 = 125 KHz
		sbi(ADCSRA, ADPS2);
    69d0:	ea e7       	ldi	r30, 0x7A	; 122
    69d2:	f0 e0       	ldi	r31, 0x00	; 0
    69d4:	80 81       	ld	r24, Z
    69d6:	84 60       	ori	r24, 0x04	; 4
    69d8:	80 83       	st	Z, r24
		sbi(ADCSRA, ADPS1);
    69da:	80 81       	ld	r24, Z
    69dc:	82 60       	ori	r24, 0x02	; 2
    69de:	80 83       	st	Z, r24
		sbi(ADCSRA, ADPS0);
    69e0:	80 81       	ld	r24, Z
    69e2:	81 60       	ori	r24, 0x01	; 1
    69e4:	80 83       	st	Z, r24
		cbi(ADCSRA, ADPS2);
		cbi(ADCSRA, ADPS1);
		sbi(ADCSRA, ADPS0);
	#endif
	// enable a2d conversions
	sbi(ADCSRA, ADEN);
    69e6:	80 81       	ld	r24, Z
    69e8:	80 68       	ori	r24, 0x80	; 128
    69ea:	80 83       	st	Z, r24
	// here so they can be used as normal digital i/o; they will be
	// reconnected in Serial.begin()
#if defined(UCSRB)
	UCSRB = 0;
#elif defined(UCSR0B)
	UCSR0B = 0;
    69ec:	10 92 c1 00 	sts	0x00C1, r1	; 0x8000c1 <__TEXT_REGION_LENGTH__+0x7c00c1>
    69f0:	08 95       	ret

000069f2 <turnOffPWM>:
//
//static inline void turnOffPWM(uint8_t timer) __attribute__ ((always_inline));
//static inline void turnOffPWM(uint8_t timer)
static void turnOffPWM(uint8_t timer)
{
	switch (timer)
    69f2:	90 e0       	ldi	r25, 0x00	; 0
    69f4:	fc 01       	movw	r30, r24
    69f6:	31 97       	sbiw	r30, 0x01	; 1
    69f8:	e2 31       	cpi	r30, 0x12	; 18
    69fa:	f1 05       	cpc	r31, r1
    69fc:	08 f0       	brcs	.+2      	; 0x6a00 <turnOffPWM+0xe>
    69fe:	4d c0       	rjmp	.+154    	; 0x6a9a <turnOffPWM+0xa8>
    6a00:	88 27       	eor	r24, r24
    6a02:	e5 59       	subi	r30, 0x95	; 149
    6a04:	fe 4f       	sbci	r31, 0xFE	; 254
    6a06:	8f 4f       	sbci	r24, 0xFF	; 255
    6a08:	d5 c0       	rjmp	.+426    	; 0x6bb4 <__tablejump2__>
	{
		#if defined(TCCR1A) && defined(COM1A1)
		case TIMER1A:   cbi(TCCR1A, COM1A1);    break;
    6a0a:	80 91 80 00 	lds	r24, 0x0080	; 0x800080 <__TEXT_REGION_LENGTH__+0x7c0080>
    6a0e:	8f 77       	andi	r24, 0x7F	; 127
    6a10:	03 c0       	rjmp	.+6      	; 0x6a18 <turnOffPWM+0x26>
		#endif
		#if defined(TCCR1A) && defined(COM1B1)
		case TIMER1B:   cbi(TCCR1A, COM1B1);    break;
    6a12:	80 91 80 00 	lds	r24, 0x0080	; 0x800080 <__TEXT_REGION_LENGTH__+0x7c0080>
    6a16:	8f 7d       	andi	r24, 0xDF	; 223
    6a18:	80 93 80 00 	sts	0x0080, r24	; 0x800080 <__TEXT_REGION_LENGTH__+0x7c0080>
    6a1c:	08 95       	ret
		#endif
		#if defined(TCCR1A) && defined(COM1C1)
		case TIMER1C:   cbi(TCCR1A, COM1C1);    break;
    6a1e:	80 91 80 00 	lds	r24, 0x0080	; 0x800080 <__TEXT_REGION_LENGTH__+0x7c0080>
    6a22:	87 7f       	andi	r24, 0xF7	; 247
    6a24:	f9 cf       	rjmp	.-14     	; 0x6a18 <turnOffPWM+0x26>
		#if defined(TCCR2) && defined(COM21)
		case  TIMER2:   cbi(TCCR2, COM21);      break;
		#endif
		
		#if defined(TCCR0A) && defined(COM0A1)
		case  TIMER0A:  cbi(TCCR0A, COM0A1);    break;
    6a26:	84 b5       	in	r24, 0x24	; 36
    6a28:	8f 77       	andi	r24, 0x7F	; 127
    6a2a:	02 c0       	rjmp	.+4      	; 0x6a30 <turnOffPWM+0x3e>
		#endif
		
		#if defined(TCCR0A) && defined(COM0B1)
		case  TIMER0B:  cbi(TCCR0A, COM0B1);    break;
    6a2c:	84 b5       	in	r24, 0x24	; 36
    6a2e:	8f 7d       	andi	r24, 0xDF	; 223
    6a30:	84 bd       	out	0x24, r24	; 36
    6a32:	08 95       	ret
		#endif
		#if defined(TCCR2A) && defined(COM2A1)
		case  TIMER2A:  cbi(TCCR2A, COM2A1);    break;
    6a34:	80 91 b0 00 	lds	r24, 0x00B0	; 0x8000b0 <__TEXT_REGION_LENGTH__+0x7c00b0>
    6a38:	8f 77       	andi	r24, 0x7F	; 127
    6a3a:	03 c0       	rjmp	.+6      	; 0x6a42 <turnOffPWM+0x50>
		#endif
		#if defined(TCCR2A) && defined(COM2B1)
		case  TIMER2B:  cbi(TCCR2A, COM2B1);    break;
    6a3c:	80 91 b0 00 	lds	r24, 0x00B0	; 0x8000b0 <__TEXT_REGION_LENGTH__+0x7c00b0>
    6a40:	8f 7d       	andi	r24, 0xDF	; 223
    6a42:	80 93 b0 00 	sts	0x00B0, r24	; 0x8000b0 <__TEXT_REGION_LENGTH__+0x7c00b0>
    6a46:	08 95       	ret
		#endif
		
		#if defined(TCCR3A) && defined(COM3A1)
		case  TIMER3A:  cbi(TCCR3A, COM3A1);    break;
    6a48:	80 91 90 00 	lds	r24, 0x0090	; 0x800090 <__TEXT_REGION_LENGTH__+0x7c0090>
    6a4c:	8f 77       	andi	r24, 0x7F	; 127
    6a4e:	07 c0       	rjmp	.+14     	; 0x6a5e <turnOffPWM+0x6c>
		#endif
		#if defined(TCCR3A) && defined(COM3B1)
		case  TIMER3B:  cbi(TCCR3A, COM3B1);    break;
    6a50:	80 91 90 00 	lds	r24, 0x0090	; 0x800090 <__TEXT_REGION_LENGTH__+0x7c0090>
    6a54:	8f 7d       	andi	r24, 0xDF	; 223
    6a56:	03 c0       	rjmp	.+6      	; 0x6a5e <turnOffPWM+0x6c>
		#endif
		#if defined(TCCR3A) && defined(COM3C1)
		case  TIMER3C:  cbi(TCCR3A, COM3C1);    break;
    6a58:	80 91 90 00 	lds	r24, 0x0090	; 0x800090 <__TEXT_REGION_LENGTH__+0x7c0090>
    6a5c:	87 7f       	andi	r24, 0xF7	; 247
    6a5e:	80 93 90 00 	sts	0x0090, r24	; 0x800090 <__TEXT_REGION_LENGTH__+0x7c0090>
    6a62:	08 95       	ret
		#endif

		#if defined(TCCR4A) && defined(COM4A1)
		case  TIMER4A:  cbi(TCCR4A, COM4A1);    break;
    6a64:	80 91 a0 00 	lds	r24, 0x00A0	; 0x8000a0 <__TEXT_REGION_LENGTH__+0x7c00a0>
    6a68:	8f 77       	andi	r24, 0x7F	; 127
    6a6a:	07 c0       	rjmp	.+14     	; 0x6a7a <turnOffPWM+0x88>
		#endif					
		#if defined(TCCR4A) && defined(COM4B1)
		case  TIMER4B:  cbi(TCCR4A, COM4B1);    break;
    6a6c:	80 91 a0 00 	lds	r24, 0x00A0	; 0x8000a0 <__TEXT_REGION_LENGTH__+0x7c00a0>
    6a70:	8f 7d       	andi	r24, 0xDF	; 223
    6a72:	03 c0       	rjmp	.+6      	; 0x6a7a <turnOffPWM+0x88>
		#endif
		#if defined(TCCR4A) && defined(COM4C1)
		case  TIMER4C:  cbi(TCCR4A, COM4C1);    break;
    6a74:	80 91 a0 00 	lds	r24, 0x00A0	; 0x8000a0 <__TEXT_REGION_LENGTH__+0x7c00a0>
    6a78:	87 7f       	andi	r24, 0xF7	; 247
    6a7a:	80 93 a0 00 	sts	0x00A0, r24	; 0x8000a0 <__TEXT_REGION_LENGTH__+0x7c00a0>
    6a7e:	08 95       	ret
		#if defined(TCCR4C) && defined(COM4D1)
		case TIMER4D:	cbi(TCCR4C, COM4D1);	break;
		#endif			
			
		#if defined(TCCR5A)
		case  TIMER5A:  cbi(TCCR5A, COM5A1);    break;
    6a80:	80 91 20 01 	lds	r24, 0x0120	; 0x800120 <__TEXT_REGION_LENGTH__+0x7c0120>
    6a84:	8f 77       	andi	r24, 0x7F	; 127
    6a86:	07 c0       	rjmp	.+14     	; 0x6a96 <turnOffPWM+0xa4>
		case  TIMER5B:  cbi(TCCR5A, COM5B1);    break;
    6a88:	80 91 20 01 	lds	r24, 0x0120	; 0x800120 <__TEXT_REGION_LENGTH__+0x7c0120>
    6a8c:	8f 7d       	andi	r24, 0xDF	; 223
    6a8e:	03 c0       	rjmp	.+6      	; 0x6a96 <turnOffPWM+0xa4>
		case  TIMER5C:  cbi(TCCR5A, COM5C1);    break;
    6a90:	80 91 20 01 	lds	r24, 0x0120	; 0x800120 <__TEXT_REGION_LENGTH__+0x7c0120>
    6a94:	87 7f       	andi	r24, 0xF7	; 247
    6a96:	80 93 20 01 	sts	0x0120, r24	; 0x800120 <__TEXT_REGION_LENGTH__+0x7c0120>
    6a9a:	08 95       	ret

00006a9c <pinMode>:
#define ARDUINO_MAIN
#include "wiring_private.h"
#include "pins_arduino.h"

void pinMode(uint8_t pin, uint8_t mode)
{
    6a9c:	cf 93       	push	r28
    6a9e:	df 93       	push	r29
	uint8_t bit = digitalPinToBitMask(pin);
    6aa0:	90 e0       	ldi	r25, 0x00	; 0
    6aa2:	fc 01       	movw	r30, r24
    6aa4:	e7 57       	subi	r30, 0x77	; 119
    6aa6:	f2 4f       	sbci	r31, 0xF2	; 242
    6aa8:	24 91       	lpm	r18, Z
	uint8_t port = digitalPinToPort(pin);
    6aaa:	fc 01       	movw	r30, r24
    6aac:	e1 53       	subi	r30, 0x31	; 49
    6aae:	f2 4f       	sbci	r31, 0xF2	; 242
    6ab0:	84 91       	lpm	r24, Z
	volatile uint8_t *reg, *out;

	if (port == NOT_A_PIN) return;
    6ab2:	88 23       	and	r24, r24
    6ab4:	61 f1       	breq	.+88     	; 0x6b0e <pinMode+0x72>

	// JWS: can I let the optimizer do this?
	reg = portModeRegister(port);
    6ab6:	90 e0       	ldi	r25, 0x00	; 0
    6ab8:	88 0f       	add	r24, r24
    6aba:	99 1f       	adc	r25, r25
    6abc:	fc 01       	movw	r30, r24
    6abe:	e1 5d       	subi	r30, 0xD1	; 209
    6ac0:	f1 4f       	sbci	r31, 0xF1	; 241
    6ac2:	c5 91       	lpm	r28, Z+
    6ac4:	d4 91       	lpm	r29, Z
	out = portOutputRegister(port);
    6ac6:	fc 01       	movw	r30, r24
    6ac8:	eb 5e       	subi	r30, 0xEB	; 235
    6aca:	f1 4f       	sbci	r31, 0xF1	; 241
    6acc:	a5 91       	lpm	r26, Z+
    6ace:	b4 91       	lpm	r27, Z

	if (mode == INPUT) { 
    6ad0:	61 11       	cpse	r22, r1
    6ad2:	09 c0       	rjmp	.+18     	; 0x6ae6 <pinMode+0x4a>
		uint8_t oldSREG = SREG;
    6ad4:	9f b7       	in	r25, 0x3f	; 63
                cli();
    6ad6:	f8 94       	cli
		*reg &= ~bit;
    6ad8:	88 81       	ld	r24, Y
    6ada:	20 95       	com	r18
    6adc:	82 23       	and	r24, r18
    6ade:	88 83       	st	Y, r24
		*out &= ~bit;
    6ae0:	ec 91       	ld	r30, X
    6ae2:	2e 23       	and	r18, r30
    6ae4:	0b c0       	rjmp	.+22     	; 0x6afc <pinMode+0x60>
		SREG = oldSREG;
	} else if (mode == INPUT_PULLUP) {
    6ae6:	62 30       	cpi	r22, 0x02	; 2
    6ae8:	61 f4       	brne	.+24     	; 0x6b02 <pinMode+0x66>
		uint8_t oldSREG = SREG;
    6aea:	9f b7       	in	r25, 0x3f	; 63
                cli();
    6aec:	f8 94       	cli
		*reg &= ~bit;
    6aee:	88 81       	ld	r24, Y
    6af0:	32 2f       	mov	r19, r18
    6af2:	30 95       	com	r19
    6af4:	83 23       	and	r24, r19
    6af6:	88 83       	st	Y, r24
		*out |= bit;
    6af8:	ec 91       	ld	r30, X
    6afa:	2e 2b       	or	r18, r30
    6afc:	2c 93       	st	X, r18
		SREG = oldSREG;
    6afe:	9f bf       	out	0x3f, r25	; 63
    6b00:	06 c0       	rjmp	.+12     	; 0x6b0e <pinMode+0x72>
	} else {
		uint8_t oldSREG = SREG;
    6b02:	8f b7       	in	r24, 0x3f	; 63
                cli();
    6b04:	f8 94       	cli
		*reg |= bit;
    6b06:	e8 81       	ld	r30, Y
    6b08:	2e 2b       	or	r18, r30
    6b0a:	28 83       	st	Y, r18
		SREG = oldSREG;
    6b0c:	8f bf       	out	0x3f, r24	; 63
	}
}
    6b0e:	df 91       	pop	r29
    6b10:	cf 91       	pop	r28
    6b12:	08 95       	ret

00006b14 <digitalWrite>:
		#endif
	}
}

void digitalWrite(uint8_t pin, uint8_t val)
{
    6b14:	1f 93       	push	r17
    6b16:	cf 93       	push	r28
    6b18:	df 93       	push	r29
	uint8_t timer = digitalPinToTimer(pin);
    6b1a:	28 2f       	mov	r18, r24
    6b1c:	30 e0       	ldi	r19, 0x00	; 0
    6b1e:	f9 01       	movw	r30, r18
    6b20:	ed 5b       	subi	r30, 0xBD	; 189
    6b22:	f2 4f       	sbci	r31, 0xF2	; 242
    6b24:	84 91       	lpm	r24, Z
	uint8_t bit = digitalPinToBitMask(pin);
    6b26:	f9 01       	movw	r30, r18
    6b28:	e7 57       	subi	r30, 0x77	; 119
    6b2a:	f2 4f       	sbci	r31, 0xF2	; 242
    6b2c:	d4 91       	lpm	r29, Z
	uint8_t port = digitalPinToPort(pin);
    6b2e:	f9 01       	movw	r30, r18
    6b30:	e1 53       	subi	r30, 0x31	; 49
    6b32:	f2 4f       	sbci	r31, 0xF2	; 242
    6b34:	c4 91       	lpm	r28, Z
	volatile uint8_t *out;

	if (port == NOT_A_PIN) return;
    6b36:	cc 23       	and	r28, r28
    6b38:	b9 f0       	breq	.+46     	; 0x6b68 <digitalWrite+0x54>
    6b3a:	16 2f       	mov	r17, r22

	// If the pin that support PWM output, we need to turn it off
	// before doing a digital write.
	if (timer != NOT_ON_TIMER) turnOffPWM(timer);
    6b3c:	81 11       	cpse	r24, r1
    6b3e:	59 df       	rcall	.-334    	; 0x69f2 <turnOffPWM>

	out = portOutputRegister(port);
    6b40:	ec 2f       	mov	r30, r28
    6b42:	f0 e0       	ldi	r31, 0x00	; 0
    6b44:	ee 0f       	add	r30, r30
    6b46:	ff 1f       	adc	r31, r31
    6b48:	eb 5e       	subi	r30, 0xEB	; 235
    6b4a:	f1 4f       	sbci	r31, 0xF1	; 241
    6b4c:	a5 91       	lpm	r26, Z+
    6b4e:	b4 91       	lpm	r27, Z

	uint8_t oldSREG = SREG;
    6b50:	9f b7       	in	r25, 0x3f	; 63
	cli();
    6b52:	f8 94       	cli

	if (val == LOW) {
    6b54:	11 11       	cpse	r17, r1
    6b56:	04 c0       	rjmp	.+8      	; 0x6b60 <digitalWrite+0x4c>
		*out &= ~bit;
    6b58:	8c 91       	ld	r24, X
    6b5a:	d0 95       	com	r29
    6b5c:	d8 23       	and	r29, r24
    6b5e:	02 c0       	rjmp	.+4      	; 0x6b64 <digitalWrite+0x50>
	} else {
		*out |= bit;
    6b60:	ec 91       	ld	r30, X
    6b62:	de 2b       	or	r29, r30
    6b64:	dc 93       	st	X, r29
	}

	SREG = oldSREG;
    6b66:	9f bf       	out	0x3f, r25	; 63
}
    6b68:	df 91       	pop	r29
    6b6a:	cf 91       	pop	r28
    6b6c:	1f 91       	pop	r17
    6b6e:	08 95       	ret

00006b70 <__udivmodsi4>:
    6b70:	a1 e2       	ldi	r26, 0x21	; 33
    6b72:	1a 2e       	mov	r1, r26
    6b74:	aa 1b       	sub	r26, r26
    6b76:	bb 1b       	sub	r27, r27
    6b78:	fd 01       	movw	r30, r26
    6b7a:	0d c0       	rjmp	.+26     	; 0x6b96 <__udivmodsi4_ep>

00006b7c <__udivmodsi4_loop>:
    6b7c:	aa 1f       	adc	r26, r26
    6b7e:	bb 1f       	adc	r27, r27
    6b80:	ee 1f       	adc	r30, r30
    6b82:	ff 1f       	adc	r31, r31
    6b84:	a2 17       	cp	r26, r18
    6b86:	b3 07       	cpc	r27, r19
    6b88:	e4 07       	cpc	r30, r20
    6b8a:	f5 07       	cpc	r31, r21
    6b8c:	20 f0       	brcs	.+8      	; 0x6b96 <__udivmodsi4_ep>
    6b8e:	a2 1b       	sub	r26, r18
    6b90:	b3 0b       	sbc	r27, r19
    6b92:	e4 0b       	sbc	r30, r20
    6b94:	f5 0b       	sbc	r31, r21

00006b96 <__udivmodsi4_ep>:
    6b96:	66 1f       	adc	r22, r22
    6b98:	77 1f       	adc	r23, r23
    6b9a:	88 1f       	adc	r24, r24
    6b9c:	99 1f       	adc	r25, r25
    6b9e:	1a 94       	dec	r1
    6ba0:	69 f7       	brne	.-38     	; 0x6b7c <__udivmodsi4_loop>
    6ba2:	60 95       	com	r22
    6ba4:	70 95       	com	r23
    6ba6:	80 95       	com	r24
    6ba8:	90 95       	com	r25
    6baa:	9b 01       	movw	r18, r22
    6bac:	ac 01       	movw	r20, r24
    6bae:	bd 01       	movw	r22, r26
    6bb0:	cf 01       	movw	r24, r30
    6bb2:	08 95       	ret

00006bb4 <__tablejump2__>:
    6bb4:	ee 0f       	add	r30, r30
    6bb6:	ff 1f       	adc	r31, r31
    6bb8:	88 1f       	adc	r24, r24
    6bba:	8b bf       	out	0x3b, r24	; 59
    6bbc:	07 90       	elpm	r0, Z+
    6bbe:	f6 91       	elpm	r31, Z
    6bc0:	e0 2d       	mov	r30, r0
    6bc2:	19 94       	eijmp

00006bc4 <malloc>:
    6bc4:	0f 93       	push	r16
    6bc6:	1f 93       	push	r17
    6bc8:	cf 93       	push	r28
    6bca:	df 93       	push	r29
    6bcc:	82 30       	cpi	r24, 0x02	; 2
    6bce:	91 05       	cpc	r25, r1
    6bd0:	10 f4       	brcc	.+4      	; 0x6bd6 <malloc+0x12>
    6bd2:	82 e0       	ldi	r24, 0x02	; 2
    6bd4:	90 e0       	ldi	r25, 0x00	; 0
    6bd6:	e0 91 fb 04 	lds	r30, 0x04FB	; 0x8004fb <__flp>
    6bda:	f0 91 fc 04 	lds	r31, 0x04FC	; 0x8004fc <__flp+0x1>
    6bde:	20 e0       	ldi	r18, 0x00	; 0
    6be0:	30 e0       	ldi	r19, 0x00	; 0
    6be2:	a0 e0       	ldi	r26, 0x00	; 0
    6be4:	b0 e0       	ldi	r27, 0x00	; 0
    6be6:	30 97       	sbiw	r30, 0x00	; 0
    6be8:	19 f1       	breq	.+70     	; 0x6c30 <malloc+0x6c>
    6bea:	40 81       	ld	r20, Z
    6bec:	51 81       	ldd	r21, Z+1	; 0x01
    6bee:	02 81       	ldd	r16, Z+2	; 0x02
    6bf0:	13 81       	ldd	r17, Z+3	; 0x03
    6bf2:	48 17       	cp	r20, r24
    6bf4:	59 07       	cpc	r21, r25
    6bf6:	c8 f0       	brcs	.+50     	; 0x6c2a <malloc+0x66>
    6bf8:	84 17       	cp	r24, r20
    6bfa:	95 07       	cpc	r25, r21
    6bfc:	69 f4       	brne	.+26     	; 0x6c18 <malloc+0x54>
    6bfe:	10 97       	sbiw	r26, 0x00	; 0
    6c00:	31 f0       	breq	.+12     	; 0x6c0e <malloc+0x4a>
    6c02:	12 96       	adiw	r26, 0x02	; 2
    6c04:	0c 93       	st	X, r16
    6c06:	12 97       	sbiw	r26, 0x02	; 2
    6c08:	13 96       	adiw	r26, 0x03	; 3
    6c0a:	1c 93       	st	X, r17
    6c0c:	27 c0       	rjmp	.+78     	; 0x6c5c <malloc+0x98>
    6c0e:	00 93 fb 04 	sts	0x04FB, r16	; 0x8004fb <__flp>
    6c12:	10 93 fc 04 	sts	0x04FC, r17	; 0x8004fc <__flp+0x1>
    6c16:	22 c0       	rjmp	.+68     	; 0x6c5c <malloc+0x98>
    6c18:	21 15       	cp	r18, r1
    6c1a:	31 05       	cpc	r19, r1
    6c1c:	19 f0       	breq	.+6      	; 0x6c24 <malloc+0x60>
    6c1e:	42 17       	cp	r20, r18
    6c20:	53 07       	cpc	r21, r19
    6c22:	18 f4       	brcc	.+6      	; 0x6c2a <malloc+0x66>
    6c24:	9a 01       	movw	r18, r20
    6c26:	bd 01       	movw	r22, r26
    6c28:	ef 01       	movw	r28, r30
    6c2a:	df 01       	movw	r26, r30
    6c2c:	f8 01       	movw	r30, r16
    6c2e:	db cf       	rjmp	.-74     	; 0x6be6 <malloc+0x22>
    6c30:	21 15       	cp	r18, r1
    6c32:	31 05       	cpc	r19, r1
    6c34:	f9 f0       	breq	.+62     	; 0x6c74 <malloc+0xb0>
    6c36:	28 1b       	sub	r18, r24
    6c38:	39 0b       	sbc	r19, r25
    6c3a:	24 30       	cpi	r18, 0x04	; 4
    6c3c:	31 05       	cpc	r19, r1
    6c3e:	80 f4       	brcc	.+32     	; 0x6c60 <malloc+0x9c>
    6c40:	8a 81       	ldd	r24, Y+2	; 0x02
    6c42:	9b 81       	ldd	r25, Y+3	; 0x03
    6c44:	61 15       	cp	r22, r1
    6c46:	71 05       	cpc	r23, r1
    6c48:	21 f0       	breq	.+8      	; 0x6c52 <malloc+0x8e>
    6c4a:	fb 01       	movw	r30, r22
    6c4c:	93 83       	std	Z+3, r25	; 0x03
    6c4e:	82 83       	std	Z+2, r24	; 0x02
    6c50:	04 c0       	rjmp	.+8      	; 0x6c5a <malloc+0x96>
    6c52:	90 93 fc 04 	sts	0x04FC, r25	; 0x8004fc <__flp+0x1>
    6c56:	80 93 fb 04 	sts	0x04FB, r24	; 0x8004fb <__flp>
    6c5a:	fe 01       	movw	r30, r28
    6c5c:	32 96       	adiw	r30, 0x02	; 2
    6c5e:	44 c0       	rjmp	.+136    	; 0x6ce8 <malloc+0x124>
    6c60:	fe 01       	movw	r30, r28
    6c62:	e2 0f       	add	r30, r18
    6c64:	f3 1f       	adc	r31, r19
    6c66:	81 93       	st	Z+, r24
    6c68:	91 93       	st	Z+, r25
    6c6a:	22 50       	subi	r18, 0x02	; 2
    6c6c:	31 09       	sbc	r19, r1
    6c6e:	39 83       	std	Y+1, r19	; 0x01
    6c70:	28 83       	st	Y, r18
    6c72:	3a c0       	rjmp	.+116    	; 0x6ce8 <malloc+0x124>
    6c74:	20 91 f9 04 	lds	r18, 0x04F9	; 0x8004f9 <__brkval>
    6c78:	30 91 fa 04 	lds	r19, 0x04FA	; 0x8004fa <__brkval+0x1>
    6c7c:	23 2b       	or	r18, r19
    6c7e:	41 f4       	brne	.+16     	; 0x6c90 <malloc+0xcc>
    6c80:	20 91 02 02 	lds	r18, 0x0202	; 0x800202 <__malloc_heap_start>
    6c84:	30 91 03 02 	lds	r19, 0x0203	; 0x800203 <__malloc_heap_start+0x1>
    6c88:	30 93 fa 04 	sts	0x04FA, r19	; 0x8004fa <__brkval+0x1>
    6c8c:	20 93 f9 04 	sts	0x04F9, r18	; 0x8004f9 <__brkval>
    6c90:	20 91 00 02 	lds	r18, 0x0200	; 0x800200 <__DATA_REGION_ORIGIN__>
    6c94:	30 91 01 02 	lds	r19, 0x0201	; 0x800201 <__DATA_REGION_ORIGIN__+0x1>
    6c98:	21 15       	cp	r18, r1
    6c9a:	31 05       	cpc	r19, r1
    6c9c:	41 f4       	brne	.+16     	; 0x6cae <malloc+0xea>
    6c9e:	2d b7       	in	r18, 0x3d	; 61
    6ca0:	3e b7       	in	r19, 0x3e	; 62
    6ca2:	40 91 04 02 	lds	r20, 0x0204	; 0x800204 <__malloc_margin>
    6ca6:	50 91 05 02 	lds	r21, 0x0205	; 0x800205 <__malloc_margin+0x1>
    6caa:	24 1b       	sub	r18, r20
    6cac:	35 0b       	sbc	r19, r21
    6cae:	e0 91 f9 04 	lds	r30, 0x04F9	; 0x8004f9 <__brkval>
    6cb2:	f0 91 fa 04 	lds	r31, 0x04FA	; 0x8004fa <__brkval+0x1>
    6cb6:	e2 17       	cp	r30, r18
    6cb8:	f3 07       	cpc	r31, r19
    6cba:	a0 f4       	brcc	.+40     	; 0x6ce4 <malloc+0x120>
    6cbc:	2e 1b       	sub	r18, r30
    6cbe:	3f 0b       	sbc	r19, r31
    6cc0:	28 17       	cp	r18, r24
    6cc2:	39 07       	cpc	r19, r25
    6cc4:	78 f0       	brcs	.+30     	; 0x6ce4 <malloc+0x120>
    6cc6:	ac 01       	movw	r20, r24
    6cc8:	4e 5f       	subi	r20, 0xFE	; 254
    6cca:	5f 4f       	sbci	r21, 0xFF	; 255
    6ccc:	24 17       	cp	r18, r20
    6cce:	35 07       	cpc	r19, r21
    6cd0:	48 f0       	brcs	.+18     	; 0x6ce4 <malloc+0x120>
    6cd2:	4e 0f       	add	r20, r30
    6cd4:	5f 1f       	adc	r21, r31
    6cd6:	50 93 fa 04 	sts	0x04FA, r21	; 0x8004fa <__brkval+0x1>
    6cda:	40 93 f9 04 	sts	0x04F9, r20	; 0x8004f9 <__brkval>
    6cde:	81 93       	st	Z+, r24
    6ce0:	91 93       	st	Z+, r25
    6ce2:	02 c0       	rjmp	.+4      	; 0x6ce8 <malloc+0x124>
    6ce4:	e0 e0       	ldi	r30, 0x00	; 0
    6ce6:	f0 e0       	ldi	r31, 0x00	; 0
    6ce8:	cf 01       	movw	r24, r30
    6cea:	df 91       	pop	r29
    6cec:	cf 91       	pop	r28
    6cee:	1f 91       	pop	r17
    6cf0:	0f 91       	pop	r16
    6cf2:	08 95       	ret

00006cf4 <free>:
    6cf4:	cf 93       	push	r28
    6cf6:	df 93       	push	r29
    6cf8:	00 97       	sbiw	r24, 0x00	; 0
    6cfa:	09 f4       	brne	.+2      	; 0x6cfe <free+0xa>
    6cfc:	81 c0       	rjmp	.+258    	; 0x6e00 <free+0x10c>
    6cfe:	fc 01       	movw	r30, r24
    6d00:	32 97       	sbiw	r30, 0x02	; 2
    6d02:	13 82       	std	Z+3, r1	; 0x03
    6d04:	12 82       	std	Z+2, r1	; 0x02
    6d06:	a0 91 fb 04 	lds	r26, 0x04FB	; 0x8004fb <__flp>
    6d0a:	b0 91 fc 04 	lds	r27, 0x04FC	; 0x8004fc <__flp+0x1>
    6d0e:	10 97       	sbiw	r26, 0x00	; 0
    6d10:	81 f4       	brne	.+32     	; 0x6d32 <free+0x3e>
    6d12:	20 81       	ld	r18, Z
    6d14:	31 81       	ldd	r19, Z+1	; 0x01
    6d16:	82 0f       	add	r24, r18
    6d18:	93 1f       	adc	r25, r19
    6d1a:	20 91 f9 04 	lds	r18, 0x04F9	; 0x8004f9 <__brkval>
    6d1e:	30 91 fa 04 	lds	r19, 0x04FA	; 0x8004fa <__brkval+0x1>
    6d22:	28 17       	cp	r18, r24
    6d24:	39 07       	cpc	r19, r25
    6d26:	51 f5       	brne	.+84     	; 0x6d7c <free+0x88>
    6d28:	f0 93 fa 04 	sts	0x04FA, r31	; 0x8004fa <__brkval+0x1>
    6d2c:	e0 93 f9 04 	sts	0x04F9, r30	; 0x8004f9 <__brkval>
    6d30:	67 c0       	rjmp	.+206    	; 0x6e00 <free+0x10c>
    6d32:	ed 01       	movw	r28, r26
    6d34:	20 e0       	ldi	r18, 0x00	; 0
    6d36:	30 e0       	ldi	r19, 0x00	; 0
    6d38:	ce 17       	cp	r28, r30
    6d3a:	df 07       	cpc	r29, r31
    6d3c:	40 f4       	brcc	.+16     	; 0x6d4e <free+0x5a>
    6d3e:	4a 81       	ldd	r20, Y+2	; 0x02
    6d40:	5b 81       	ldd	r21, Y+3	; 0x03
    6d42:	9e 01       	movw	r18, r28
    6d44:	41 15       	cp	r20, r1
    6d46:	51 05       	cpc	r21, r1
    6d48:	f1 f0       	breq	.+60     	; 0x6d86 <free+0x92>
    6d4a:	ea 01       	movw	r28, r20
    6d4c:	f5 cf       	rjmp	.-22     	; 0x6d38 <free+0x44>
    6d4e:	d3 83       	std	Z+3, r29	; 0x03
    6d50:	c2 83       	std	Z+2, r28	; 0x02
    6d52:	40 81       	ld	r20, Z
    6d54:	51 81       	ldd	r21, Z+1	; 0x01
    6d56:	84 0f       	add	r24, r20
    6d58:	95 1f       	adc	r25, r21
    6d5a:	c8 17       	cp	r28, r24
    6d5c:	d9 07       	cpc	r29, r25
    6d5e:	59 f4       	brne	.+22     	; 0x6d76 <free+0x82>
    6d60:	88 81       	ld	r24, Y
    6d62:	99 81       	ldd	r25, Y+1	; 0x01
    6d64:	84 0f       	add	r24, r20
    6d66:	95 1f       	adc	r25, r21
    6d68:	02 96       	adiw	r24, 0x02	; 2
    6d6a:	91 83       	std	Z+1, r25	; 0x01
    6d6c:	80 83       	st	Z, r24
    6d6e:	8a 81       	ldd	r24, Y+2	; 0x02
    6d70:	9b 81       	ldd	r25, Y+3	; 0x03
    6d72:	93 83       	std	Z+3, r25	; 0x03
    6d74:	82 83       	std	Z+2, r24	; 0x02
    6d76:	21 15       	cp	r18, r1
    6d78:	31 05       	cpc	r19, r1
    6d7a:	29 f4       	brne	.+10     	; 0x6d86 <free+0x92>
    6d7c:	f0 93 fc 04 	sts	0x04FC, r31	; 0x8004fc <__flp+0x1>
    6d80:	e0 93 fb 04 	sts	0x04FB, r30	; 0x8004fb <__flp>
    6d84:	3d c0       	rjmp	.+122    	; 0x6e00 <free+0x10c>
    6d86:	e9 01       	movw	r28, r18
    6d88:	fb 83       	std	Y+3, r31	; 0x03
    6d8a:	ea 83       	std	Y+2, r30	; 0x02
    6d8c:	49 91       	ld	r20, Y+
    6d8e:	59 91       	ld	r21, Y+
    6d90:	c4 0f       	add	r28, r20
    6d92:	d5 1f       	adc	r29, r21
    6d94:	ec 17       	cp	r30, r28
    6d96:	fd 07       	cpc	r31, r29
    6d98:	61 f4       	brne	.+24     	; 0x6db2 <free+0xbe>
    6d9a:	80 81       	ld	r24, Z
    6d9c:	91 81       	ldd	r25, Z+1	; 0x01
    6d9e:	84 0f       	add	r24, r20
    6da0:	95 1f       	adc	r25, r21
    6da2:	02 96       	adiw	r24, 0x02	; 2
    6da4:	e9 01       	movw	r28, r18
    6da6:	99 83       	std	Y+1, r25	; 0x01
    6da8:	88 83       	st	Y, r24
    6daa:	82 81       	ldd	r24, Z+2	; 0x02
    6dac:	93 81       	ldd	r25, Z+3	; 0x03
    6dae:	9b 83       	std	Y+3, r25	; 0x03
    6db0:	8a 83       	std	Y+2, r24	; 0x02
    6db2:	e0 e0       	ldi	r30, 0x00	; 0
    6db4:	f0 e0       	ldi	r31, 0x00	; 0
    6db6:	12 96       	adiw	r26, 0x02	; 2
    6db8:	8d 91       	ld	r24, X+
    6dba:	9c 91       	ld	r25, X
    6dbc:	13 97       	sbiw	r26, 0x03	; 3
    6dbe:	00 97       	sbiw	r24, 0x00	; 0
    6dc0:	19 f0       	breq	.+6      	; 0x6dc8 <free+0xd4>
    6dc2:	fd 01       	movw	r30, r26
    6dc4:	dc 01       	movw	r26, r24
    6dc6:	f7 cf       	rjmp	.-18     	; 0x6db6 <free+0xc2>
    6dc8:	8d 91       	ld	r24, X+
    6dca:	9c 91       	ld	r25, X
    6dcc:	11 97       	sbiw	r26, 0x01	; 1
    6dce:	9d 01       	movw	r18, r26
    6dd0:	2e 5f       	subi	r18, 0xFE	; 254
    6dd2:	3f 4f       	sbci	r19, 0xFF	; 255
    6dd4:	82 0f       	add	r24, r18
    6dd6:	93 1f       	adc	r25, r19
    6dd8:	20 91 f9 04 	lds	r18, 0x04F9	; 0x8004f9 <__brkval>
    6ddc:	30 91 fa 04 	lds	r19, 0x04FA	; 0x8004fa <__brkval+0x1>
    6de0:	28 17       	cp	r18, r24
    6de2:	39 07       	cpc	r19, r25
    6de4:	69 f4       	brne	.+26     	; 0x6e00 <free+0x10c>
    6de6:	30 97       	sbiw	r30, 0x00	; 0
    6de8:	29 f4       	brne	.+10     	; 0x6df4 <free+0x100>
    6dea:	10 92 fc 04 	sts	0x04FC, r1	; 0x8004fc <__flp+0x1>
    6dee:	10 92 fb 04 	sts	0x04FB, r1	; 0x8004fb <__flp>
    6df2:	02 c0       	rjmp	.+4      	; 0x6df8 <free+0x104>
    6df4:	13 82       	std	Z+3, r1	; 0x03
    6df6:	12 82       	std	Z+2, r1	; 0x02
    6df8:	b0 93 fa 04 	sts	0x04FA, r27	; 0x8004fa <__brkval+0x1>
    6dfc:	a0 93 f9 04 	sts	0x04F9, r26	; 0x8004f9 <__brkval>
    6e00:	df 91       	pop	r29
    6e02:	cf 91       	pop	r28
    6e04:	08 95       	ret

00006e06 <abort>:
    6e06:	81 e0       	ldi	r24, 0x01	; 1
    6e08:	90 e0       	ldi	r25, 0x00	; 0
    6e0a:	f8 94       	cli
    6e0c:	07 c0       	rjmp	.+14     	; 0x6e1c <__do_global_dtors>

00006e0e <memset>:
    6e0e:	dc 01       	movw	r26, r24
    6e10:	01 c0       	rjmp	.+2      	; 0x6e14 <memset+0x6>
    6e12:	6d 93       	st	X+, r22
    6e14:	41 50       	subi	r20, 0x01	; 1
    6e16:	50 40       	sbci	r21, 0x00	; 0
    6e18:	e0 f7       	brcc	.-8      	; 0x6e12 <memset+0x4>
    6e1a:	08 95       	ret

00006e1c <__do_global_dtors>:
    6e1c:	17 e0       	ldi	r17, 0x07	; 7
    6e1e:	c8 e2       	ldi	r28, 0x28	; 40
    6e20:	d7 e0       	ldi	r29, 0x07	; 7
    6e22:	00 e0       	ldi	r16, 0x00	; 0
    6e24:	05 c0       	rjmp	.+10     	; 0x6e30 <__do_global_dtors+0x14>
    6e26:	80 2f       	mov	r24, r16
    6e28:	fe 01       	movw	r30, r28
    6e2a:	c4 de       	rcall	.-632    	; 0x6bb4 <__tablejump2__>
    6e2c:	21 96       	adiw	r28, 0x01	; 1
    6e2e:	01 1d       	adc	r16, r1
    6e30:	c9 32       	cpi	r28, 0x29	; 41
    6e32:	d1 07       	cpc	r29, r17
    6e34:	80 e0       	ldi	r24, 0x00	; 0
    6e36:	08 07       	cpc	r16, r24
    6e38:	b1 f7       	brne	.-20     	; 0x6e26 <__do_global_dtors+0xa>
    6e3a:	f8 94       	cli

00006e3c <__stop_program>:
    6e3c:	ff cf       	rjmp	.-2      	; 0x6e3c <__stop_program>
